 DoubleHelix

 Timestamp is 5cf9c5eb (Thu Jun  6 21:03:23 2019)

 Preferred load address is 00400000

 Start         Length     Name                   Class
 0001:00000000 00001270H .text$di                CODE
 0001:00001270 000ae440H .text$mn                CODE
 0001:000af6b0 00007820H .text$x                 CODE
 0001:000b6ed0 00000e7cH .text$yd                CODE
 0002:00000000 00000374H .idata$5                DATA
 0002:00000374 00000004H .00cfg                  DATA
 0002:00000378 00000004H .CRT$XCA                DATA
 0002:0000037c 00000004H .CRT$XCAA               DATA
 0002:00000380 000000ecH .CRT$XCU                DATA
 0002:0000046c 00000004H .CRT$XCZ                DATA
 0002:00000470 00000004H .CRT$XIA                DATA
 0002:00000474 00000004H .CRT$XIAA               DATA
 0002:00000478 00000004H .CRT$XIAC               DATA
 0002:0000047c 00000004H .CRT$XIZ                DATA
 0002:00000480 00000004H .CRT$XPA                DATA
 0002:00000484 00000004H .CRT$XPZ                DATA
 0002:00000488 00000004H .CRT$XTA                DATA
 0002:0000048c 00000004H .CRT$XTZ                DATA
 0002:00000490 00006dc4H .rdata                  DATA
 0002:00007254 00000594H .rdata$r                DATA
 0002:000077e8 00000320H .rdata$zzzdbg           DATA
 0002:00007b08 00000004H .rtc$IAA                DATA
 0002:00007b0c 00000000H .rtc$IMZ                DATA
 0002:00007b0c 00000004H .rtc$IZZ                DATA
 0002:00007b10 00000004H .rtc$TAA                DATA
 0002:00007b14 00000000H .rtc$TMZ                DATA
 0002:00007b14 00000004H .rtc$TZZ                DATA
 0002:00007b18 000077ecH .xdata$x                DATA
 0002:0000f304 00000000H .edata                  DATA
 0002:0000f304 000000f0H .idata$2                DATA
 0002:0000f3f4 00000014H .idata$3                DATA
 0002:0000f408 00000374H .idata$4                DATA
 0002:0000f77c 000013e4H .idata$6                DATA
 0003:00000000 00000168H .data                   DATA
 0003:00000168 00000348H .data$r                 DATA
 0003:000004b0 00019d8cH .bss                    DATA
 0004:00000000 00000048H .gfids$y                DATA
 0005:00000000 00000a60H .rsrc$01                DATA
 0005:00000a60 00006d18H .rsrc$02                DATA

  Address         Publics by Value              Rva+Base       Lib:Object

 0000:00000000       ___guard_fids_count        00000000     <absolute>
 0000:00000000       ___guard_longjmp_count     00000000     <absolute>
 0000:00000000       ___safe_se_handler_table   00000000     <absolute>
 0000:00000000       ___guard_longjmp_table     00000000     <absolute>
 0000:00000000       ___safe_se_handler_count   00000000     <absolute>
 0000:00000000       ___dynamic_value_reloc_table 00000000     <absolute>
 0000:00000000       ___guard_iat_table         00000000     <absolute>
 0000:00000000       ___guard_iat_count         00000000     <absolute>
 0000:00000000       ___guard_fids_table        00000000     <absolute>
 0000:00000100       ___guard_flags             00000100     <absolute>
 0000:00000000       ___ImageBase               00400000     <linker-defined>
 0001:00001270       ??0clsUIScroll@@QAE@XZ     00402270 f   clsScroll.obj
 0001:000012a0       ??1clsUIScroll@@QAE@XZ     004022a0 f   clsScroll.obj
 0001:000012d0       ?ChangeScrollbars@clsUIScroll@@QAEHXZ 004022d0 f   clsScroll.obj
 0001:000013f0       ?UpdateScroll@clsUIScroll@@QAEHI@Z 004023f0 f   clsScroll.obj
 0001:00001550       ?create@clsUIScroll@@QAEHPAUHWND__@@HH@Z 00402550 f   clsScroll.obj
 0001:000015c0       ??$?0$$V@?$_Compressed_pair@U?$_Wrap_alloc@V?$allocator@U?$_Tree_node@U?$pair@$$CBV?$basic_string@DU?$char_traits@D@std@@V?$allocator@D@2@@std@@H@std@@PAX@std@@@std@@@std@@V?$_Tree_val@U?$_Tree_simple_types@U?$pair@$$CBV?$basic_string@DU?$char_traits@D@std@@V?$allocator@D@2@@std@@H@std@@@std@@@2@$00@std@@QAE@U_Zero_then_variadic_args_t@1@@Z 004025c0 f i fraMainProc.obj
 0001:00001610       ??$?0AAU?$_Wrap_alloc@V?$allocator@U?$_Tree_node@U?$pair@$$CBV?$basic_string@DU?$char_traits@D@std@@V?$allocator@D@2@@std@@H@std@@PAX@std@@@std@@@std@@@?$_Wrap_alloc@V?$allocator@U_Container_proxy@std@@@std@@@std@@QAE@AAU?$_Wrap_alloc@V?$allocator@U?$_Tree_node@U?$pair@$$CBV?$basic_string@DU?$char_traits@D@std@@V?$allocator@D@2@@std@@H@std@@PAX@std@@@std@@@1@@Z 00402610 f i fraMainProc.obj
 0001:00001670       ??$?0ABU?$less@V?$basic_string@DU?$char_traits@D@std@@V?$allocator@D@2@@std@@@std@@U_Zero_then_variadic_args_t@1@@?$_Compressed_pair@U?$less@V?$basic_string@DU?$char_traits@D@std@@V?$allocator@D@2@@std@@@std@@V?$_Compressed_pair@U?$_Wrap_alloc@V?$allocator@U?$_Tree_node@U?$pair@$$CBV?$basic_string@DU?$char_traits@D@std@@V?$allocator@D@2@@std@@H@std@@PAX@std@@@std@@@std@@V?$_Tree_val@U?$_Tree_simple_types@U?$pair@$$CBV?$basic_string@DU?$char_traits@D@std@@V?$allocator@D@2@@std@@H@std@@@std@@@2@$00@2@$00@std@@QAE@U_One_then_variadic_args_t@1@ABU?$less@V?$basic_string@DU?$char_traits@D@std@@V?$allocator@D@2@@std@@@1@$$QAU_Zero_then_variadic_args_t@1@@Z 00402670 f i fraMainProc.obj
 0001:000016e0       ??$?0U?$_Tree_node@U?$pair@$$CBV?$basic_string@DU?$char_traits@D@std@@V?$allocator@D@2@@std@@H@std@@PAX@std@@@?$allocator@U_Container_proxy@std@@@std@@QAE@ABV?$allocator@U?$_Tree_node@U?$pair@$$CBV?$basic_string@DU?$char_traits@D@std@@V?$allocator@D@2@@std@@H@std@@PAX@std@@@1@@Z 004026e0 f i fraMainProc.obj
 0001:00001710       ??$_Unfancy@U_Container_proxy@std@@@std@@YAPAU_Container_proxy@0@PAU10@@Z 00402710 f i fraMainProc.obj
 0001:00001740       ??$__vcrt_va_start_verify_argument_type@QBD@@YAXXZ 00402740 f i fraMainProc.obj
 0001:00001770       ??$addressof@PAU?$_Tree_node@U?$pair@$$CBV?$basic_string@DU?$char_traits@D@std@@V?$allocator@D@2@@std@@H@std@@PAX@std@@@std@@YAPAPAU?$_Tree_node@U?$pair@$$CBV?$basic_string@DU?$char_traits@D@std@@V?$allocator@D@2@@std@@H@std@@PAX@0@AAPAU10@@Z 00402770 f i fraMainProc.obj
 0001:000017a0       ??$construct@PAU?$_Tree_node@U?$pair@$$CBV?$basic_string@DU?$char_traits@D@std@@V?$allocator@D@2@@std@@H@std@@PAX@std@@AAPAU12@@?$_Wrap_alloc@V?$allocator@U?$_Tree_node@U?$pair@$$CBV?$basic_string@DU?$char_traits@D@std@@V?$allocator@D@2@@std@@H@std@@PAX@std@@@std@@@std@@QAEXPAPAU?$_Tree_node@U?$pair@$$CBV?$basic_string@DU?$char_traits@D@std@@V?$allocator@D@2@@std@@H@std@@PAX@1@AAPAU21@@Z 004027a0 f i fraMainProc.obj
 0001:00001800       ??$construct@PAU?$_Tree_node@U?$pair@$$CBV?$basic_string@DU?$char_traits@D@std@@V?$allocator@D@2@@std@@H@std@@PAX@std@@AAPAU12@@?$allocator@U?$_Tree_node@U?$pair@$$CBV?$basic_string@DU?$char_traits@D@std@@V?$allocator@D@2@@std@@H@std@@PAX@std@@@std@@QAEXPAPAU?$_Tree_node@U?$pair@$$CBV?$basic_string@DU?$char_traits@D@std@@V?$allocator@D@2@@std@@H@std@@PAX@1@AAPAU21@@Z 00402800 f i fraMainProc.obj
 0001:00001890       ??$construct@PAU?$_Tree_node@U?$pair@$$CBV?$basic_string@DU?$char_traits@D@std@@V?$allocator@D@2@@std@@H@std@@PAX@std@@AAPAU12@@?$allocator_traits@V?$allocator@U?$_Tree_node@U?$pair@$$CBV?$basic_string@DU?$char_traits@D@std@@V?$allocator@D@2@@std@@H@std@@PAX@std@@@std@@@std@@SAXAAV?$allocator@U?$_Tree_node@U?$pair@$$CBV?$basic_string@DU?$char_traits@D@std@@V?$allocator@D@2@@std@@H@std@@PAX@std@@@1@PAPAU?$_Tree_node@U?$pair@$$CBV?$basic_string@DU?$char_traits@D@std@@V?$allocator@D@2@@std@@H@std@@PAX@1@AAPAU31@@Z 00402890 f i fraMainProc.obj
 0001:000018e0       ??$construct@U_Container_proxy@std@@U12@@?$_Wrap_alloc@V?$allocator@U_Container_proxy@std@@@std@@@std@@QAEXPAU_Container_proxy@1@$$QAU21@@Z 004028e0 f i fraMainProc.obj
 0001:00001940       ??$construct@U_Container_proxy@std@@U12@@?$allocator@U_Container_proxy@std@@@std@@QAEXPAU_Container_proxy@1@$$QAU21@@Z 00402940 f i fraMainProc.obj
 0001:000019d0       ??$construct@U_Container_proxy@std@@U12@@?$allocator_traits@V?$allocator@U_Container_proxy@std@@@std@@@std@@SAXAAV?$allocator@U_Container_proxy@std@@@1@PAU_Container_proxy@1@$$QAU31@@Z 004029d0 f i fraMainProc.obj
 0001:00001a20       ??$destroy@PAU?$_Tree_node@U?$pair@$$CBV?$basic_string@DU?$char_traits@D@std@@V?$allocator@D@2@@std@@H@std@@PAX@std@@@?$_Wrap_alloc@V?$allocator@U?$_Tree_node@U?$pair@$$CBV?$basic_string@DU?$char_traits@D@std@@V?$allocator@D@2@@std@@H@std@@PAX@std@@@std@@@std@@QAEXPAPAU?$_Tree_node@U?$pair@$$CBV?$basic_string@DU?$char_traits@D@std@@V?$allocator@D@2@@std@@H@std@@PAX@1@@Z 00402a20 f i fraMainProc.obj
 0001:00001a70       ??$destroy@PAU?$_Tree_node@U?$pair@$$CBV?$basic_string@DU?$char_traits@D@std@@V?$allocator@D@2@@std@@H@std@@PAX@std@@@?$allocator@U?$_Tree_node@U?$pair@$$CBV?$basic_string@DU?$char_traits@D@std@@V?$allocator@D@2@@std@@H@std@@PAX@std@@@std@@QAEXPAPAU?$_Tree_node@U?$pair@$$CBV?$basic_string@DU?$char_traits@D@std@@V?$allocator@D@2@@std@@H@std@@PAX@1@@Z 00402a70 f i fraMainProc.obj
 0001:00001aa0       ??$destroy@PAU?$_Tree_node@U?$pair@$$CBV?$basic_string@DU?$char_traits@D@std@@V?$allocator@D@2@@std@@H@std@@PAX@std@@@?$allocator_traits@V?$allocator@U?$_Tree_node@U?$pair@$$CBV?$basic_string@DU?$char_traits@D@std@@V?$allocator@D@2@@std@@H@std@@PAX@std@@@std@@@std@@SAXAAV?$allocator@U?$_Tree_node@U?$pair@$$CBV?$basic_string@DU?$char_traits@D@std@@V?$allocator@D@2@@std@@H@std@@PAX@std@@@1@PAPAU?$_Tree_node@U?$pair@$$CBV?$basic_string@DU?$char_traits@D@std@@V?$allocator@D@2@@std@@H@std@@PAX@1@@Z 00402aa0 f i fraMainProc.obj
 0001:00001ae0       ??$forward@AAPAU?$_Tree_node@U?$pair@$$CBV?$basic_string@DU?$char_traits@D@std@@V?$allocator@D@2@@std@@H@std@@PAX@std@@@std@@YAAAPAU?$_Tree_node@U?$pair@$$CBV?$basic_string@DU?$char_traits@D@std@@V?$allocator@D@2@@std@@H@std@@PAX@0@AAPAU10@@Z 00402ae0 f i fraMainProc.obj
 0001:00001b10       ??$forward@AAU?$_Wrap_alloc@V?$allocator@U?$_Tree_node@U?$pair@$$CBV?$basic_string@DU?$char_traits@D@std@@V?$allocator@D@2@@std@@H@std@@PAX@std@@@std@@@std@@@std@@YAAAU?$_Wrap_alloc@V?$allocator@U?$_Tree_node@U?$pair@$$CBV?$basic_string@DU?$char_traits@D@std@@V?$allocator@D@2@@std@@H@std@@PAX@std@@@std@@@0@AAU10@@Z 00402b10 f i fraMainProc.obj
 0001:00001b40       ??$forward@ABU?$less@V?$basic_string@DU?$char_traits@D@std@@V?$allocator@D@2@@std@@@std@@@std@@YAABU?$less@V?$basic_string@DU?$char_traits@D@std@@V?$allocator@D@2@@std@@@0@ABU10@@Z 00402b40 f i fraMainProc.obj
 0001:00001b70       ??$forward@U_Container_proxy@std@@@std@@YA$$QAU_Container_proxy@0@AAU10@@Z 00402b70 f i fraMainProc.obj
 0001:00001ba0       ??$forward@U_Zero_then_variadic_args_t@std@@@std@@YA$$QAU_Zero_then_variadic_args_t@0@AAU10@@Z 00402ba0 f i fraMainProc.obj
 0001:00001bd0       ??0?$_Tree@V?$_Tmap_traits@V?$basic_string@DU?$char_traits@D@std@@V?$allocator@D@2@@std@@HU?$less@V?$basic_string@DU?$char_traits@D@std@@V?$allocator@D@2@@std@@@2@V?$allocator@U?$pair@$$CBV?$basic_string@DU?$char_traits@D@std@@V?$allocator@D@2@@std@@H@std@@@2@$0A@@std@@@std@@QAE@ABU?$less@V?$basic_string@DU?$char_traits@D@std@@V?$allocator@D@2@@std@@@1@@Z 00402bd0 f i fraMainProc.obj
 0001:00001c20       ??0?$_Tree_comp_alloc@V?$_Tmap_traits@V?$basic_string@DU?$char_traits@D@std@@V?$allocator@D@2@@std@@HU?$less@V?$basic_string@DU?$char_traits@D@std@@V?$allocator@D@2@@std@@@2@V?$allocator@U?$pair@$$CBV?$basic_string@DU?$char_traits@D@std@@V?$allocator@D@2@@std@@H@std@@@2@$0A@@std@@@std@@QAE@ABU?$less@V?$basic_string@DU?$char_traits@D@std@@V?$allocator@D@2@@std@@@1@@Z 00402c20 f i fraMainProc.obj
 0001:00001cc0       ??0?$_Tree_val@U?$_Tree_simple_types@U?$pair@$$CBV?$basic_string@DU?$char_traits@D@std@@V?$allocator@D@2@@std@@H@std@@@std@@@std@@QAE@XZ 00402cc0 f i fraMainProc.obj
 0001:00001d20       ??0?$_Wrap_alloc@V?$allocator@U?$_Tree_node@U?$pair@$$CBV?$basic_string@DU?$char_traits@D@std@@V?$allocator@D@2@@std@@H@std@@PAX@std@@@std@@@std@@QAE@XZ 00402d20 f i fraMainProc.obj
 0001:00001d70       ??0?$allocator@U?$_Tree_node@U?$pair@$$CBV?$basic_string@DU?$char_traits@D@std@@V?$allocator@D@2@@std@@H@std@@PAX@std@@@std@@QAE@XZ 00402d70 f i fraMainProc.obj
 0001:00001da0       ??0?$map@V?$basic_string@DU?$char_traits@D@std@@V?$allocator@D@2@@std@@HU?$less@V?$basic_string@DU?$char_traits@D@std@@V?$allocator@D@2@@std@@@2@V?$allocator@U?$pair@$$CBV?$basic_string@DU?$char_traits@D@std@@V?$allocator@D@2@@std@@H@std@@@2@@std@@QAE@XZ 00402da0 f i fraMainProc.obj
 0001:00001df0       ??0_Container_base12@std@@QAE@XZ 00402df0 f i fraMainProc.obj
 0001:00001e30       ??0_Container_proxy@std@@QAE@XZ 00402e30 f i fraMainProc.obj
 0001:00001e70       ??0exception@std@@QAE@QBD@Z 00402e70 f i fraMainProc.obj
 0001:00001f20       ??1?$_Compressed_pair@U?$_Wrap_alloc@V?$allocator@U?$_Tree_node@U?$pair@$$CBV?$basic_string@DU?$char_traits@D@std@@V?$allocator@D@2@@std@@H@std@@PAX@std@@@std@@@std@@V?$_Tree_val@U?$_Tree_simple_types@U?$pair@$$CBV?$basic_string@DU?$char_traits@D@std@@V?$allocator@D@2@@std@@H@std@@@std@@@2@$00@std@@QAE@XZ 00402f20 f i fraMainProc.obj
 0001:00001f60       ??1?$_Compressed_pair@U?$less@V?$basic_string@DU?$char_traits@D@std@@V?$allocator@D@2@@std@@@std@@V?$_Compressed_pair@U?$_Wrap_alloc@V?$allocator@U?$_Tree_node@U?$pair@$$CBV?$basic_string@DU?$char_traits@D@std@@V?$allocator@D@2@@std@@H@std@@PAX@std@@@std@@@std@@V?$_Tree_val@U?$_Tree_simple_types@U?$pair@$$CBV?$basic_string@DU?$char_traits@D@std@@V?$allocator@D@2@@std@@H@std@@@std@@@2@$00@2@$00@std@@QAE@XZ 00402f60 f i fraMainProc.obj
 0001:00001fa0       ??1?$_Tree_val@U?$_Tree_simple_types@U?$pair@$$CBV?$basic_string@DU?$char_traits@D@std@@V?$allocator@D@2@@std@@H@std@@@std@@@std@@QAE@XZ 00402fa0 f i fraMainProc.obj
 0001:00001fe0       ??1_Container_base12@std@@QAE@XZ 00402fe0 f i fraMainProc.obj
 0001:00002050       ??1exception@std@@UAE@XZ   00403050 f i fraMainProc.obj
 0001:000020b0       ??2@YAPAXIPAX@Z            004030b0 f i fraMainProc.obj
 0001:000020e0       ??_Eexception@std@@UAEPAXI@Z 004030e0 f i fraMainProc.obj
 0001:000020e0       ??_Gexception@std@@UAEPAXI@Z 004030e0 f i fraMainProc.obj
 0001:00002140       ?CheckZoom@@YAXH@Z         00403140 f   fraMainProc.obj
 0001:00002240       ?DisableByState@@YAXPAVsChecks@@@Z 00403240 f   fraMainProc.obj
 0001:00002350       ?DrawStatusFromUI@@YAXXZ   00403350 f   fraMainProc.obj
 0001:00002420       ?GetLayer@MapManager@@QAEPAVnMapBuffer@@H@Z 00403420 f i fraMainProc.obj
 0001:000024a0       ?GetState@MapManager@@QAEPAVMapEditingState@@XZ 004034a0 f i fraMainProc.obj
 0001:000024d0       ?HandleDetections2@@YAHPAUHWND__@@IIJ@Z 004034d0 f   fraMainProc.obj
 0001:00003230       ?ProcessControls2@@YA_NPAUHWND__@@IIJ@Z 00404230 f   fraMainProc.obj
 0001:000035c0       ?UpdateHeaderControls@@YAHXZ 004045c0 f   fraMainProc.obj
 0001:00003b00       ?_Alloc_proxy@?$_Tree_comp_alloc@V?$_Tmap_traits@V?$basic_string@DU?$char_traits@D@std@@V?$allocator@D@2@@std@@HU?$less@V?$basic_string@DU?$char_traits@D@std@@V?$allocator@D@2@@std@@@2@V?$allocator@U?$pair@$$CBV?$basic_string@DU?$char_traits@D@std@@V?$allocator@D@2@@std@@H@std@@@2@$0A@@std@@@std@@QAEXXZ 00404b00 f i fraMainProc.obj
 0001:00003bd0       ?_Allocate@std@@YAPAXII_N@Z 00404bd0 f i fraMainProc.obj
 0001:00003dc0       ?_Buyheadnode@?$_Tree_comp_alloc@V?$_Tmap_traits@V?$basic_string@DU?$char_traits@D@std@@V?$allocator@D@2@@std@@HU?$less@V?$basic_string@DU?$char_traits@D@std@@V?$allocator@D@2@@std@@@2@V?$allocator@U?$pair@$$CBV?$basic_string@DU?$char_traits@D@std@@V?$allocator@D@2@@std@@H@std@@@2@$0A@@std@@@std@@QAEPAU?$_Tree_node@U?$pair@$$CBV?$basic_string@DU?$char_traits@D@std@@V?$allocator@D@2@@std@@H@std@@PAX@2@XZ 00404dc0 f i fraMainProc.obj
 0001:00003f70       ?_Color@?$_Tree_comp_alloc@V?$_Tmap_traits@V?$basic_string@DU?$char_traits@D@std@@V?$allocator@D@2@@std@@HU?$less@V?$basic_string@DU?$char_traits@D@std@@V?$allocator@D@2@@std@@@2@V?$allocator@U?$pair@$$CBV?$basic_string@DU?$char_traits@D@std@@V?$allocator@D@2@@std@@H@std@@@2@$0A@@std@@@std@@SAAADPAU?$_Tree_node@U?$pair@$$CBV?$basic_string@DU?$char_traits@D@std@@V?$allocator@D@2@@std@@H@std@@PAX@2@@Z 00404f70 f i fraMainProc.obj
 0001:00003fb0       ?_Color@?$_Tree_val@U?$_Tree_simple_types@U?$pair@$$CBV?$basic_string@DU?$char_traits@D@std@@V?$allocator@D@2@@std@@H@std@@@std@@@std@@SAAADPAU?$_Tree_node@U?$pair@$$CBV?$basic_string@DU?$char_traits@D@std@@V?$allocator@D@2@@std@@H@std@@PAX@2@@Z 00404fb0 f i fraMainProc.obj
 0001:00003fe0       ?_Construct@?$_Tree_comp_alloc@V?$_Tmap_traits@V?$basic_string@DU?$char_traits@D@std@@V?$allocator@D@2@@std@@HU?$less@V?$basic_string@DU?$char_traits@D@std@@V?$allocator@D@2@@std@@@2@V?$allocator@U?$pair@$$CBV?$basic_string@DU?$char_traits@D@std@@V?$allocator@D@2@@std@@H@std@@@2@$0A@@std@@@std@@QAEXXZ 00404fe0 f i fraMainProc.obj
 0001:000040a0       ?_Deallocate@std@@YAXPAXII@Z 004050a0 f i fraMainProc.obj
 0001:000043f0       ?_Freeheadnode@?$_Tree_comp_alloc@V?$_Tmap_traits@V?$basic_string@DU?$char_traits@D@std@@V?$allocator@D@2@@std@@HU?$less@V?$basic_string@DU?$char_traits@D@std@@V?$allocator@D@2@@std@@@2@V?$allocator@U?$pair@$$CBV?$basic_string@DU?$char_traits@D@std@@V?$allocator@D@2@@std@@H@std@@@2@$0A@@std@@@std@@QAEXPAU?$_Tree_node@U?$pair@$$CBV?$basic_string@DU?$char_traits@D@std@@V?$allocator@D@2@@std@@H@std@@PAX@2@@Z 004053f0 f i fraMainProc.obj
 0001:000044b0       ?_Get_data@?$_Tree_comp_alloc@V?$_Tmap_traits@V?$basic_string@DU?$char_traits@D@std@@V?$allocator@D@2@@std@@HU?$less@V?$basic_string@DU?$char_traits@D@std@@V?$allocator@D@2@@std@@@2@V?$allocator@U?$pair@$$CBV?$basic_string@DU?$char_traits@D@std@@V?$allocator@D@2@@std@@H@std@@@2@$0A@@std@@@std@@QAEAAV?$_Tree_val@U?$_Tree_simple_types@U?$pair@$$CBV?$basic_string@DU?$char_traits@D@std@@V?$allocator@D@2@@std@@H@std@@@std@@@2@XZ 004054b0 f i fraMainProc.obj
 0001:00004500       ?_Get_data@?$_Vector_alloc@U?$_Vec_base_types@UnEnemyList@@V?$allocator@UnEnemyList@@@std@@@std@@@std@@QBEABV?$_Vector_val@U?$_Simple_types@UnEnemyList@@@std@@@2@XZ 00405500 f i fraMainProc.obj
 0001:00004540       ?_Get_first@?$_Compressed_pair@U?$_Wrap_alloc@V?$allocator@U?$_Tree_node@U?$pair@$$CBV?$basic_string@DU?$char_traits@D@std@@V?$allocator@D@2@@std@@H@std@@PAX@std@@@std@@@std@@V?$_Tree_val@U?$_Tree_simple_types@U?$pair@$$CBV?$basic_string@DU?$char_traits@D@std@@V?$allocator@D@2@@std@@H@std@@@std@@@2@$00@std@@QAEAAU?$_Wrap_alloc@V?$allocator@U?$_Tree_node@U?$pair@$$CBV?$basic_string@DU?$char_traits@D@std@@V?$allocator@D@2@@std@@H@std@@PAX@std@@@std@@@2@XZ 00405540 f i fraMainProc.obj
 0001:00004570       ?_Get_second@?$_Compressed_pair@U?$_Wrap_alloc@V?$allocator@U?$_Tree_node@U?$pair@$$CBV?$basic_string@DU?$char_traits@D@std@@V?$allocator@D@2@@std@@H@std@@PAX@std@@@std@@@std@@V?$_Tree_val@U?$_Tree_simple_types@U?$pair@$$CBV?$basic_string@DU?$char_traits@D@std@@V?$allocator@D@2@@std@@H@std@@@std@@@2@$00@std@@QAEAAV?$_Tree_val@U?$_Tree_simple_types@U?$pair@$$CBV?$basic_string@DU?$char_traits@D@std@@V?$allocator@D@2@@std@@H@std@@@std@@@2@XZ 00405570 f i fraMainProc.obj
 0001:000045a0       ?_Get_second@?$_Compressed_pair@U?$_Wrap_alloc@V?$allocator@UnEnemyList@@@std@@@std@@V?$_Vector_val@U?$_Simple_types@UnEnemyList@@@std@@@2@$00@std@@QBEABV?$_Vector_val@U?$_Simple_types@UnEnemyList@@@std@@@2@XZ 004055a0 f i fraMainProc.obj
 0001:000045d0       ?_Get_second@?$_Compressed_pair@U?$less@V?$basic_string@DU?$char_traits@D@std@@V?$allocator@D@2@@std@@@std@@V?$_Compressed_pair@U?$_Wrap_alloc@V?$allocator@U?$_Tree_node@U?$pair@$$CBV?$basic_string@DU?$char_traits@D@std@@V?$allocator@D@2@@std@@H@std@@PAX@std@@@std@@@std@@V?$_Tree_val@U?$_Tree_simple_types@U?$pair@$$CBV?$basic_string@DU?$char_traits@D@std@@V?$allocator@D@2@@std@@H@std@@@std@@@2@$00@2@$00@std@@QAEAAV?$_Compressed_pair@U?$_Wrap_alloc@V?$allocator@U?$_Tree_node@U?$pair@$$CBV?$basic_string@DU?$char_traits@D@std@@V?$allocator@D@2@@std@@H@std@@PAX@std@@@std@@@std@@V?$_Tree_val@U?$_Tree_simple_types@U?$pair@$$CBV?$basic_string@DU?$char_traits@D@std@@V?$allocator@D@2@@std@@H@std@@@std@@@2@$00@2@XZ 004055d0 f i fraMainProc.obj
 0001:00004600       ?_Getal@?$_Tree_comp_alloc@V?$_Tmap_traits@V?$basic_string@DU?$char_traits@D@std@@V?$allocator@D@2@@std@@HU?$less@V?$basic_string@DU?$char_traits@D@std@@V?$allocator@D@2@@std@@@2@V?$allocator@U?$pair@$$CBV?$basic_string@DU?$char_traits@D@std@@V?$allocator@D@2@@std@@H@std@@@2@$0A@@std@@@std@@QAEAAU?$_Wrap_alloc@V?$allocator@U?$_Tree_node@U?$pair@$$CBV?$basic_string@DU?$char_traits@D@std@@V?$allocator@D@2@@std@@H@std@@PAX@std@@@std@@@2@XZ 00405600 f i fraMainProc.obj
 0001:00004650       ?_Isnil@?$_Tree_comp_alloc@V?$_Tmap_traits@V?$basic_string@DU?$char_traits@D@std@@V?$allocator@D@2@@std@@HU?$less@V?$basic_string@DU?$char_traits@D@std@@V?$allocator@D@2@@std@@@2@V?$allocator@U?$pair@$$CBV?$basic_string@DU?$char_traits@D@std@@V?$allocator@D@2@@std@@H@std@@@2@$0A@@std@@@std@@SAAADPAU?$_Tree_node@U?$pair@$$CBV?$basic_string@DU?$char_traits@D@std@@V?$allocator@D@2@@std@@H@std@@PAX@2@@Z 00405650 f i fraMainProc.obj
 0001:00004690       ?_Isnil@?$_Tree_val@U?$_Tree_simple_types@U?$pair@$$CBV?$basic_string@DU?$char_traits@D@std@@V?$allocator@D@2@@std@@H@std@@@std@@@std@@SAAADPAU?$_Tree_node@U?$pair@$$CBV?$basic_string@DU?$char_traits@D@std@@V?$allocator@D@2@@std@@H@std@@PAX@2@@Z 00405690 f i fraMainProc.obj
 0001:000046c0       ?_Left@?$_Tree_comp_alloc@V?$_Tmap_traits@V?$basic_string@DU?$char_traits@D@std@@V?$allocator@D@2@@std@@HU?$less@V?$basic_string@DU?$char_traits@D@std@@V?$allocator@D@2@@std@@@2@V?$allocator@U?$pair@$$CBV?$basic_string@DU?$char_traits@D@std@@V?$allocator@D@2@@std@@H@std@@@2@$0A@@std@@@std@@SAAAPAU?$_Tree_node@U?$pair@$$CBV?$basic_string@DU?$char_traits@D@std@@V?$allocator@D@2@@std@@H@std@@PAX@2@PAU32@@Z 004056c0 f i fraMainProc.obj
 0001:00004700       ?_Left@?$_Tree_val@U?$_Tree_simple_types@U?$pair@$$CBV?$basic_string@DU?$char_traits@D@std@@V?$allocator@D@2@@std@@H@std@@@std@@@std@@SAAAPAU?$_Tree_node@U?$pair@$$CBV?$basic_string@DU?$char_traits@D@std@@V?$allocator@D@2@@std@@H@std@@PAX@2@PAU32@@Z 00405700 f i fraMainProc.obj
 0001:00004730       ?_Myfirst@?$_Vector_alloc@U?$_Vec_base_types@UnEnemyList@@V?$allocator@UnEnemyList@@@std@@@std@@@std@@QBEABQAUnEnemyList@@XZ 00405730 f i fraMainProc.obj
 0001:00004780       ?_Myhead@?$_Tree_comp_alloc@V?$_Tmap_traits@V?$basic_string@DU?$char_traits@D@std@@V?$allocator@D@2@@std@@HU?$less@V?$basic_string@DU?$char_traits@D@std@@V?$allocator@D@2@@std@@@2@V?$allocator@U?$pair@$$CBV?$basic_string@DU?$char_traits@D@std@@V?$allocator@D@2@@std@@H@std@@@2@$0A@@std@@@std@@QAEAAPAU?$_Tree_node@U?$pair@$$CBV?$basic_string@DU?$char_traits@D@std@@V?$allocator@D@2@@std@@H@std@@PAX@2@XZ 00405780 f i fraMainProc.obj
 0001:000047d0       ?_Mylast@?$_Vector_alloc@U?$_Vec_base_types@UnEnemyList@@V?$allocator@UnEnemyList@@@std@@@std@@@std@@QBEABQAUnEnemyList@@XZ 004057d0 f i fraMainProc.obj
 0001:00004820       ?_Myproxy@?$_Tree_comp_alloc@V?$_Tmap_traits@V?$basic_string@DU?$char_traits@D@std@@V?$allocator@D@2@@std@@HU?$less@V?$basic_string@DU?$char_traits@D@std@@V?$allocator@D@2@@std@@@2@V?$allocator@U?$pair@$$CBV?$basic_string@DU?$char_traits@D@std@@V?$allocator@D@2@@std@@H@std@@@2@$0A@@std@@@std@@QAEAAPAU_Container_proxy@2@XZ 00405820 f i fraMainProc.obj
 0001:00004860       ?_Orphan_all@_Container_base12@std@@QAEXXZ 00405860 f i fraMainProc.obj
 0001:00004930       ?_Parent@?$_Tree_comp_alloc@V?$_Tmap_traits@V?$basic_string@DU?$char_traits@D@std@@V?$allocator@D@2@@std@@HU?$less@V?$basic_string@DU?$char_traits@D@std@@V?$allocator@D@2@@std@@@2@V?$allocator@U?$pair@$$CBV?$basic_string@DU?$char_traits@D@std@@V?$allocator@D@2@@std@@H@std@@@2@$0A@@std@@@std@@SAAAPAU?$_Tree_node@U?$pair@$$CBV?$basic_string@DU?$char_traits@D@std@@V?$allocator@D@2@@std@@H@std@@PAX@2@PAU32@@Z 00405930 f i fraMainProc.obj
 0001:00004970       ?_Parent@?$_Tree_val@U?$_Tree_simple_types@U?$pair@$$CBV?$basic_string@DU?$char_traits@D@std@@V?$allocator@D@2@@std@@H@std@@@std@@@std@@SAAAPAU?$_Tree_node@U?$pair@$$CBV?$basic_string@DU?$char_traits@D@std@@V?$allocator@D@2@@std@@H@std@@PAX@2@PAU32@@Z 00405970 f i fraMainProc.obj
 0001:000049a0       ?_Right@?$_Tree_comp_alloc@V?$_Tmap_traits@V?$basic_string@DU?$char_traits@D@std@@V?$allocator@D@2@@std@@HU?$less@V?$basic_string@DU?$char_traits@D@std@@V?$allocator@D@2@@std@@@2@V?$allocator@U?$pair@$$CBV?$basic_string@DU?$char_traits@D@std@@V?$allocator@D@2@@std@@H@std@@@2@$0A@@std@@@std@@SAAAPAU?$_Tree_node@U?$pair@$$CBV?$basic_string@DU?$char_traits@D@std@@V?$allocator@D@2@@std@@H@std@@PAX@2@PAU32@@Z 004059a0 f i fraMainProc.obj
 0001:000049e0       ?_Right@?$_Tree_val@U?$_Tree_simple_types@U?$pair@$$CBV?$basic_string@DU?$char_traits@D@std@@V?$allocator@D@2@@std@@H@std@@@std@@@std@@SAAAPAU?$_Tree_node@U?$pair@$$CBV?$basic_string@DU?$char_traits@D@std@@V?$allocator@D@2@@std@@H@std@@PAX@2@PAU32@@Z 004059e0 f i fraMainProc.obj
 0001:00004a10       ?allocate@?$_Wrap_alloc@V?$allocator@U?$_Tree_node@U?$pair@$$CBV?$basic_string@DU?$char_traits@D@std@@V?$allocator@D@2@@std@@H@std@@PAX@std@@@std@@@std@@QAEPAU?$_Tree_node@U?$pair@$$CBV?$basic_string@DU?$char_traits@D@std@@V?$allocator@D@2@@std@@H@std@@PAX@2@I@Z 00405a10 f i fraMainProc.obj
 0001:00004a60       ?allocate@?$_Wrap_alloc@V?$allocator@U_Container_proxy@std@@@std@@@std@@QAEPAU_Container_proxy@2@I@Z 00405a60 f i fraMainProc.obj
 0001:00004ab0       ?allocate@?$allocator@U?$_Tree_node@U?$pair@$$CBV?$basic_string@DU?$char_traits@D@std@@V?$allocator@D@2@@std@@H@std@@PAX@std@@@std@@QAEPAU?$_Tree_node@U?$pair@$$CBV?$basic_string@DU?$char_traits@D@std@@V?$allocator@D@2@@std@@H@std@@PAX@2@I@Z 00405ab0 f i fraMainProc.obj
 0001:00004b00       ?allocate@?$allocator@U_Container_proxy@std@@@std@@QAEPAU_Container_proxy@2@I@Z 00405b00 f i fraMainProc.obj
 0001:00004b50       ?deallocate@?$_Wrap_alloc@V?$allocator@U?$_Tree_node@U?$pair@$$CBV?$basic_string@DU?$char_traits@D@std@@V?$allocator@D@2@@std@@H@std@@PAX@std@@@std@@@std@@QAEXPAU?$_Tree_node@U?$pair@$$CBV?$basic_string@DU?$char_traits@D@std@@V?$allocator@D@2@@std@@H@std@@PAX@2@I@Z 00405b50 f i fraMainProc.obj
 0001:00004ba0       ?deallocate@?$allocator@U?$_Tree_node@U?$pair@$$CBV?$basic_string@DU?$char_traits@D@std@@V?$allocator@D@2@@std@@H@std@@PAX@std@@@std@@QAEXPAU?$_Tree_node@U?$pair@$$CBV?$basic_string@DU?$char_traits@D@std@@V?$allocator@D@2@@std@@H@std@@PAX@2@I@Z 00405ba0 f i fraMainProc.obj
 0001:00004c00       ?fraMainProc@@YGHPAUHWND__@@IIJ@Z 00405c00 f   fraMainProc.obj
 0001:00005530       ?size@?$vector@UnEnemyList@@V?$allocator@UnEnemyList@@@std@@@std@@QBEIXZ 00406530 f i fraMainProc.obj
 0001:00005590       ?what@exception@std@@UBEPBDXZ 00406590 f i fraMainProc.obj
 0001:000055f0       ___local_stdio_printf_options 004065f0 f i fraMainProc.obj
 0001:00005620       __vsnprintf_l              00406620 f i fraMainProc.obj
 0001:000056b0       __vsprintf_l               004066b0 f i fraMainProc.obj
 0001:00005700       _sprintf                   00406700 f i fraMainProc.obj
 0001:00005760       ??0wndBGImport@@QAE@XZ     00406760 f   BGImportEditor.obj
 0001:00005850       ??1wndBGImport@@QAE@XZ     00406850 f   BGImportEditor.obj
 0001:000058f0       ??A?$vector@UgTileData@@V?$allocator@UgTileData@@@std@@@std@@QAEAAUgTileData@@I@Z 004068f0 f i BGImportEditor.obj
 0001:000059d0       ?BGiProc@@YGHPAUHWND__@@IIJ@Z 004069d0 f   BGImportEditor.obj
 0001:00005e30       ?DelFiles@wndBGImport@@QAEHXZ 00406e30 f   BGImportEditor.obj
 0001:00005e60       ?Draw@wndBGImport@@QAEHXZ  00406e60 f   BGImportEditor.obj
 0001:00005ff0       ?LoadFiles@wndBGImport@@QAEHXZ 00406ff0 f   BGImportEditor.obj
 0001:000065b0       ?MakeFiles@wndBGImport@@QAEHXZ 004075b0 f   BGImportEditor.obj
 0001:00006a30       ?SaveCustBGROM@wndBGImport@@QAEHXZ 00407a30 f   BGImportEditor.obj
 0001:000070d0       ?SaveCustTileset@wndBGImport@@QAEHXZ 004080d0 f   BGImportEditor.obj
 0001:00007100       ?_Get_data@?$_Vector_alloc@U?$_Vec_base_types@UgTileData@@V?$allocator@UgTileData@@@std@@@std@@@std@@QAEAAV?$_Vector_val@U?$_Simple_types@UgTileData@@@std@@@2@XZ 00408100 f i BGImportEditor.obj
 0001:00007140       ?_Get_data@?$_Vector_alloc@U?$_Vec_base_types@UgTileData@@V?$allocator@UgTileData@@@std@@@std@@@std@@QBEABV?$_Vector_val@U?$_Simple_types@UgTileData@@@std@@@2@XZ 00408140 f i BGImportEditor.obj
 0001:00007180       ?_Get_second@?$_Compressed_pair@U?$_Wrap_alloc@V?$allocator@UgTileData@@@std@@@std@@V?$_Vector_val@U?$_Simple_types@UgTileData@@@std@@@2@$00@std@@QAEAAV?$_Vector_val@U?$_Simple_types@UgTileData@@@std@@@2@XZ 00408180 f i BGImportEditor.obj
 0001:000071b0       ?_Get_second@?$_Compressed_pair@U?$_Wrap_alloc@V?$allocator@UgTileData@@@std@@@std@@V?$_Vector_val@U?$_Simple_types@UgTileData@@@std@@@2@$00@std@@QBEABV?$_Vector_val@U?$_Simple_types@UgTileData@@@std@@@2@XZ 004081b0 f i BGImportEditor.obj
 0001:000071e0       ?_Myfirst@?$_Vector_alloc@U?$_Vec_base_types@UgTileData@@V?$allocator@UgTileData@@@std@@@std@@@std@@QAEAAPAUgTileData@@XZ 004081e0 f i BGImportEditor.obj
 0001:00007230       ?_Myfirst@?$_Vector_alloc@U?$_Vec_base_types@UgTileData@@V?$allocator@UgTileData@@@std@@@std@@@std@@QBEABQAUgTileData@@XZ 00408230 f i BGImportEditor.obj
 0001:00007280       ?_Mylast@?$_Vector_alloc@U?$_Vec_base_types@UgTileData@@V?$allocator@UgTileData@@@std@@@std@@@std@@QBEABQAUgTileData@@XZ 00408280 f i BGImportEditor.obj
 0001:000072d0       ?size@?$vector@UgTileData@@V?$allocator@UgTileData@@@std@@@std@@QBEIXZ 004082d0 f i BGImportEditor.obj
 0001:00007330       ??0cClipboard@@QAE@XZ      00408330 f   cClipboard.obj
 0001:000073d0       ??1cClipboard@@QAE@XZ      004083d0 f   cClipboard.obj
 0001:00007460       ?Erase@cClipboard@@QAEHHH@Z 00408460 f   cClipboard.obj
 0001:000074c0       ?ClipBoardProc@@YGHPAUHWND__@@IIJ@Z 004084c0 f   Clipboard.obj
 0001:000075c0       ??$?0$$V@?$_Compressed_pair@U?$_Wrap_alloc@V?$allocator@K@std@@@std@@V?$_Vector_val@U?$_Simple_types@K@std@@@2@$00@std@@QAE@U_Zero_then_variadic_args_t@1@@Z 004085c0 f i cOAMEdit.obj
 0001:00007610       ??$?0AAU?$_Wrap_alloc@V?$allocator@K@std@@@std@@@?$_Wrap_alloc@V?$allocator@U_Container_proxy@std@@@std@@@std@@QAE@AAU?$_Wrap_alloc@V?$allocator@K@std@@@1@@Z 00408610 f i cOAMEdit.obj
 0001:00007670       ??$?0AAV?$_Tree_iterator@V?$_Tree_val@U?$_Tree_simple_types@U?$pair@$$CBHV?$vector@KV?$allocator@K@std@@@std@@@std@@@std@@@std@@@std@@_NX$0A@@?$pair@V?$_Tree_iterator@V?$_Tree_val@U?$_Tree_simple_types@U?$pair@$$CBHV?$vector@KV?$allocator@K@std@@@std@@@std@@@std@@@std@@@std@@_N@std@@QAE@AAV?$_Tree_iterator@V?$_Tree_val@U?$_Tree_simple_types@U?$pair@$$CBHV?$vector@KV?$allocator@K@std@@@std@@@std@@@std@@@std@@@1@$$QA_N@Z 00408670 f i cOAMEdit.obj
 0001:000076e0       ??$?0ABH$$Z$$V@?$pair@$$CBHV?$vector@KV?$allocator@K@std@@@std@@@std@@QAE@Upiecewise_construct_t@1@V?$tuple@ABH@1@V?$tuple@$$V@1@@Z 004086e0 f i cOAMEdit.obj
 0001:00007740       ??$?0ABH$0A@@?$tuple@ABH@std@@QAE@ABH@Z 00408740 f i cOAMEdit.obj
 0001:000077a0       ??$?0ABH@?$_Tuple_val@ABH@std@@QAE@ABH@Z 004087a0 f i cOAMEdit.obj
 0001:000077f0       ??$?0K@?$allocator@U_Container_proxy@std@@@std@@QAE@ABV?$allocator@K@1@@Z 004087f0 f i cOAMEdit.obj
 0001:00007820       ??$?0U_Exact_args_t@std@@$0A@@?$tuple@$$V@std@@QAE@U_Exact_args_t@1@@Z 00408820 f i cOAMEdit.obj
 0001:00007850       ??$?0V?$_Tree_iterator@V?$_Tree_val@U?$_Tree_simple_types@U?$pair@$$CBHV?$vector@KV?$allocator@K@std@@@std@@@std@@@std@@@std@@@std@@_NX$0A@@?$pair@V?$_Tree_iterator@V?$_Tree_val@U?$_Tree_simple_types@U?$pair@$$CBHV?$vector@KV?$allocator@K@std@@@std@@@std@@@std@@@std@@@std@@_N@std@@QAE@$$QAV?$_Tree_iterator@V?$_Tree_val@U?$_Tree_simple_types@U?$pair@$$CBHV?$vector@KV?$allocator@K@std@@@std@@@std@@@std@@@std@@@1@$$QA_N@Z 00408850 f i cOAMEdit.obj
 0001:000078c0       ??$?0V?$tuple@ABH@std@@V?$tuple@$$V@1@$0A@$$Z$S@?$pair@$$CBHV?$vector@KV?$allocator@K@std@@@std@@@std@@QAE@AAV?$tuple@ABH@1@AAV?$tuple@$$V@1@U?$integer_sequence@I$0A@@1@U?$integer_sequence@I$S@1@@Z 004088c0 f i cOAMEdit.obj
 0001:00007930       ??$_Buynode@ABUpiecewise_construct_t@std@@V?$tuple@ABH@2@V?$tuple@$$V@2@@?$_Tree_comp_alloc@V?$_Tmap_traits@HV?$vector@KV?$allocator@K@std@@@std@@U?$less@H@2@V?$allocator@U?$pair@$$CBHV?$vector@KV?$allocator@K@std@@@std@@@std@@@2@$0A@@std@@@std@@QAEPAU?$_Tree_node@U?$pair@$$CBHV?$vector@KV?$allocator@K@std@@@std@@@std@@PAX@1@ABUpiecewise_construct_t@1@$$QAV?$tuple@ABH@1@$$QAV?$tuple@$$V@1@@Z 00408930 f i cOAMEdit.obj
 0001:00007a50       ??$_Buynode_if_nil@AAU?$pair@$$CBHV?$vector@KV?$allocator@K@std@@@std@@@std@@@?$_Tree@V?$_Tmap_traits@HV?$vector@KV?$allocator@K@std@@@std@@U?$less@H@2@V?$allocator@U?$pair@$$CBHV?$vector@KV?$allocator@K@std@@@std@@@std@@@2@$0A@@std@@@std@@IAEPAU?$_Tree_node@U?$pair@$$CBHV?$vector@KV?$allocator@K@std@@@std@@@std@@PAX@1@PAU21@AAU?$pair@$$CBHV?$vector@KV?$allocator@K@std@@@std@@@1@@Z 00408a50 f i cOAMEdit.obj
 0001:00007a80       ??$_Debug_lt_pred@AAU?$less@H@std@@ABHABH@std@@YA_NAAU?$less@H@0@ABH1PB_WI@Z 00408a80 f i cOAMEdit.obj
 0001:00007b30       ??$_Debug_lt_pred@ABU?$less@H@std@@ABHABH@std@@YA_NABU?$less@H@0@ABH1PB_WI@Z 00408b30 f i cOAMEdit.obj
 0001:00007be0       ??$_Destroy_range1@V?$allocator@K@std@@PAK@std@@YAXPAK0AAU?$_Wrap_alloc@V?$allocator@K@std@@@0@U?$integral_constant@_N$00@0@@Z 00408be0 f i cOAMEdit.obj
 0001:00007c10       ??$_Destroy_range@V?$allocator@K@std@@PAK@std@@YAXPAK0AAU?$_Wrap_alloc@V?$allocator@K@std@@@0@@Z 00408c10 f i cOAMEdit.obj
 0001:00007c60       ??$_Insert_at@AAU?$pair@$$CBHV?$vector@KV?$allocator@K@std@@@std@@@std@@PAU?$_Tree_node@U?$pair@$$CBHV?$vector@KV?$allocator@K@std@@@std@@@std@@PAX@2@@?$_Tree@V?$_Tmap_traits@HV?$vector@KV?$allocator@K@std@@@std@@U?$less@H@2@V?$allocator@U?$pair@$$CBHV?$vector@KV?$allocator@K@std@@@std@@@std@@@2@$0A@@std@@@std@@IAE?AV?$_Tree_iterator@V?$_Tree_val@U?$_Tree_simple_types@U?$pair@$$CBHV?$vector@KV?$allocator@K@std@@@std@@@std@@@std@@@std@@@1@_NPAU?$_Tree_node@U?$pair@$$CBHV?$vector@KV?$allocator@K@std@@@std@@@std@@PAX@1@AAU?$pair@$$CBHV?$vector@KV?$allocator@K@std@@@std@@@1@1@Z 00408c60 f i cOAMEdit.obj
 0001:00008100       ??$_Insert_hint@AAU?$pair@$$CBHV?$vector@KV?$allocator@K@std@@@std@@@std@@PAU?$_Tree_node@U?$pair@$$CBHV?$vector@KV?$allocator@K@std@@@std@@@std@@PAX@2@@?$_Tree@V?$_Tmap_traits@HV?$vector@KV?$allocator@K@std@@@std@@U?$less@H@2@V?$allocator@U?$pair@$$CBHV?$vector@KV?$allocator@K@std@@@std@@@std@@@2@$0A@@std@@@std@@IAE?AV?$_Tree_iterator@V?$_Tree_val@U?$_Tree_simple_types@U?$pair@$$CBHV?$vector@KV?$allocator@K@std@@@std@@@std@@@std@@@std@@@1@V?$_Tree_const_iterator@V?$_Tree_val@U?$_Tree_simple_types@U?$pair@$$CBHV?$vector@KV?$allocator@K@std@@@std@@@std@@@std@@@std@@@1@AAU?$pair@$$CBHV?$vector@KV?$allocator@K@std@@@std@@@1@PAU?$_Tree_node@U?$pair@$$CBHV?$vector@KV?$allocator@K@std@@@std@@@std@@PAX@1@@Z 00409100 f i cOAMEdit.obj
 0001:00009210       ??$_Insert_nohint@AAU?$pair@$$CBHV?$vector@KV?$allocator@K@std@@@std@@@std@@PAU?$_Tree_node@U?$pair@$$CBHV?$vector@KV?$allocator@K@std@@@std@@@std@@PAX@2@@?$_Tree@V?$_Tmap_traits@HV?$vector@KV?$allocator@K@std@@@std@@U?$less@H@2@V?$allocator@U?$pair@$$CBHV?$vector@KV?$allocator@K@std@@@std@@@std@@@2@$0A@@std@@@std@@IAE?AU?$pair@V?$_Tree_iterator@V?$_Tree_val@U?$_Tree_simple_types@U?$pair@$$CBHV?$vector@KV?$allocator@K@std@@@std@@@std@@@std@@@std@@@std@@_N@1@_NAAU?$pair@$$CBHV?$vector@KV?$allocator@K@std@@@std@@@1@PAU?$_Tree_node@U?$pair@$$CBHV?$vector@KV?$allocator@K@std@@@std@@@std@@PAX@1@@Z 0040a210 f i cOAMEdit.obj
 0001:00009780       ??$_Kfn@$$CBHV?$vector@KV?$allocator@K@std@@@std@@@?$_Tmap_traits@HV?$vector@KV?$allocator@K@std@@@std@@U?$less@H@2@V?$allocator@U?$pair@$$CBHV?$vector@KV?$allocator@K@std@@@std@@@std@@@2@$0A@@std@@SAABHABU?$pair@$$CBHV?$vector@KV?$allocator@K@std@@@std@@@1@@Z 0040a780 f i cOAMEdit.obj
 0001:000097b0       ??$_Lbound@H@?$_Tree@V?$_Tmap_traits@HV?$vector@KV?$allocator@K@std@@@std@@U?$less@H@2@V?$allocator@U?$pair@$$CBHV?$vector@KV?$allocator@K@std@@@std@@@std@@@2@$0A@@std@@@std@@IBEPAU?$_Tree_node@U?$pair@$$CBHV?$vector@KV?$allocator@K@std@@@std@@@std@@PAX@1@ABH@Z 0040a7b0 f i cOAMEdit.obj
 0001:00009870       ??$_Try_emplace@ABH$$V@?$map@HV?$vector@KV?$allocator@K@std@@@std@@U?$less@H@2@V?$allocator@U?$pair@$$CBHV?$vector@KV?$allocator@K@std@@@std@@@std@@@2@@std@@QAE?AU?$pair@V?$_Tree_iterator@V?$_Tree_val@U?$_Tree_simple_types@U?$pair@$$CBHV?$vector@KV?$allocator@K@std@@@std@@@std@@@std@@@std@@@std@@_N@1@ABH@Z 0040a870 f i cOAMEdit.obj
 0001:00009b10       ??$addressof@PAU?$_Tree_node@U?$pair@$$CBHV?$vector@KV?$allocator@K@std@@@std@@@std@@PAX@std@@@std@@YAPAPAU?$_Tree_node@U?$pair@$$CBHV?$vector@KV?$allocator@K@std@@@std@@@std@@PAX@0@AAPAU10@@Z 0040ab10 f i cOAMEdit.obj
 0001:00009b40       ??$addressof@U?$pair@$$CBHV?$vector@KV?$allocator@K@std@@@std@@@std@@@std@@YAPAU?$pair@$$CBHV?$vector@KV?$allocator@K@std@@@std@@@0@AAU10@@Z 0040ab40 f i cOAMEdit.obj
 0001:00009b70       ??$addressof@U_Container_proxy@std@@@std@@YAPAU_Container_proxy@0@AAU10@@Z 0040ab70 f i cOAMEdit.obj
 0001:00009ba0       ??$construct@PAU?$_Tree_node@U?$pair@$$CBHV?$vector@KV?$allocator@K@std@@@std@@@std@@PAX@std@@AAPAU12@@?$_Wrap_alloc@V?$allocator@U?$_Tree_node@U?$pair@$$CBHV?$vector@KV?$allocator@K@std@@@std@@@std@@PAX@std@@@std@@@std@@QAEXPAPAU?$_Tree_node@U?$pair@$$CBHV?$vector@KV?$allocator@K@std@@@std@@@std@@PAX@1@AAPAU21@@Z 0040aba0 f i cOAMEdit.obj
 0001:00009c00       ??$construct@PAU?$_Tree_node@U?$pair@$$CBHV?$vector@KV?$allocator@K@std@@@std@@@std@@PAX@std@@AAPAU12@@?$allocator@U?$_Tree_node@U?$pair@$$CBHV?$vector@KV?$allocator@K@std@@@std@@@std@@PAX@std@@@std@@QAEXPAPAU?$_Tree_node@U?$pair@$$CBHV?$vector@KV?$allocator@K@std@@@std@@@std@@PAX@1@AAPAU21@@Z 0040ac00 f i cOAMEdit.obj
 0001:00009c90       ??$construct@PAU?$_Tree_node@U?$pair@$$CBHV?$vector@KV?$allocator@K@std@@@std@@@std@@PAX@std@@AAPAU12@@?$allocator_traits@V?$allocator@U?$_Tree_node@U?$pair@$$CBHV?$vector@KV?$allocator@K@std@@@std@@@std@@PAX@std@@@std@@@std@@SAXAAV?$allocator@U?$_Tree_node@U?$pair@$$CBHV?$vector@KV?$allocator@K@std@@@std@@@std@@PAX@std@@@1@PAPAU?$_Tree_node@U?$pair@$$CBHV?$vector@KV?$allocator@K@std@@@std@@@std@@PAX@1@AAPAU31@@Z 0040ac90 f i cOAMEdit.obj
 0001:00009ce0       ??$construct@U?$pair@$$CBHV?$vector@KV?$allocator@K@std@@@std@@@std@@ABUpiecewise_construct_t@2@V?$tuple@ABH@2@V?$tuple@$$V@2@@?$_Wrap_alloc@V?$allocator@U?$_Tree_node@U?$pair@$$CBHV?$vector@KV?$allocator@K@std@@@std@@@std@@PAX@std@@@std@@@std@@QAEXPAU?$pair@$$CBHV?$vector@KV?$allocator@K@std@@@std@@@1@ABUpiecewise_construct_t@1@$$QAV?$tuple@ABH@1@$$QAV?$tuple@$$V@1@@Z 0040ace0 f i cOAMEdit.obj
 0001:00009d50       ??$construct@U?$pair@$$CBHV?$vector@KV?$allocator@K@std@@@std@@@std@@ABUpiecewise_construct_t@2@V?$tuple@ABH@2@V?$tuple@$$V@2@@?$allocator@U?$_Tree_node@U?$pair@$$CBHV?$vector@KV?$allocator@K@std@@@std@@@std@@PAX@std@@@std@@QAEXPAU?$pair@$$CBHV?$vector@KV?$allocator@K@std@@@std@@@1@ABUpiecewise_construct_t@1@$$QAV?$tuple@ABH@1@$$QAV?$tuple@$$V@1@@Z 0040ad50 f i cOAMEdit.obj
 0001:00009e50       ??$construct@U?$pair@$$CBHV?$vector@KV?$allocator@K@std@@@std@@@std@@ABUpiecewise_construct_t@2@V?$tuple@ABH@2@V?$tuple@$$V@2@@?$allocator_traits@V?$allocator@U?$_Tree_node@U?$pair@$$CBHV?$vector@KV?$allocator@K@std@@@std@@@std@@PAX@std@@@std@@@std@@SAXAAV?$allocator@U?$_Tree_node@U?$pair@$$CBHV?$vector@KV?$allocator@K@std@@@std@@@std@@PAX@std@@@1@PAU?$pair@$$CBHV?$vector@KV?$allocator@K@std@@@std@@@1@ABUpiecewise_construct_t@1@$$QAV?$tuple@ABH@1@$$QAV?$tuple@$$V@1@@Z 0040ae50 f i cOAMEdit.obj
 0001:00009ec0       ??$destroy@PAU?$_Tree_node@U?$pair@$$CBHV?$vector@KV?$allocator@K@std@@@std@@@std@@PAX@std@@@?$_Wrap_alloc@V?$allocator@U?$_Tree_node@U?$pair@$$CBHV?$vector@KV?$allocator@K@std@@@std@@@std@@PAX@std@@@std@@@std@@QAEXPAPAU?$_Tree_node@U?$pair@$$CBHV?$vector@KV?$allocator@K@std@@@std@@@std@@PAX@1@@Z 0040aec0 f i cOAMEdit.obj
 0001:00009f10       ??$destroy@PAU?$_Tree_node@U?$pair@$$CBHV?$vector@KV?$allocator@K@std@@@std@@@std@@PAX@std@@@?$allocator@U?$_Tree_node@U?$pair@$$CBHV?$vector@KV?$allocator@K@std@@@std@@@std@@PAX@std@@@std@@QAEXPAPAU?$_Tree_node@U?$pair@$$CBHV?$vector@KV?$allocator@K@std@@@std@@@std@@PAX@1@@Z 0040af10 f i cOAMEdit.obj
 0001:00009f40       ??$destroy@PAU?$_Tree_node@U?$pair@$$CBHV?$vector@KV?$allocator@K@std@@@std@@@std@@PAX@std@@@?$allocator_traits@V?$allocator@U?$_Tree_node@U?$pair@$$CBHV?$vector@KV?$allocator@K@std@@@std@@@std@@PAX@std@@@std@@@std@@SAXAAV?$allocator@U?$_Tree_node@U?$pair@$$CBHV?$vector@KV?$allocator@K@std@@@std@@@std@@PAX@std@@@1@PAPAU?$_Tree_node@U?$pair@$$CBHV?$vector@KV?$allocator@K@std@@@std@@@std@@PAX@1@@Z 0040af40 f i cOAMEdit.obj
 0001:00009f80       ??$destroy@U?$pair@$$CBHV?$vector@KV?$allocator@K@std@@@std@@@std@@@?$_Wrap_alloc@V?$allocator@U?$_Tree_node@U?$pair@$$CBHV?$vector@KV?$allocator@K@std@@@std@@@std@@PAX@std@@@std@@@std@@QAEXPAU?$pair@$$CBHV?$vector@KV?$allocator@K@std@@@std@@@1@@Z 0040af80 f i cOAMEdit.obj
 0001:00009fd0       ??$destroy@U?$pair@$$CBHV?$vector@KV?$allocator@K@std@@@std@@@std@@@?$allocator@U?$_Tree_node@U?$pair@$$CBHV?$vector@KV?$allocator@K@std@@@std@@@std@@PAX@std@@@std@@QAEXPAU?$pair@$$CBHV?$vector@KV?$allocator@K@std@@@std@@@1@@Z 0040afd0 f i cOAMEdit.obj
 0001:0000a020       ??$destroy@U?$pair@$$CBHV?$vector@KV?$allocator@K@std@@@std@@@std@@@?$allocator_traits@V?$allocator@U?$_Tree_node@U?$pair@$$CBHV?$vector@KV?$allocator@K@std@@@std@@@std@@PAX@std@@@std@@@std@@SAXAAV?$allocator@U?$_Tree_node@U?$pair@$$CBHV?$vector@KV?$allocator@K@std@@@std@@@std@@PAX@std@@@1@PAU?$pair@$$CBHV?$vector@KV?$allocator@K@std@@@std@@@1@@Z 0040b020 f i cOAMEdit.obj
 0001:0000a060       ??$destroy@U_Container_proxy@std@@@?$_Wrap_alloc@V?$allocator@U_Container_proxy@std@@@std@@@std@@QAEXPAU_Container_proxy@1@@Z 0040b060 f i cOAMEdit.obj
 0001:0000a0b0       ??$destroy@U_Container_proxy@std@@@?$allocator@U_Container_proxy@std@@@std@@QAEXPAU_Container_proxy@1@@Z 0040b0b0 f i cOAMEdit.obj
 0001:0000a0e0       ??$destroy@U_Container_proxy@std@@@?$allocator_traits@V?$allocator@U_Container_proxy@std@@@std@@@std@@SAXAAV?$allocator@U_Container_proxy@std@@@1@PAU_Container_proxy@1@@Z 0040b0e0 f i cOAMEdit.obj
 0001:0000a120       ??$emplace_hint@ABUpiecewise_construct_t@std@@V?$tuple@ABH@2@V?$tuple@$$V@2@@?$_Tree@V?$_Tmap_traits@HV?$vector@KV?$allocator@K@std@@@std@@U?$less@H@2@V?$allocator@U?$pair@$$CBHV?$vector@KV?$allocator@K@std@@@std@@@std@@@2@$0A@@std@@@std@@QAE?AV?$_Tree_iterator@V?$_Tree_val@U?$_Tree_simple_types@U?$pair@$$CBHV?$vector@KV?$allocator@K@std@@@std@@@std@@@std@@@std@@@1@V?$_Tree_const_iterator@V?$_Tree_val@U?$_Tree_simple_types@U?$pair@$$CBHV?$vector@KV?$allocator@K@std@@@std@@@std@@@std@@@std@@@1@ABUpiecewise_construct_t@1@$$QAV?$tuple@ABH@1@$$QAV?$tuple@$$V@1@@Z 0040b120 f i cOAMEdit.obj
 0001:0000a230       ??$forward@AAPAU?$_Tree_node@U?$pair@$$CBHV?$vector@KV?$allocator@K@std@@@std@@@std@@PAX@std@@@std@@YAAAPAU?$_Tree_node@U?$pair@$$CBHV?$vector@KV?$allocator@K@std@@@std@@@std@@PAX@0@AAPAU10@@Z 0040b230 f i cOAMEdit.obj
 0001:0000a260       ??$forward@AAU?$_Wrap_alloc@V?$allocator@K@std@@@std@@@std@@YAAAU?$_Wrap_alloc@V?$allocator@K@std@@@0@AAU10@@Z 0040b260 f i cOAMEdit.obj
 0001:0000a290       ??$forward@AAU?$pair@$$CBHV?$vector@KV?$allocator@K@std@@@std@@@std@@@std@@YAAAU?$pair@$$CBHV?$vector@KV?$allocator@K@std@@@std@@@0@AAU10@@Z 0040b290 f i cOAMEdit.obj
 0001:0000a2c0       ??$forward@AAV?$_Tree_iterator@V?$_Tree_val@U?$_Tree_simple_types@U?$pair@$$CBHV?$vector@KV?$allocator@K@std@@@std@@@std@@@std@@@std@@@std@@@std@@YAAAV?$_Tree_iterator@V?$_Tree_val@U?$_Tree_simple_types@U?$pair@$$CBHV?$vector@KV?$allocator@K@std@@@std@@@std@@@std@@@std@@@0@AAV10@@Z 0040b2c0 f i cOAMEdit.obj
 0001:0000a2f0       ??$forward@ABH@std@@YAABHABH@Z 0040b2f0 f i cOAMEdit.obj
 0001:0000a320       ??$forward@ABUpiecewise_construct_t@std@@@std@@YAABUpiecewise_construct_t@0@ABU10@@Z 0040b320 f i cOAMEdit.obj
 0001:0000a350       ??$forward@V?$_Tree_iterator@V?$_Tree_val@U?$_Tree_simple_types@U?$pair@$$CBHV?$vector@KV?$allocator@K@std@@@std@@@std@@@std@@@std@@@std@@@std@@YA$$QAV?$_Tree_iterator@V?$_Tree_val@U?$_Tree_simple_types@U?$pair@$$CBHV?$vector@KV?$allocator@K@std@@@std@@@std@@@std@@@std@@@0@AAV10@@Z 0040b350 f i cOAMEdit.obj
 0001:0000a380       ??$forward@V?$tuple@$$V@std@@@std@@YA$$QAV?$tuple@$$V@0@AAV10@@Z 0040b380 f i cOAMEdit.obj
 0001:0000a3b0       ??$forward@V?$tuple@ABH@std@@@std@@YA$$QAV?$tuple@ABH@0@AAV10@@Z 0040b3b0 f i cOAMEdit.obj
 0001:0000a3e0       ??$forward@_N@std@@YA$$QA_NAA_N@Z 0040b3e0 f i cOAMEdit.obj
 0001:0000a410       ??$forward_as_tuple@$$V@std@@YA?AV?$tuple@$$V@0@XZ 0040b410 f i cOAMEdit.obj
 0001:0000a450       ??$forward_as_tuple@ABH@std@@YA?AV?$tuple@ABH@0@ABH@Z 0040b450 f i cOAMEdit.obj
 0001:0000a4d0       ??$get@$0A@ABH@std@@YAABH$$QAV?$tuple@ABH@0@@Z 0040b4d0 f i cOAMEdit.obj
 0001:0000a510       ??$move@AAV?$tuple@ABH@std@@@std@@YA$$QAV?$tuple@ABH@0@AAV10@@Z 0040b510 f i cOAMEdit.obj
 0001:0000a540       ??$try_emplace@$$V@?$map@HV?$vector@KV?$allocator@K@std@@@std@@U?$less@H@2@V?$allocator@U?$pair@$$CBHV?$vector@KV?$allocator@K@std@@@std@@@std@@@2@@std@@QAE?AU?$pair@V?$_Tree_iterator@V?$_Tree_val@U?$_Tree_simple_types@U?$pair@$$CBHV?$vector@KV?$allocator@K@std@@@std@@@std@@@std@@@std@@@std@@_N@1@ABH@Z 0040b540 f i cOAMEdit.obj
 0001:0000a5b0       ??0?$_Iterator012@Ubidirectional_iterator_tag@std@@U?$pair@$$CBHV?$vector@KV?$allocator@K@std@@@std@@@2@HPBU32@ABU32@U_Iterator_base12@2@@std@@QAE@$$QAU01@@Z 0040b5b0 f i cOAMEdit.obj
 0001:0000a600       ??0?$_Iterator012@Ubidirectional_iterator_tag@std@@U?$pair@$$CBHV?$vector@KV?$allocator@K@std@@@std@@@2@HPBU32@ABU32@U_Iterator_base12@2@@std@@QAE@ABU01@@Z 0040b600 f i cOAMEdit.obj
 0001:0000a650       ??0?$_Iterator012@Ubidirectional_iterator_tag@std@@U?$pair@$$CBHV?$vector@KV?$allocator@K@std@@@std@@@2@HPBU32@ABU32@U_Iterator_base12@2@@std@@QAE@XZ 0040b650 f i cOAMEdit.obj
 0001:0000a6a0       ??0?$_Iterator012@Urandom_access_iterator_tag@std@@KHPBKABKU_Iterator_base12@2@@std@@QAE@XZ 0040b6a0 f i cOAMEdit.obj
 0001:0000a6f0       ??0?$_Tree_const_iterator@V?$_Tree_val@U?$_Tree_simple_types@U?$pair@$$CBHV?$vector@KV?$allocator@K@std@@@std@@@std@@@std@@@std@@@std@@QAE@$$QAV01@@Z 0040b6f0 f i cOAMEdit.obj
 0001:0000a740       ??0?$_Tree_const_iterator@V?$_Tree_val@U?$_Tree_simple_types@U?$pair@$$CBHV?$vector@KV?$allocator@K@std@@@std@@@std@@@std@@@std@@@std@@QAE@ABV01@@Z 0040b740 f i cOAMEdit.obj
 0001:0000a790       ??0?$_Tree_const_iterator@V?$_Tree_val@U?$_Tree_simple_types@U?$pair@$$CBHV?$vector@KV?$allocator@K@std@@@std@@@std@@@std@@@std@@@std@@QAE@PAU?$_Tree_node@U?$pair@$$CBHV?$vector@KV?$allocator@K@std@@@std@@@std@@PAX@1@PBV?$_Tree_val@U?$_Tree_simple_types@U?$pair@$$CBHV?$vector@KV?$allocator@K@std@@@std@@@std@@@std@@@1@@Z 0040b790 f i cOAMEdit.obj
 0001:0000a7e0       ??0?$_Tree_const_iterator@V?$_Tree_val@U?$_Tree_simple_types@U?$pair@$$CBHV?$vector@KV?$allocator@K@std@@@std@@@std@@@std@@@std@@@std@@QAE@XZ 0040b7e0 f i cOAMEdit.obj
 0001:0000a830       ??0?$_Tree_iterator@V?$_Tree_val@U?$_Tree_simple_types@U?$pair@$$CBHV?$vector@KV?$allocator@K@std@@@std@@@std@@@std@@@std@@@std@@QAE@$$QAV01@@Z 0040b830 f i cOAMEdit.obj
 0001:0000a880       ??0?$_Tree_iterator@V?$_Tree_val@U?$_Tree_simple_types@U?$pair@$$CBHV?$vector@KV?$allocator@K@std@@@std@@@std@@@std@@@std@@@std@@QAE@ABV01@@Z 0040b880 f i cOAMEdit.obj
 0001:0000a8d0       ??0?$_Tree_iterator@V?$_Tree_val@U?$_Tree_simple_types@U?$pair@$$CBHV?$vector@KV?$allocator@K@std@@@std@@@std@@@std@@@std@@@std@@QAE@PAU?$_Tree_node@U?$pair@$$CBHV?$vector@KV?$allocator@K@std@@@std@@@std@@PAX@1@PBV?$_Tree_val@U?$_Tree_simple_types@U?$pair@$$CBHV?$vector@KV?$allocator@K@std@@@std@@@std@@@std@@@1@@Z 0040b8d0 f i cOAMEdit.obj
 0001:0000a920       ??0?$_Tree_unchecked_const_iterator@V?$_Tree_val@U?$_Tree_simple_types@U?$pair@$$CBHV?$vector@KV?$allocator@K@std@@@std@@@std@@@std@@@std@@U_Iterator_base12@2@@std@@QAE@$$QAV01@@Z 0040b920 f i cOAMEdit.obj
 0001:0000a980       ??0?$_Tree_unchecked_const_iterator@V?$_Tree_val@U?$_Tree_simple_types@U?$pair@$$CBHV?$vector@KV?$allocator@K@std@@@std@@@std@@@std@@@std@@U_Iterator_base12@2@@std@@QAE@ABV01@@Z 0040b980 f i cOAMEdit.obj
 0001:0000a9e0       ??0?$_Tree_unchecked_const_iterator@V?$_Tree_val@U?$_Tree_simple_types@U?$pair@$$CBHV?$vector@KV?$allocator@K@std@@@std@@@std@@@std@@@std@@U_Iterator_base12@2@@std@@QAE@PAU?$_Tree_node@U?$pair@$$CBHV?$vector@KV?$allocator@K@std@@@std@@@std@@PAX@1@PBV?$_Tree_val@U?$_Tree_simple_types@U?$pair@$$CBHV?$vector@KV?$allocator@K@std@@@std@@@std@@@std@@@1@@Z 0040b9e0 f i cOAMEdit.obj
 0001:0000aa80       ??0?$_Tree_unchecked_const_iterator@V?$_Tree_val@U?$_Tree_simple_types@U?$pair@$$CBHV?$vector@KV?$allocator@K@std@@@std@@@std@@@std@@@std@@U_Iterator_base12@2@@std@@QAE@XZ 0040ba80 f i cOAMEdit.obj
 0001:0000aad0       ??0?$_Vector_alloc@U?$_Vec_base_types@KV?$allocator@K@std@@@std@@@std@@QAE@XZ 0040bad0 f i cOAMEdit.obj
 0001:0000ab60       ??0?$_Vector_const_iterator@V?$_Vector_val@U?$_Simple_types@K@std@@@std@@@std@@QAE@PAKPBU_Container_base12@1@@Z 0040bb60 f i cOAMEdit.obj
 0001:0000ac00       ??0?$_Vector_iterator@V?$_Vector_val@U?$_Simple_types@K@std@@@std@@@std@@QAE@PAKPBU_Container_base12@1@@Z 0040bc00 f i cOAMEdit.obj
 0001:0000ac50       ??0?$_Vector_val@U?$_Simple_types@K@std@@@std@@QAE@XZ 0040bc50 f i cOAMEdit.obj
 0001:0000acb0       ??0?$_Wrap_alloc@V?$allocator@K@std@@@std@@QAE@XZ 0040bcb0 f i cOAMEdit.obj
 0001:0000ad00       ??0?$allocator@K@std@@QAE@XZ 0040bd00 f i cOAMEdit.obj
 0001:0000ad30       ??0?$tuple@$$V@std@@QAE@ABV01@@Z 0040bd30 f i cOAMEdit.obj
 0001:0000ad60       ??0?$tuple@$$V@std@@QAE@XZ 0040bd60 f i cOAMEdit.obj
 0001:0000ad90       ??0?$tuple@ABH@std@@QAE@$$QAV01@@Z 0040bd90 f i cOAMEdit.obj
 0001:0000adf0       ??0?$vector@KV?$allocator@K@std@@@std@@QAE@XZ 0040bdf0 f i cOAMEdit.obj
 0001:0000ae60       ??0_Iterator_base12@std@@QAE@ABU01@@Z 0040be60 f i cOAMEdit.obj
 0001:0000aec0       ??0_Iterator_base12@std@@QAE@XZ 0040bec0 f i cOAMEdit.obj
 0001:0000af00       ??0cOAMEdit@@QAE@XZ        0040bf00 f   cOAMEdit.obj
 0001:0000b0b0       ??1?$_Compressed_pair@U?$_Wrap_alloc@V?$allocator@K@std@@@std@@V?$_Vector_val@U?$_Simple_types@K@std@@@2@$00@std@@QAE@XZ 0040c0b0 f i cOAMEdit.obj
 0001:0000b0f0       ??1?$_Iterator012@Ubidirectional_iterator_tag@std@@U?$pair@$$CBHV?$vector@KV?$allocator@K@std@@@std@@@2@HPBU32@ABU32@U_Iterator_base12@2@@std@@QAE@XZ 0040c0f0 f i cOAMEdit.obj
 0001:0000b130       ??1?$_Iterator012@Urandom_access_iterator_tag@std@@KHPBKABKU_Iterator_base12@2@@std@@QAE@XZ 0040c130 f i cOAMEdit.obj
 0001:0000b170       ??1?$_Tree_const_iterator@V?$_Tree_val@U?$_Tree_simple_types@U?$pair@$$CBHV?$vector@KV?$allocator@K@std@@@std@@@std@@@std@@@std@@@std@@QAE@XZ 0040c170 f i cOAMEdit.obj
 0001:0000b1b0       ??1?$_Tree_iterator@V?$_Tree_val@U?$_Tree_simple_types@U?$pair@$$CBHV?$vector@KV?$allocator@K@std@@@std@@@std@@@std@@@std@@@std@@QAE@XZ 0040c1b0 f i cOAMEdit.obj
 0001:0000b1f0       ??1?$_Tree_unchecked_const_iterator@V?$_Tree_val@U?$_Tree_simple_types@U?$pair@$$CBHV?$vector@KV?$allocator@K@std@@@std@@@std@@@std@@@std@@U_Iterator_base12@2@@std@@QAE@XZ 0040c1f0 f i cOAMEdit.obj
 0001:0000b230       ??1?$_Vector_alloc@U?$_Vec_base_types@KV?$allocator@K@std@@@std@@@std@@QAE@XZ 0040c230 f i cOAMEdit.obj
 0001:0000b2b0       ??1?$_Vector_const_iterator@V?$_Vector_val@U?$_Simple_types@K@std@@@std@@@std@@QAE@XZ 0040c2b0 f i cOAMEdit.obj
 0001:0000b2f0       ??1?$_Vector_iterator@V?$_Vector_val@U?$_Simple_types@K@std@@@std@@@std@@QAE@XZ 0040c2f0 f i cOAMEdit.obj
 0001:0000b330       ??1?$_Vector_val@U?$_Simple_types@K@std@@@std@@QAE@XZ 0040c330 f i cOAMEdit.obj
 0001:0000b370       ??1?$pair@$$CBHV?$vector@KV?$allocator@K@std@@@std@@@std@@QAE@XZ 0040c370 f i cOAMEdit.obj
 0001:0000b3c0       ??1?$pair@V?$_Tree_iterator@V?$_Tree_val@U?$_Tree_simple_types@U?$pair@$$CBHV?$vector@KV?$allocator@K@std@@@std@@@std@@@std@@@std@@@std@@_N@std@@QAE@XZ 0040c3c0 f i cOAMEdit.obj
 0001:0000b400       ??1?$vector@KV?$allocator@K@std@@@std@@QAE@XZ 0040c400 f i cOAMEdit.obj
 0001:0000b480       ??1_Iterator_base12@std@@QAE@XZ 0040c480 f i cOAMEdit.obj
 0001:0000b540       ??1cOAMEdit@@QAE@XZ        0040c540 f   cOAMEdit.obj
 0001:0000b650       ??3@YAXPAX0@Z              0040c650 f i cOAMEdit.obj
 0001:0000b680       ??4?$_Iterator012@Ubidirectional_iterator_tag@std@@U?$pair@$$CBHV?$vector@KV?$allocator@K@std@@@std@@@2@HPBU32@ABU32@U_Iterator_base12@2@@std@@QAEAAU01@ABU01@@Z 0040c680 f i cOAMEdit.obj
 0001:0000b6d0       ??4?$_Tree_const_iterator@V?$_Tree_val@U?$_Tree_simple_types@U?$pair@$$CBHV?$vector@KV?$allocator@K@std@@@std@@@std@@@std@@@std@@@std@@QAEAAV01@ABV01@@Z 0040c6d0 f i cOAMEdit.obj
 0001:0000b720       ??4?$_Tree_unchecked_const_iterator@V?$_Tree_val@U?$_Tree_simple_types@U?$pair@$$CBHV?$vector@KV?$allocator@K@std@@@std@@@std@@@std@@@std@@U_Iterator_base12@2@@std@@QAEAAV01@ABV01@@Z 0040c720 f i cOAMEdit.obj
 0001:0000b780       ??4_Iterator_base12@std@@QAEAAU01@ABU01@@Z 0040c780 f i cOAMEdit.obj
 0001:0000b880       ??8?$_Tree_const_iterator@V?$_Tree_val@U?$_Tree_simple_types@U?$pair@$$CBHV?$vector@KV?$allocator@K@std@@@std@@@std@@@std@@@std@@@std@@QBE_NABV01@@Z 0040c880 f i cOAMEdit.obj
 0001:0000b990       ??A?$map@HV?$vector@KV?$allocator@K@std@@@std@@U?$less@H@2@V?$allocator@U?$pair@$$CBHV?$vector@KV?$allocator@K@std@@@std@@@std@@@2@@std@@QAEAAV?$vector@KV?$allocator@K@std@@@1@ABH@Z 0040c990 f i cOAMEdit.obj
 0001:0000ba50       ??A?$vector@PAVFrame@@V?$allocator@PAVFrame@@@std@@@std@@QAEAAPAVFrame@@I@Z 0040ca50 f i cOAMEdit.obj
 0001:0000bb30       ??A?$vector@UOverAllOAM@@V?$allocator@UOverAllOAM@@@std@@@std@@QAEAAUOverAllOAM@@I@Z 0040cb30 f i cOAMEdit.obj
 0001:0000bc10       ??C?$_Tree_iterator@V?$_Tree_val@U?$_Tree_simple_types@U?$pair@$$CBHV?$vector@KV?$allocator@K@std@@@std@@@std@@@std@@@std@@@std@@QBEPAU?$pair@$$CBHV?$vector@KV?$allocator@K@std@@@std@@@1@XZ 0040cc10 f i cOAMEdit.obj
 0001:0000bc60       ??D?$_Tree_const_iterator@V?$_Tree_val@U?$_Tree_simple_types@U?$pair@$$CBHV?$vector@KV?$allocator@K@std@@@std@@@std@@@std@@@std@@@std@@QBEABU?$pair@$$CBHV?$vector@KV?$allocator@K@std@@@std@@@1@XZ 0040cc60 f i cOAMEdit.obj
 0001:0000bd60       ??D?$_Tree_iterator@V?$_Tree_val@U?$_Tree_simple_types@U?$pair@$$CBHV?$vector@KV?$allocator@K@std@@@std@@@std@@@std@@@std@@@std@@QBEAAU?$pair@$$CBHV?$vector@KV?$allocator@K@std@@@std@@@1@XZ 0040cd60 f i cOAMEdit.obj
 0001:0000bda0       ??D?$_Vector_const_iterator@V?$_Vector_val@U?$_Simple_types@K@std@@@std@@@std@@QBEABKXZ 0040cda0 f i cOAMEdit.obj
 0001:0000be90       ??D?$_Vector_iterator@V?$_Vector_val@U?$_Simple_types@K@std@@@std@@@std@@QBEAAKXZ 0040ce90 f i cOAMEdit.obj
 0001:0000bed0       ??E?$_Tree_const_iterator@V?$_Tree_val@U?$_Tree_simple_types@U?$pair@$$CBHV?$vector@KV?$allocator@K@std@@@std@@@std@@@std@@@std@@@std@@QAEAAV01@XZ 0040ced0 f i cOAMEdit.obj
 0001:0000bfd0       ??E?$_Tree_unchecked_const_iterator@V?$_Tree_val@U?$_Tree_simple_types@U?$pair@$$CBHV?$vector@KV?$allocator@K@std@@@std@@@std@@@std@@@std@@U_Iterator_base12@2@@std@@QAEAAV01@XZ 0040cfd0 f i cOAMEdit.obj
 0001:0000c0c0       ??F?$_Tree_const_iterator@V?$_Tree_val@U?$_Tree_simple_types@U?$pair@$$CBHV?$vector@KV?$allocator@K@std@@@std@@@std@@@std@@@std@@@std@@QAEAAV01@XZ 0040d0c0 f i cOAMEdit.obj
 0001:0000c240       ??F?$_Tree_iterator@V?$_Tree_val@U?$_Tree_simple_types@U?$pair@$$CBHV?$vector@KV?$allocator@K@std@@@std@@@std@@@std@@@std@@@std@@QAEAAV01@XZ 0040d240 f i cOAMEdit.obj
 0001:0000c290       ??F?$_Tree_unchecked_const_iterator@V?$_Tree_val@U?$_Tree_simple_types@U?$pair@$$CBHV?$vector@KV?$allocator@K@std@@@std@@@std@@@std@@@std@@U_Iterator_base12@2@@std@@QAEAAV01@XZ 0040d290 f i cOAMEdit.obj
 0001:0000c3b0       ??R?$less@H@std@@QBE_NABH0@Z 0040d3b0 f i cOAMEdit.obj
 0001:0000c410       ??_G?$pair@$$CBHV?$vector@KV?$allocator@K@std@@@std@@@std@@QAEPAXI@Z 0040d410 f i cOAMEdit.obj
 0001:0000c470       ??_GFrameManager@@QAEPAXI@Z 0040d470 f i cOAMEdit.obj
 0001:0000c4d0       ??_GImage@@QAEPAXI@Z       0040d4d0 f i cOAMEdit.obj
 0001:0000c530       ?Create@cOAMEdit@@QAEHXZ   0040d530 f   cOAMEdit.obj
 0001:0000c950       ?DrawSelObj@cOAMEdit@@QAEHPAUHDC__@@@Z 0040d950 f   cOAMEdit.obj
 0001:0000c9c0       ?GetFrames@cOAMEdit@@QAEHKHH@Z 0040d9c0 f   cOAMEdit.obj
 0001:0000caf0       ?GetSpriteData@cOAMEdit@@QAEHHH@Z 0040daf0 f   cOAMEdit.obj
 0001:0000cc00       ?LoadTiles@cOAMEdit@@QAEHPAVImage@@PAVFrame@@@Z 0040dc00 f   cOAMEdit.obj
 0001:0000ccf0       ?Save@cOAMEdit@@QAEKW4SaveOptions@@PAD@Z 0040dcf0 f   cOAMEdit.obj
 0001:0000ce80       ?SetFrames@cOAMEdit@@QAEHH@Z 0040de80 f   cOAMEdit.obj
 0001:0000cff0       ?UpdatePartUI@cOAMEdit@@QAEH_N@Z 0040dff0 f   cOAMEdit.obj
 0001:0000d750       ?UpdateSize@cOAMEdit@@QAEHXZ 0040e750 f   cOAMEdit.obj
 0001:0000d8a0       ?_Adopt@_Iterator_base12@std@@QAEXPBU_Container_base12@2@@Z 0040e8a0 f i cOAMEdit.obj
 0001:0000d9f0       ?_Alloc_proxy@?$_Vector_alloc@U?$_Vec_base_types@KV?$allocator@K@std@@@std@@@std@@QAEXXZ 0040e9f0 f i cOAMEdit.obj
 0001:0000dac0       ?_Buynode0@?$_Tree_comp_alloc@V?$_Tmap_traits@HV?$vector@KV?$allocator@K@std@@@std@@U?$less@H@2@V?$allocator@U?$pair@$$CBHV?$vector@KV?$allocator@K@std@@@std@@@std@@@2@$0A@@std@@@std@@QAEPAU?$_Tree_node@U?$pair@$$CBHV?$vector@KV?$allocator@K@std@@@std@@@std@@PAX@2@XZ 0040eac0 f i cOAMEdit.obj
 0001:0000dc30       ?_Color@?$_Tree_comp_alloc@V?$_Tmap_traits@HV?$vector@KV?$allocator@K@std@@@std@@U?$less@H@2@V?$allocator@U?$pair@$$CBHV?$vector@KV?$allocator@K@std@@@std@@@std@@@2@$0A@@std@@@std@@SAAADPAU?$_Tree_node@U?$pair@$$CBHV?$vector@KV?$allocator@K@std@@@std@@@std@@PAX@2@@Z 0040ec30 f i cOAMEdit.obj
 0001:0000dc70       ?_Color@?$_Tree_val@U?$_Tree_simple_types@U?$pair@$$CBHV?$vector@KV?$allocator@K@std@@@std@@@std@@@std@@@std@@SAAADPAU?$_Tree_node@U?$pair@$$CBHV?$vector@KV?$allocator@K@std@@@std@@@std@@PAX@2@@Z 0040ec70 f i cOAMEdit.obj
 0001:0000dca0       ?_Compare@?$_Tree@V?$_Tmap_traits@HV?$vector@KV?$allocator@K@std@@@std@@U?$less@H@2@V?$allocator@U?$pair@$$CBHV?$vector@KV?$allocator@K@std@@@std@@@std@@@2@$0A@@std@@@std@@IBE_NABH0@Z 0040eca0 f i cOAMEdit.obj
 0001:0000dd00       ?_Destroy@?$vector@KV?$allocator@K@std@@@std@@IAEXPAK0@Z 0040ed00 f i cOAMEdit.obj
 0001:0000dd60       ?_Destroy_if_not_nil@?$_Tree@V?$_Tmap_traits@HV?$vector@KV?$allocator@K@std@@@std@@U?$less@H@2@V?$allocator@U?$pair@$$CBHV?$vector@KV?$allocator@K@std@@@std@@@std@@@2@$0A@@std@@@std@@IAEXPAU?$_Tree_node@U?$pair@$$CBHV?$vector@KV?$allocator@K@std@@@std@@@std@@PAX@2@@Z 0040ed60 f i cOAMEdit.obj
 0001:0000dde0       ?_Free_proxy@?$_Vector_alloc@U?$_Vec_base_types@KV?$allocator@K@std@@@std@@@std@@QAEXXZ 0040ede0 f i cOAMEdit.obj
 0001:0000dea0       ?_Freenode0@?$_Tree_comp_alloc@V?$_Tmap_traits@HV?$vector@KV?$allocator@K@std@@@std@@U?$less@H@2@V?$allocator@U?$pair@$$CBHV?$vector@KV?$allocator@K@std@@@std@@@std@@@2@$0A@@std@@@std@@QAEXPAU?$_Tree_node@U?$pair@$$CBHV?$vector@KV?$allocator@K@std@@@std@@@std@@PAX@2@@Z 0040eea0 f i cOAMEdit.obj
 0001:0000df60       ?_Get_data@?$_Tree_comp_alloc@V?$_Tmap_traits@HV?$vector@KV?$allocator@K@std@@@std@@U?$less@H@2@V?$allocator@U?$pair@$$CBHV?$vector@KV?$allocator@K@std@@@std@@@std@@@2@$0A@@std@@@std@@QAEAAV?$_Tree_val@U?$_Tree_simple_types@U?$pair@$$CBHV?$vector@KV?$allocator@K@std@@@std@@@std@@@std@@@2@XZ 0040ef60 f i cOAMEdit.obj
 0001:0000dfb0       ?_Get_data@?$_Tree_comp_alloc@V?$_Tmap_traits@HV?$vector@KV?$allocator@K@std@@@std@@U?$less@H@2@V?$allocator@U?$pair@$$CBHV?$vector@KV?$allocator@K@std@@@std@@@std@@@2@$0A@@std@@@std@@QBEABV?$_Tree_val@U?$_Tree_simple_types@U?$pair@$$CBHV?$vector@KV?$allocator@K@std@@@std@@@std@@@std@@@2@XZ 0040efb0 f i cOAMEdit.obj
 0001:0000e000       ?_Get_data@?$_Vector_alloc@U?$_Vec_base_types@KV?$allocator@K@std@@@std@@@std@@QAEAAV?$_Vector_val@U?$_Simple_types@K@std@@@2@XZ 0040f000 f i cOAMEdit.obj
 0001:0000e040       ?_Get_data@?$_Vector_alloc@U?$_Vec_base_types@PAVFrame@@V?$allocator@PAVFrame@@@std@@@std@@@std@@QAEAAV?$_Vector_val@U?$_Simple_types@PAVFrame@@@std@@@2@XZ 0040f040 f i cOAMEdit.obj
 0001:0000e080       ?_Get_data@?$_Vector_alloc@U?$_Vec_base_types@PAVFrame@@V?$allocator@PAVFrame@@@std@@@std@@@std@@QBEABV?$_Vector_val@U?$_Simple_types@PAVFrame@@@std@@@2@XZ 0040f080 f i cOAMEdit.obj
 0001:0000e0c0       ?_Get_data@?$_Vector_alloc@U?$_Vec_base_types@UOverAllOAM@@V?$allocator@UOverAllOAM@@@std@@@std@@@std@@QAEAAV?$_Vector_val@U?$_Simple_types@UOverAllOAM@@@std@@@2@XZ 0040f0c0 f i cOAMEdit.obj
 0001:0000e100       ?_Get_data@?$_Vector_alloc@U?$_Vec_base_types@UOverAllOAM@@V?$allocator@UOverAllOAM@@@std@@@std@@@std@@QBEABV?$_Vector_val@U?$_Simple_types@UOverAllOAM@@@std@@@2@XZ 0040f100 f i cOAMEdit.obj
 0001:0000e140       ?_Get_first@?$_Compressed_pair@U?$_Wrap_alloc@V?$allocator@K@std@@@std@@V?$_Vector_val@U?$_Simple_types@K@std@@@2@$00@std@@QAEAAU?$_Wrap_alloc@V?$allocator@K@std@@@2@XZ 0040f140 f i cOAMEdit.obj
 0001:0000e170       ?_Get_first@?$_Compressed_pair@U?$_Wrap_alloc@V?$allocator@U?$_Tree_node@U?$pair@$$CBHV?$vector@KV?$allocator@K@std@@@std@@@std@@PAX@std@@@std@@@std@@V?$_Tree_val@U?$_Tree_simple_types@U?$pair@$$CBHV?$vector@KV?$allocator@K@std@@@std@@@std@@@std@@@2@$00@std@@QAEAAU?$_Wrap_alloc@V?$allocator@U?$_Tree_node@U?$pair@$$CBHV?$vector@KV?$allocator@K@std@@@std@@@std@@PAX@std@@@std@@@2@XZ 0040f170 f i cOAMEdit.obj
 0001:0000e1a0       ?_Get_first@?$_Compressed_pair@U?$_Wrap_alloc@V?$allocator@U?$_Tree_node@U?$pair@$$CBHV?$vector@KV?$allocator@K@std@@@std@@@std@@PAX@std@@@std@@@std@@V?$_Tree_val@U?$_Tree_simple_types@U?$pair@$$CBHV?$vector@KV?$allocator@K@std@@@std@@@std@@@std@@@2@$00@std@@QBEABU?$_Wrap_alloc@V?$allocator@U?$_Tree_node@U?$pair@$$CBHV?$vector@KV?$allocator@K@std@@@std@@@std@@PAX@std@@@std@@@2@XZ 0040f1a0 f i cOAMEdit.obj
 0001:0000e1d0       ?_Get_first@?$_Compressed_pair@U?$less@H@std@@V?$_Compressed_pair@U?$_Wrap_alloc@V?$allocator@U?$_Tree_node@U?$pair@$$CBHV?$vector@KV?$allocator@K@std@@@std@@@std@@PAX@std@@@std@@@std@@V?$_Tree_val@U?$_Tree_simple_types@U?$pair@$$CBHV?$vector@KV?$allocator@K@std@@@std@@@std@@@std@@@2@$00@2@$00@std@@QAEAAU?$less@H@2@XZ 0040f1d0 f i cOAMEdit.obj
 0001:0000e200       ?_Get_first@?$_Compressed_pair@U?$less@H@std@@V?$_Compressed_pair@U?$_Wrap_alloc@V?$allocator@U?$_Tree_node@U?$pair@$$CBHV?$vector@KV?$allocator@K@std@@@std@@@std@@PAX@std@@@std@@@std@@V?$_Tree_val@U?$_Tree_simple_types@U?$pair@$$CBHV?$vector@KV?$allocator@K@std@@@std@@@std@@@std@@@2@$00@2@$00@std@@QBEABU?$less@H@2@XZ 0040f200 f i cOAMEdit.obj
 0001:0000e230       ?_Get_second@?$_Compressed_pair@U?$_Wrap_alloc@V?$allocator@K@std@@@std@@V?$_Vector_val@U?$_Simple_types@K@std@@@2@$00@std@@QAEAAV?$_Vector_val@U?$_Simple_types@K@std@@@2@XZ 0040f230 f i cOAMEdit.obj
 0001:0000e260       ?_Get_second@?$_Compressed_pair@U?$_Wrap_alloc@V?$allocator@PAVFrame@@@std@@@std@@V?$_Vector_val@U?$_Simple_types@PAVFrame@@@std@@@2@$00@std@@QAEAAV?$_Vector_val@U?$_Simple_types@PAVFrame@@@std@@@2@XZ 0040f260 f i cOAMEdit.obj
 0001:0000e290       ?_Get_second@?$_Compressed_pair@U?$_Wrap_alloc@V?$allocator@PAVFrame@@@std@@@std@@V?$_Vector_val@U?$_Simple_types@PAVFrame@@@std@@@2@$00@std@@QBEABV?$_Vector_val@U?$_Simple_types@PAVFrame@@@std@@@2@XZ 0040f290 f i cOAMEdit.obj
 0001:0000e2c0       ?_Get_second@?$_Compressed_pair@U?$_Wrap_alloc@V?$allocator@U?$_Tree_node@U?$pair@$$CBHV?$vector@KV?$allocator@K@std@@@std@@@std@@PAX@std@@@std@@@std@@V?$_Tree_val@U?$_Tree_simple_types@U?$pair@$$CBHV?$vector@KV?$allocator@K@std@@@std@@@std@@@std@@@2@$00@std@@QAEAAV?$_Tree_val@U?$_Tree_simple_types@U?$pair@$$CBHV?$vector@KV?$allocator@K@std@@@std@@@std@@@std@@@2@XZ 0040f2c0 f i cOAMEdit.obj
 0001:0000e2f0       ?_Get_second@?$_Compressed_pair@U?$_Wrap_alloc@V?$allocator@U?$_Tree_node@U?$pair@$$CBHV?$vector@KV?$allocator@K@std@@@std@@@std@@PAX@std@@@std@@@std@@V?$_Tree_val@U?$_Tree_simple_types@U?$pair@$$CBHV?$vector@KV?$allocator@K@std@@@std@@@std@@@std@@@2@$00@std@@QBEABV?$_Tree_val@U?$_Tree_simple_types@U?$pair@$$CBHV?$vector@KV?$allocator@K@std@@@std@@@std@@@std@@@2@XZ 0040f2f0 f i cOAMEdit.obj
 0001:0000e320       ?_Get_second@?$_Compressed_pair@U?$_Wrap_alloc@V?$allocator@UOverAllOAM@@@std@@@std@@V?$_Vector_val@U?$_Simple_types@UOverAllOAM@@@std@@@2@$00@std@@QAEAAV?$_Vector_val@U?$_Simple_types@UOverAllOAM@@@std@@@2@XZ 0040f320 f i cOAMEdit.obj
 0001:0000e350       ?_Get_second@?$_Compressed_pair@U?$_Wrap_alloc@V?$allocator@UOverAllOAM@@@std@@@std@@V?$_Vector_val@U?$_Simple_types@UOverAllOAM@@@std@@@2@$00@std@@QBEABV?$_Vector_val@U?$_Simple_types@UOverAllOAM@@@std@@@2@XZ 0040f350 f i cOAMEdit.obj
 0001:0000e380       ?_Get_second@?$_Compressed_pair@U?$less@H@std@@V?$_Compressed_pair@U?$_Wrap_alloc@V?$allocator@U?$_Tree_node@U?$pair@$$CBHV?$vector@KV?$allocator@K@std@@@std@@@std@@PAX@std@@@std@@@std@@V?$_Tree_val@U?$_Tree_simple_types@U?$pair@$$CBHV?$vector@KV?$allocator@K@std@@@std@@@std@@@std@@@2@$00@2@$00@std@@QAEAAV?$_Compressed_pair@U?$_Wrap_alloc@V?$allocator@U?$_Tree_node@U?$pair@$$CBHV?$vector@KV?$allocator@K@std@@@std@@@std@@PAX@std@@@std@@@std@@V?$_Tree_val@U?$_Tree_simple_types@U?$pair@$$CBHV?$vector@KV?$allocator@K@std@@@std@@@std@@@std@@@2@$00@2@XZ 0040f380 f i cOAMEdit.obj
 0001:0000e3b0       ?_Get_second@?$_Compressed_pair@U?$less@H@std@@V?$_Compressed_pair@U?$_Wrap_alloc@V?$allocator@U?$_Tree_node@U?$pair@$$CBHV?$vector@KV?$allocator@K@std@@@std@@@std@@PAX@std@@@std@@@std@@V?$_Tree_val@U?$_Tree_simple_types@U?$pair@$$CBHV?$vector@KV?$allocator@K@std@@@std@@@std@@@std@@@2@$00@2@$00@std@@QBEABV?$_Compressed_pair@U?$_Wrap_alloc@V?$allocator@U?$_Tree_node@U?$pair@$$CBHV?$vector@KV?$allocator@K@std@@@std@@@std@@PAX@std@@@std@@@std@@V?$_Tree_val@U?$_Tree_simple_types@U?$pair@$$CBHV?$vector@KV?$allocator@K@std@@@std@@@std@@@std@@@2@$00@2@XZ 0040f3b0 f i cOAMEdit.obj
 0001:0000e3e0       ?_Getal@?$_Tree_comp_alloc@V?$_Tmap_traits@HV?$vector@KV?$allocator@K@std@@@std@@U?$less@H@2@V?$allocator@U?$pair@$$CBHV?$vector@KV?$allocator@K@std@@@std@@@std@@@2@$0A@@std@@@std@@QAEAAU?$_Wrap_alloc@V?$allocator@U?$_Tree_node@U?$pair@$$CBHV?$vector@KV?$allocator@K@std@@@std@@@std@@PAX@std@@@std@@@2@XZ 0040f3e0 f i cOAMEdit.obj
 0001:0000e430       ?_Getal@?$_Tree_comp_alloc@V?$_Tmap_traits@HV?$vector@KV?$allocator@K@std@@@std@@U?$less@H@2@V?$allocator@U?$pair@$$CBHV?$vector@KV?$allocator@K@std@@@std@@@std@@@2@$0A@@std@@@std@@QBEABU?$_Wrap_alloc@V?$allocator@U?$_Tree_node@U?$pair@$$CBHV?$vector@KV?$allocator@K@std@@@std@@@std@@PAX@std@@@std@@@2@XZ 0040f430 f i cOAMEdit.obj
 0001:0000e480       ?_Getal@?$_Vector_alloc@U?$_Vec_base_types@KV?$allocator@K@std@@@std@@@std@@QAEAAU?$_Wrap_alloc@V?$allocator@K@std@@@2@XZ 0040f480 f i cOAMEdit.obj
 0001:0000e4c0       ?_Getcomp@?$_Tree_comp_alloc@V?$_Tmap_traits@HV?$vector@KV?$allocator@K@std@@@std@@U?$less@H@2@V?$allocator@U?$pair@$$CBHV?$vector@KV?$allocator@K@std@@@std@@@std@@@2@$0A@@std@@@std@@QAEAAU?$less@H@2@XZ 0040f4c0 f i cOAMEdit.obj
 0001:0000e500       ?_Getcomp@?$_Tree_comp_alloc@V?$_Tmap_traits@HV?$vector@KV?$allocator@K@std@@@std@@U?$less@H@2@V?$allocator@U?$pair@$$CBHV?$vector@KV?$allocator@K@std@@@std@@@std@@@2@$0A@@std@@@std@@QBEABU?$less@H@2@XZ 0040f500 f i cOAMEdit.obj
 0001:0000e540       ?_Getcont@_Iterator_base12@std@@QBEPBU_Container_base12@2@XZ 0040f540 f i cOAMEdit.obj
 0001:0000e5a0       ?_Isnil@?$_Tree_comp_alloc@V?$_Tmap_traits@HV?$vector@KV?$allocator@K@std@@@std@@U?$less@H@2@V?$allocator@U?$pair@$$CBHV?$vector@KV?$allocator@K@std@@@std@@@std@@@2@$0A@@std@@@std@@SAAADPAU?$_Tree_node@U?$pair@$$CBHV?$vector@KV?$allocator@K@std@@@std@@@std@@PAX@2@@Z 0040f5a0 f i cOAMEdit.obj
 0001:0000e5e0       ?_Isnil@?$_Tree_val@U?$_Tree_simple_types@U?$pair@$$CBHV?$vector@KV?$allocator@K@std@@@std@@@std@@@std@@@std@@SAAADPAU?$_Tree_node@U?$pair@$$CBHV?$vector@KV?$allocator@K@std@@@std@@@std@@PAX@2@@Z 0040f5e0 f i cOAMEdit.obj
 0001:0000e610       ?_Key@?$_Tree@V?$_Tmap_traits@HV?$vector@KV?$allocator@K@std@@@std@@U?$less@H@2@V?$allocator@U?$pair@$$CBHV?$vector@KV?$allocator@K@std@@@std@@@std@@@2@$0A@@std@@@std@@IBEABHPAU?$_Tree_node@U?$pair@$$CBHV?$vector@KV?$allocator@K@std@@@std@@@std@@PAX@2@@Z 0040f610 f i cOAMEdit.obj
 0001:0000e660       ?_Kfn@?$_Tree@V?$_Tmap_traits@HV?$vector@KV?$allocator@K@std@@@std@@U?$less@H@2@V?$allocator@U?$pair@$$CBHV?$vector@KV?$allocator@K@std@@@std@@@std@@@2@$0A@@std@@@std@@IBEABHABU?$pair@$$CBHV?$vector@KV?$allocator@K@std@@@std@@@2@@Z 0040f660 f i cOAMEdit.obj
 0001:0000e6b0       ?_Left@?$_Tree_comp_alloc@V?$_Tmap_traits@HV?$vector@KV?$allocator@K@std@@@std@@U?$less@H@2@V?$allocator@U?$pair@$$CBHV?$vector@KV?$allocator@K@std@@@std@@@std@@@2@$0A@@std@@@std@@SAAAPAU?$_Tree_node@U?$pair@$$CBHV?$vector@KV?$allocator@K@std@@@std@@@std@@PAX@2@PAU32@@Z 0040f6b0 f i cOAMEdit.obj
 0001:0000e6f0       ?_Left@?$_Tree_val@U?$_Tree_simple_types@U?$pair@$$CBHV?$vector@KV?$allocator@K@std@@@std@@@std@@@std@@@std@@SAAAPAU?$_Tree_node@U?$pair@$$CBHV?$vector@KV?$allocator@K@std@@@std@@@std@@PAX@2@PAU32@@Z 0040f6f0 f i cOAMEdit.obj
 0001:0000e720       ?_Lmost@?$_Tree@V?$_Tmap_traits@HV?$vector@KV?$allocator@K@std@@@std@@U?$less@H@2@V?$allocator@U?$pair@$$CBHV?$vector@KV?$allocator@K@std@@@std@@@std@@@2@$0A@@std@@@std@@IBEAAPAU?$_Tree_node@U?$pair@$$CBHV?$vector@KV?$allocator@K@std@@@std@@@std@@PAX@2@XZ 0040f720 f i cOAMEdit.obj
 0001:0000e770       ?_Lrotate@?$_Tree@V?$_Tmap_traits@HV?$vector@KV?$allocator@K@std@@@std@@U?$less@H@2@V?$allocator@U?$pair@$$CBHV?$vector@KV?$allocator@K@std@@@std@@@std@@@2@$0A@@std@@@std@@IAEXPAU?$_Tree_node@U?$pair@$$CBHV?$vector@KV?$allocator@K@std@@@std@@@std@@PAX@2@@Z 0040f770 f i cOAMEdit.obj
 0001:0000e8d0       ?_Max@?$_Tree_val@U?$_Tree_simple_types@U?$pair@$$CBHV?$vector@KV?$allocator@K@std@@@std@@@std@@@std@@@std@@SAPAU?$_Tree_node@U?$pair@$$CBHV?$vector@KV?$allocator@K@std@@@std@@@std@@PAX@2@PAU32@@Z 0040f8d0 f i cOAMEdit.obj
 0001:0000e940       ?_Min@?$_Tree_val@U?$_Tree_simple_types@U?$pair@$$CBHV?$vector@KV?$allocator@K@std@@@std@@@std@@@std@@@std@@SAPAU?$_Tree_node@U?$pair@$$CBHV?$vector@KV?$allocator@K@std@@@std@@@std@@PAX@2@PAU32@@Z 0040f940 f i cOAMEdit.obj
 0001:0000e9b0       ?_Myend@?$_Vector_alloc@U?$_Vec_base_types@KV?$allocator@K@std@@@std@@@std@@QAEAAPAKXZ 0040f9b0 f i cOAMEdit.obj
 0001:0000ea00       ?_Myfirst@?$_Vector_alloc@U?$_Vec_base_types@KV?$allocator@K@std@@@std@@@std@@QAEAAPAKXZ 0040fa00 f i cOAMEdit.obj
 0001:0000ea50       ?_Myfirst@?$_Vector_alloc@U?$_Vec_base_types@PAVFrame@@V?$allocator@PAVFrame@@@std@@@std@@@std@@QAEAAPAPAVFrame@@XZ 0040fa50 f i cOAMEdit.obj
 0001:0000eaa0       ?_Myfirst@?$_Vector_alloc@U?$_Vec_base_types@PAVFrame@@V?$allocator@PAVFrame@@@std@@@std@@@std@@QBEABQAPAVFrame@@XZ 0040faa0 f i cOAMEdit.obj
 0001:0000eaf0       ?_Myfirst@?$_Vector_alloc@U?$_Vec_base_types@UOverAllOAM@@V?$allocator@UOverAllOAM@@@std@@@std@@@std@@QAEAAPAUOverAllOAM@@XZ 0040faf0 f i cOAMEdit.obj
 0001:0000eb40       ?_Myfirst@?$_Vector_alloc@U?$_Vec_base_types@UOverAllOAM@@V?$allocator@UOverAllOAM@@@std@@@std@@@std@@QBEABQAUOverAllOAM@@XZ 0040fb40 f i cOAMEdit.obj
 0001:0000eb90       ?_Myhead@?$_Tree_comp_alloc@V?$_Tmap_traits@HV?$vector@KV?$allocator@K@std@@@std@@U?$less@H@2@V?$allocator@U?$pair@$$CBHV?$vector@KV?$allocator@K@std@@@std@@@std@@@2@$0A@@std@@@std@@QAEAAPAU?$_Tree_node@U?$pair@$$CBHV?$vector@KV?$allocator@K@std@@@std@@@std@@PAX@2@XZ 0040fb90 f i cOAMEdit.obj
 0001:0000ebe0       ?_Myhead@?$_Tree_comp_alloc@V?$_Tmap_traits@HV?$vector@KV?$allocator@K@std@@@std@@U?$less@H@2@V?$allocator@U?$pair@$$CBHV?$vector@KV?$allocator@K@std@@@std@@@std@@@2@$0A@@std@@@std@@QBEABQAU?$_Tree_node@U?$pair@$$CBHV?$vector@KV?$allocator@K@std@@@std@@@std@@PAX@2@XZ 0040fbe0 f i cOAMEdit.obj
 0001:0000ec30       ?_Mylast@?$_Vector_alloc@U?$_Vec_base_types@KV?$allocator@K@std@@@std@@@std@@QAEAAPAKXZ 0040fc30 f i cOAMEdit.obj
 0001:0000ec80       ?_Mylast@?$_Vector_alloc@U?$_Vec_base_types@PAVFrame@@V?$allocator@PAVFrame@@@std@@@std@@@std@@QBEABQAPAVFrame@@XZ 0040fc80 f i cOAMEdit.obj
 0001:0000ecd0       ?_Mylast@?$_Vector_alloc@U?$_Vec_base_types@UOverAllOAM@@V?$allocator@UOverAllOAM@@@std@@@std@@@std@@QBEABQAUOverAllOAM@@XZ 0040fcd0 f i cOAMEdit.obj
 0001:0000ed20       ?_Mynode@?$_Tree_unchecked_const_iterator@V?$_Tree_val@U?$_Tree_simple_types@U?$pair@$$CBHV?$vector@KV?$allocator@K@std@@@std@@@std@@@std@@@std@@U_Iterator_base12@2@@std@@QBEPAU?$_Tree_node@U?$pair@$$CBHV?$vector@KV?$allocator@K@std@@@std@@@std@@PAX@2@XZ 0040fd20 f i cOAMEdit.obj
 0001:0000ed50       ?_Myproxy@?$_Vector_alloc@U?$_Vec_base_types@KV?$allocator@K@std@@@std@@@std@@QAEAAPAU_Container_proxy@2@XZ 0040fd50 f i cOAMEdit.obj
 0001:0000ed90       ?_Mysize@?$_Tree_comp_alloc@V?$_Tmap_traits@HV?$vector@KV?$allocator@K@std@@@std@@U?$less@H@2@V?$allocator@U?$pair@$$CBHV?$vector@KV?$allocator@K@std@@@std@@@std@@@2@$0A@@std@@@std@@QAEAAIXZ 0040fd90 f i cOAMEdit.obj
 0001:0000ede0       ?_Mysize@?$_Tree_comp_alloc@V?$_Tmap_traits@HV?$vector@KV?$allocator@K@std@@@std@@U?$less@H@2@V?$allocator@U?$pair@$$CBHV?$vector@KV?$allocator@K@std@@@std@@@std@@@2@$0A@@std@@@std@@QBEABIXZ 0040fde0 f i cOAMEdit.obj
 0001:0000ee30       ?_Myval@?$_Tree_comp_alloc@V?$_Tmap_traits@HV?$vector@KV?$allocator@K@std@@@std@@U?$less@H@2@V?$allocator@U?$pair@$$CBHV?$vector@KV?$allocator@K@std@@@std@@@std@@@2@$0A@@std@@@std@@SAAAU?$pair@$$CBHV?$vector@KV?$allocator@K@std@@@std@@@2@PAU?$_Tree_node@U?$pair@$$CBHV?$vector@KV?$allocator@K@std@@@std@@@std@@PAX@2@@Z 0040fe30 f i cOAMEdit.obj
 0001:0000ee70       ?_Myval@?$_Tree_val@U?$_Tree_simple_types@U?$pair@$$CBHV?$vector@KV?$allocator@K@std@@@std@@@std@@@std@@@std@@SAAAU?$pair@$$CBHV?$vector@KV?$allocator@K@std@@@std@@@2@PAU?$_Tree_node@U?$pair@$$CBHV?$vector@KV?$allocator@K@std@@@std@@@std@@PAX@2@@Z 0040fe70 f i cOAMEdit.obj
 0001:0000eea0       ?_Orphan_all@?$_Vector_alloc@U?$_Vec_base_types@KV?$allocator@K@std@@@std@@@std@@QAEXXZ 0040fea0 f i cOAMEdit.obj
 0001:0000eef0       ?_Orphan_me@_Iterator_base12@std@@QAEXXZ 0040fef0 f i cOAMEdit.obj
 0001:0000efa0       ?_Parent@?$_Tree_comp_alloc@V?$_Tmap_traits@HV?$vector@KV?$allocator@K@std@@@std@@U?$less@H@2@V?$allocator@U?$pair@$$CBHV?$vector@KV?$allocator@K@std@@@std@@@std@@@2@$0A@@std@@@std@@SAAAPAU?$_Tree_node@U?$pair@$$CBHV?$vector@KV?$allocator@K@std@@@std@@@std@@PAX@2@PAU32@@Z 0040ffa0 f i cOAMEdit.obj
 0001:0000efe0       ?_Parent@?$_Tree_val@U?$_Tree_simple_types@U?$pair@$$CBHV?$vector@KV?$allocator@K@std@@@std@@@std@@@std@@@std@@SAAAPAU?$_Tree_node@U?$pair@$$CBHV?$vector@KV?$allocator@K@std@@@std@@@std@@PAX@2@PAU32@@Z 0040ffe0 f i cOAMEdit.obj
 0001:0000f010       ?_Right@?$_Tree_comp_alloc@V?$_Tmap_traits@HV?$vector@KV?$allocator@K@std@@@std@@U?$less@H@2@V?$allocator@U?$pair@$$CBHV?$vector@KV?$allocator@K@std@@@std@@@std@@@2@$0A@@std@@@std@@SAAAPAU?$_Tree_node@U?$pair@$$CBHV?$vector@KV?$allocator@K@std@@@std@@@std@@PAX@2@PAU32@@Z 00410010 f i cOAMEdit.obj
 0001:0000f050       ?_Right@?$_Tree_val@U?$_Tree_simple_types@U?$pair@$$CBHV?$vector@KV?$allocator@K@std@@@std@@@std@@@std@@@std@@SAAAPAU?$_Tree_node@U?$pair@$$CBHV?$vector@KV?$allocator@K@std@@@std@@@std@@PAX@2@PAU32@@Z 00410050 f i cOAMEdit.obj
 0001:0000f080       ?_Rmost@?$_Tree@V?$_Tmap_traits@HV?$vector@KV?$allocator@K@std@@@std@@U?$less@H@2@V?$allocator@U?$pair@$$CBHV?$vector@KV?$allocator@K@std@@@std@@@std@@@2@$0A@@std@@@std@@IBEAAPAU?$_Tree_node@U?$pair@$$CBHV?$vector@KV?$allocator@K@std@@@std@@@std@@PAX@2@XZ 00410080 f i cOAMEdit.obj
 0001:0000f0d0       ?_Root@?$_Tree@V?$_Tmap_traits@HV?$vector@KV?$allocator@K@std@@@std@@U?$less@H@2@V?$allocator@U?$pair@$$CBHV?$vector@KV?$allocator@K@std@@@std@@@std@@@2@$0A@@std@@@std@@IBEAAPAU?$_Tree_node@U?$pair@$$CBHV?$vector@KV?$allocator@K@std@@@std@@@std@@PAX@2@XZ 004100d0 f i cOAMEdit.obj
 0001:0000f120       ?_Rrotate@?$_Tree@V?$_Tmap_traits@HV?$vector@KV?$allocator@K@std@@@std@@U?$less@H@2@V?$allocator@U?$pair@$$CBHV?$vector@KV?$allocator@K@std@@@std@@@std@@@2@$0A@@std@@@std@@IAEXPAU?$_Tree_node@U?$pair@$$CBHV?$vector@KV?$allocator@K@std@@@std@@@std@@PAX@2@@Z 00410120 f i cOAMEdit.obj
 0001:0000f280       ?_Tidy@?$vector@KV?$allocator@K@std@@@std@@IAEXXZ 00410280 f i cOAMEdit.obj
 0001:0000f350       ?address@?$_Wrap_alloc@V?$allocator@U_Container_proxy@std@@@std@@@std@@QBEPAU_Container_proxy@2@AAU32@@Z 00410350 f i cOAMEdit.obj
 0001:0000f3a0       ?allocate@?$_Wrap_alloc@V?$allocator@U?$_Tree_node@U?$pair@$$CBHV?$vector@KV?$allocator@K@std@@@std@@@std@@PAX@std@@@std@@@std@@QAEPAU?$_Tree_node@U?$pair@$$CBHV?$vector@KV?$allocator@K@std@@@std@@@std@@PAX@2@I@Z 004103a0 f i cOAMEdit.obj
 0001:0000f3f0       ?allocate@?$allocator@U?$_Tree_node@U?$pair@$$CBHV?$vector@KV?$allocator@K@std@@@std@@@std@@PAX@std@@@std@@QAEPAU?$_Tree_node@U?$pair@$$CBHV?$vector@KV?$allocator@K@std@@@std@@@std@@PAX@2@I@Z 004103f0 f i cOAMEdit.obj
 0001:0000f440       ?begin@?$_Tree@V?$_Tmap_traits@HV?$vector@KV?$allocator@K@std@@@std@@U?$less@H@2@V?$allocator@U?$pair@$$CBHV?$vector@KV?$allocator@K@std@@@std@@@std@@@2@$0A@@std@@@std@@QAE?AV?$_Tree_iterator@V?$_Tree_val@U?$_Tree_simple_types@U?$pair@$$CBHV?$vector@KV?$allocator@K@std@@@std@@@std@@@std@@@std@@@2@XZ 00410440 f i cOAMEdit.obj
 0001:0000f4d0       ?begin@?$vector@KV?$allocator@K@std@@@std@@QAE?AV?$_Vector_iterator@V?$_Vector_val@U?$_Simple_types@K@std@@@std@@@2@XZ 004104d0 f i cOAMEdit.obj
 0001:0000f560       ?deallocate@?$_Wrap_alloc@V?$allocator@K@std@@@std@@QAEXPAKI@Z 00410560 f i cOAMEdit.obj
 0001:0000f5b0       ?deallocate@?$_Wrap_alloc@V?$allocator@U?$_Tree_node@U?$pair@$$CBHV?$vector@KV?$allocator@K@std@@@std@@@std@@PAX@std@@@std@@@std@@QAEXPAU?$_Tree_node@U?$pair@$$CBHV?$vector@KV?$allocator@K@std@@@std@@@std@@PAX@2@I@Z 004105b0 f i cOAMEdit.obj
 0001:0000f600       ?deallocate@?$_Wrap_alloc@V?$allocator@U_Container_proxy@std@@@std@@@std@@QAEXPAU_Container_proxy@2@I@Z 00410600 f i cOAMEdit.obj
 0001:0000f650       ?deallocate@?$allocator@K@std@@QAEXPAKI@Z 00410650 f i cOAMEdit.obj
 0001:0000f6a0       ?deallocate@?$allocator@U?$_Tree_node@U?$pair@$$CBHV?$vector@KV?$allocator@K@std@@@std@@@std@@PAX@std@@@std@@QAEXPAU?$_Tree_node@U?$pair@$$CBHV?$vector@KV?$allocator@K@std@@@std@@@std@@PAX@2@I@Z 004106a0 f i cOAMEdit.obj
 0001:0000f6f0       ?deallocate@?$allocator@U_Container_proxy@std@@@std@@QAEXPAU_Container_proxy@2@I@Z 004106f0 f i cOAMEdit.obj
 0001:0000f740       ?end@?$_Tree@V?$_Tmap_traits@HV?$vector@KV?$allocator@K@std@@@std@@U?$less@H@2@V?$allocator@U?$pair@$$CBHV?$vector@KV?$allocator@K@std@@@std@@@std@@@2@$0A@@std@@@std@@QAE?AV?$_Tree_iterator@V?$_Tree_val@U?$_Tree_simple_types@U?$pair@$$CBHV?$vector@KV?$allocator@K@std@@@std@@@std@@@std@@@std@@@2@XZ 00410740 f i cOAMEdit.obj
 0001:0000f7d0       ?front@?$vector@KV?$allocator@K@std@@@std@@QAEAAKXZ 004107d0 f i cOAMEdit.obj
 0001:0000f890       ?lower_bound@?$_Tree@V?$_Tmap_traits@HV?$vector@KV?$allocator@K@std@@@std@@U?$less@H@2@V?$allocator@U?$pair@$$CBHV?$vector@KV?$allocator@K@std@@@std@@@std@@@2@$0A@@std@@@std@@QAE?AV?$_Tree_iterator@V?$_Tree_val@U?$_Tree_simple_types@U?$pair@$$CBHV?$vector@KV?$allocator@K@std@@@std@@@std@@@std@@@std@@@2@ABH@Z 00410890 f i cOAMEdit.obj
 0001:0000f910       ?max_size@?$_Tree@V?$_Tmap_traits@HV?$vector@KV?$allocator@K@std@@@std@@U?$less@H@2@V?$allocator@U?$pair@$$CBHV?$vector@KV?$allocator@K@std@@@std@@@std@@@2@$0A@@std@@@std@@QBEIXZ 00410910 f i cOAMEdit.obj
 0001:0000f960       ?max_size@?$_Wrap_alloc@V?$allocator@U?$_Tree_node@U?$pair@$$CBHV?$vector@KV?$allocator@K@std@@@std@@@std@@PAX@std@@@std@@@std@@QBEIU_Nil@2@@Z 00410960 f i cOAMEdit.obj
 0001:0000f9b0       ?max_size@?$allocator@U?$_Tree_node@U?$pair@$$CBHV?$vector@KV?$allocator@K@std@@@std@@@std@@PAX@std@@@std@@QBEIXZ 004109b0 f i cOAMEdit.obj
 0001:0000f9e0       ?max_size@?$allocator_traits@V?$allocator@U?$_Tree_node@U?$pair@$$CBHV?$vector@KV?$allocator@K@std@@@std@@@std@@PAX@std@@@std@@@std@@SAIABV?$allocator@U?$_Tree_node@U?$pair@$$CBHV?$vector@KV?$allocator@K@std@@@std@@@std@@PAX@std@@@2@@Z 004109e0 f i cOAMEdit.obj
 0001:0000fa20       ?pointer_to@?$pointer_traits@PAU?$pair@$$CBHV?$vector@KV?$allocator@K@std@@@std@@@std@@@std@@SAPAU?$pair@$$CBHV?$vector@KV?$allocator@K@std@@@std@@@2@AAU32@@Z 00410a20 f i cOAMEdit.obj
 0001:0000fa60       ?pointer_to@?$pointer_traits@PAU_Container_proxy@std@@@std@@SAPAU_Container_proxy@2@AAU32@@Z 00410a60 f i cOAMEdit.obj
 0001:0000faa0       ?size@?$_Tree@V?$_Tmap_traits@HV?$vector@KV?$allocator@K@std@@@std@@U?$less@H@2@V?$allocator@U?$pair@$$CBHV?$vector@KV?$allocator@K@std@@@std@@@std@@@2@$0A@@std@@@std@@QBEIXZ 00410aa0 f i cOAMEdit.obj
 0001:0000faf0       ?size@?$vector@PAVFrame@@V?$allocator@PAVFrame@@@std@@@std@@QBEIXZ 00410af0 f i cOAMEdit.obj
 0001:0000fb50       ?size@?$vector@UOverAllOAM@@V?$allocator@UOverAllOAM@@@std@@@std@@QBEIXZ 00410b50 f i cOAMEdit.obj
 0001:0000fbb0       __vfprintf_l               00410bb0 f i cOAMEdit.obj
 0001:0000fc10       _printf                    00410c10 f i cOAMEdit.obj
 0001:0000fc90       ??0cSpriteSetEditor@@QAE@XZ 00410c90 f   cSSE.obj
 0001:0000fdb0       ??1cSpriteSetEditor@@QAE@XZ 00410db0 f   cSSE.obj
 0001:0000fe70       ??A?$vector@UGFXData@@V?$allocator@UGFXData@@@std@@@std@@QAEAAUGFXData@@I@Z 00410e70 f i cSSE.obj
 0001:0000ff50       ??_GSpriteObject@@QAEPAXI@Z 00410f50 f i cSSE.obj
 0001:0000ffb0       ?Create@cSpriteSetEditor@@QAEHPAUHINSTANCE__@@@Z 00410fb0 f   cSSE.obj
 0001:000101b0       ?CreatePalWindow@cSpriteSetEditor@@QAEHPAUHINSTANCE__@@P6GJPAUHWND__@@IIJ@Z@Z 004111b0 f   cSSE.obj
 0001:000102f0       ?CreateTileWindow@cSpriteSetEditor@@QAEHPAUHINSTANCE__@@P6GJPAUHWND__@@IIJ@Z@Z 004112f0 f   cSSE.obj
 0001:00010430       ?GetSetData@cSpriteSetEditor@@QAEHHEPAVcEntityManager@@@Z 00411430 f   cSSE.obj
 0001:00010640       ?GetSpritesPalAndTiles@cSpriteSetEditor@@QAEH_N@Z 00411640 f   cSSE.obj
 0001:000107e0       ?SetupPreview@cSpriteSetEditor@@QAEHPAVSpriteObject@@H@Z 004117e0 f   cSSE.obj
 0001:00010c50       ?_Get_data@?$_Vector_alloc@U?$_Vec_base_types@UGFXData@@V?$allocator@UGFXData@@@std@@@std@@@std@@QAEAAV?$_Vector_val@U?$_Simple_types@UGFXData@@@std@@@2@XZ 00411c50 f i cSSE.obj
 0001:00010c90       ?_Get_data@?$_Vector_alloc@U?$_Vec_base_types@UGFXData@@V?$allocator@UGFXData@@@std@@@std@@@std@@QBEABV?$_Vector_val@U?$_Simple_types@UGFXData@@@std@@@2@XZ 00411c90 f i cSSE.obj
 0001:00010cd0       ?_Get_second@?$_Compressed_pair@U?$_Wrap_alloc@V?$allocator@UGFXData@@@std@@@std@@V?$_Vector_val@U?$_Simple_types@UGFXData@@@std@@@2@$00@std@@QAEAAV?$_Vector_val@U?$_Simple_types@UGFXData@@@std@@@2@XZ 00411cd0 f i cSSE.obj
 0001:00010d00       ?_Get_second@?$_Compressed_pair@U?$_Wrap_alloc@V?$allocator@UGFXData@@@std@@@std@@V?$_Vector_val@U?$_Simple_types@UGFXData@@@std@@@2@$00@std@@QBEABV?$_Vector_val@U?$_Simple_types@UGFXData@@@std@@@2@XZ 00411d00 f i cSSE.obj
 0001:00010d30       ?_Myfirst@?$_Vector_alloc@U?$_Vec_base_types@UGFXData@@V?$allocator@UGFXData@@@std@@@std@@@std@@QAEAAPAUGFXData@@XZ 00411d30 f i cSSE.obj
 0001:00010d80       ?_Myfirst@?$_Vector_alloc@U?$_Vec_base_types@UGFXData@@V?$allocator@UGFXData@@@std@@@std@@@std@@QBEABQAUGFXData@@XZ 00411d80 f i cSSE.obj
 0001:00010dd0       ?_Mylast@?$_Vector_alloc@U?$_Vec_base_types@UGFXData@@V?$allocator@UGFXData@@@std@@@std@@@std@@QBEABQAUGFXData@@XZ 00411dd0 f i cSSE.obj
 0001:00010e20       ?size@?$vector@UGFXData@@V?$allocator@UGFXData@@@std@@@std@@QBEIXZ 00411e20 f i cSSE.obj
 0001:00010e80       ??0cStatEd@@QAE@H@Z        00411e80 f   cStatEd.obj
 0001:00010fb0       ??1cStatEd@@QAE@XZ         00411fb0 f   cStatEd.obj
 0001:00011090       ?InitDialog@cStatEd@@QAEHXZ 00412090 f   cStatEd.obj
 0001:000114a0       ?LoadSprite@cStatEd@@QAEHXZ 004124a0 f   cStatEd.obj
 0001:00011ab0       ?SaveSprite@cStatEd@@QAEHXZ 00412ab0 f   cStatEd.obj
 0001:00012200       ?SetupPreview@cStatEd@@QAEHXZ 00413200 f   cStatEd.obj
 0001:00012750       ___local_stdio_scanf_options 00413750 f i cStatEd.obj
 0001:00012780       __vsscanf_l                00413780 f i cStatEd.obj
 0001:000127f0       _sscanf                    004137f0 f i cStatEd.obj
 0001:00012850       ??$?0$$QAH$$Z$$V@?$pair@$$CBHV?$basic_string@DU?$char_traits@D@std@@V?$allocator@D@2@@std@@@std@@QAE@Upiecewise_construct_t@1@V?$tuple@$$QAH@1@V?$tuple@$$V@1@@Z 00413850 f i cTED.obj
 0001:000128b0       ??$?0$$V@?$_Compressed_pair@U?$_Wrap_alloc@V?$allocator@D@std@@@std@@V?$_String_val@U?$_Simple_types@D@std@@@2@$00@std@@QAE@U_Zero_then_variadic_args_t@1@@Z 004138b0 f i cTED.obj
 0001:00012900       ??$?0$$V@?$_Compressed_pair@U?$_Wrap_alloc@V?$allocator@G@std@@@std@@V?$_Vector_val@U?$_Simple_types@G@std@@@2@$00@std@@QAE@U_Zero_then_variadic_args_t@1@@Z 00413900 f i cTED.obj
 0001:00012950       ??$?0$$V@?$_Compressed_pair@U?$_Wrap_alloc@V?$allocator@U?$_Tree_node@U?$pair@$$CBHV?$basic_string@DU?$char_traits@D@std@@V?$allocator@D@2@@std@@@std@@PAX@std@@@std@@@std@@V?$_Tree_val@U?$_Tree_simple_types@U?$pair@$$CBHV?$basic_string@DU?$char_traits@D@std@@V?$allocator@D@2@@std@@@std@@@std@@@2@$00@std@@QAE@U_Zero_then_variadic_args_t@1@@Z 00413950 f i cTED.obj
 0001:000129a0       ??$?0AAU?$_Wrap_alloc@V?$allocator@D@std@@@std@@@?$_Wrap_alloc@V?$allocator@U_Container_proxy@std@@@std@@@std@@QAE@AAU?$_Wrap_alloc@V?$allocator@D@std@@@1@@Z 004139a0 f i cTED.obj
 0001:00012a00       ??$?0AAU?$_Wrap_alloc@V?$allocator@G@std@@@std@@@?$_Wrap_alloc@V?$allocator@U_Container_proxy@std@@@std@@@std@@QAE@AAU?$_Wrap_alloc@V?$allocator@G@std@@@1@@Z 00413a00 f i cTED.obj
 0001:00012a60       ??$?0AAU?$_Wrap_alloc@V?$allocator@U?$_Tree_node@U?$pair@$$CBHV?$basic_string@DU?$char_traits@D@std@@V?$allocator@D@2@@std@@@std@@PAX@std@@@std@@@std@@@?$_Wrap_alloc@V?$allocator@U_Container_proxy@std@@@std@@@std@@QAE@AAU?$_Wrap_alloc@V?$allocator@U?$_Tree_node@U?$pair@$$CBHV?$basic_string@DU?$char_traits@D@std@@V?$allocator@D@2@@std@@@std@@PAX@std@@@std@@@1@@Z 00413a60 f i cTED.obj
 0001:00012ac0       ??$?0AAV?$_Tree_const_iterator@V?$_Tree_val@U?$_Tree_simple_types@U?$pair@$$CBHV?$basic_string@DU?$char_traits@D@std@@V?$allocator@D@2@@std@@@std@@@std@@@std@@@std@@AAV01@X$0A@@?$pair@V?$_Tree_const_iterator@V?$_Tree_val@U?$_Tree_simple_types@U?$pair@$$CBHV?$basic_string@DU?$char_traits@D@std@@V?$allocator@D@2@@std@@@std@@@std@@@std@@@std@@V12@@std@@QAE@AAV?$_Tree_const_iterator@V?$_Tree_val@U?$_Tree_simple_types@U?$pair@$$CBHV?$basic_string@DU?$char_traits@D@std@@V?$allocator@D@2@@std@@@std@@@std@@@std@@@1@0@Z 00413ac0 f i cTED.obj
 0001:00012b70       ??$?0AAV?$_Tree_iterator@V?$_Tree_val@U?$_Tree_simple_types@U?$pair@$$CBHV?$basic_string@DU?$char_traits@D@std@@V?$allocator@D@2@@std@@@std@@@std@@@std@@@std@@_NX$0A@@?$pair@V?$_Tree_iterator@V?$_Tree_val@U?$_Tree_simple_types@U?$pair@$$CBHV?$basic_string@DU?$char_traits@D@std@@V?$allocator@D@2@@std@@@std@@@std@@@std@@@std@@_N@std@@QAE@AAV?$_Tree_iterator@V?$_Tree_val@U?$_Tree_simple_types@U?$pair@$$CBHV?$basic_string@DU?$char_traits@D@std@@V?$allocator@D@2@@std@@@std@@@std@@@std@@@1@$$QA_N@Z 00413b70 f i cTED.obj
 0001:00012be0       ??$?0ABH$$Z$$V@?$pair@$$CBHV?$basic_string@DU?$char_traits@D@std@@V?$allocator@D@2@@std@@@std@@QAE@Upiecewise_construct_t@1@V?$tuple@ABH@1@V?$tuple@$$V@1@@Z 00413be0 f i cTED.obj
 0001:00012c40       ??$?0ABU?$less@H@std@@U_Zero_then_variadic_args_t@1@@?$_Compressed_pair@U?$less@H@std@@V?$_Compressed_pair@U?$_Wrap_alloc@V?$allocator@U?$_Tree_node@U?$pair@$$CBHV?$basic_string@DU?$char_traits@D@std@@V?$allocator@D@2@@std@@@std@@PAX@std@@@std@@@std@@V?$_Tree_val@U?$_Tree_simple_types@U?$pair@$$CBHV?$basic_string@DU?$char_traits@D@std@@V?$allocator@D@2@@std@@@std@@@std@@@2@$00@2@$00@std@@QAE@U_One_then_variadic_args_t@1@ABU?$less@H@1@$$QAU_Zero_then_variadic_args_t@1@@Z 00413c40 f i cTED.obj
 0001:00012cb0       ??$?0D@?$allocator@U_Container_proxy@std@@@std@@QAE@ABV?$allocator@D@1@@Z 00413cb0 f i cTED.obj
 0001:00012ce0       ??$?0G@?$allocator@U_Container_proxy@std@@@std@@QAE@ABV?$allocator@G@1@@Z 00413ce0 f i cTED.obj
 0001:00012d10       ??$?0H$$V$0A@@?$tuple@$$QAH@std@@QAE@$$QAH@Z 00413d10 f i cTED.obj
 0001:00012d80       ??$?0H@?$_Tuple_val@$$QAH@std@@QAE@$$QAH@Z 00413d80 f i cTED.obj
 0001:00012dd0       ??$?0U?$_Tree_node@U?$pair@$$CBHV?$basic_string@DU?$char_traits@D@std@@V?$allocator@D@2@@std@@@std@@PAX@std@@@?$allocator@U_Container_proxy@std@@@std@@QAE@ABV?$allocator@U?$_Tree_node@U?$pair@$$CBHV?$basic_string@DU?$char_traits@D@std@@V?$allocator@D@2@@std@@@std@@PAX@std@@@1@@Z 00413dd0 f i cTED.obj
 0001:00012e00       ??$?0U?$_Wrap_alloc@V?$allocator@D@std@@@std@@$$V@?$_Compressed_pair@U?$_Wrap_alloc@V?$allocator@D@std@@@std@@V?$_String_val@U?$_Simple_types@D@std@@@2@$00@std@@QAE@U_One_then_variadic_args_t@1@$$QAU?$_Wrap_alloc@V?$allocator@D@std@@@1@@Z 00413e00 f i cTED.obj
 0001:00012e60       ??$?0U?$_Wrap_alloc@V?$allocator@D@std@@@std@@X@?$_String_alloc@U?$_String_base_types@DV?$allocator@D@std@@@std@@@std@@QAE@$$QAU?$_Wrap_alloc@V?$allocator@D@std@@@1@@Z 00413e60 f i cTED.obj
 0001:00012f00       ??$?0V?$_Tree_iterator@V?$_Tree_val@U?$_Tree_simple_types@U?$pair@$$CBHV?$basic_string@DU?$char_traits@D@std@@V?$allocator@D@2@@std@@@std@@@std@@@std@@@std@@_NX$0A@@?$pair@V?$_Tree_iterator@V?$_Tree_val@U?$_Tree_simple_types@U?$pair@$$CBHV?$basic_string@DU?$char_traits@D@std@@V?$allocator@D@2@@std@@@std@@@std@@@std@@@std@@_N@std@@QAE@$$QAV?$_Tree_iterator@V?$_Tree_val@U?$_Tree_simple_types@U?$pair@$$CBHV?$basic_string@DU?$char_traits@D@std@@V?$allocator@D@2@@std@@@std@@@std@@@std@@@1@$$QA_N@Z 00413f00 f i cTED.obj
 0001:00012f70       ??$?0V?$allocator@D@std@@@?$_Wrap_alloc@V?$allocator@D@std@@@std@@QAE@$$QAV?$allocator@D@1@@Z 00413f70 f i cTED.obj
 0001:00012fd0       ??$?0V?$tuple@$$QAH@std@@V?$tuple@$$V@1@$0A@$$Z$S@?$pair@$$CBHV?$basic_string@DU?$char_traits@D@std@@V?$allocator@D@2@@std@@@std@@QAE@AAV?$tuple@$$QAH@1@AAV?$tuple@$$V@1@U?$integer_sequence@I$0A@@1@U?$integer_sequence@I$S@1@@Z 00413fd0 f i cTED.obj
 0001:00013040       ??$?0V?$tuple@ABH@std@@V?$tuple@$$V@1@$0A@$$Z$S@?$pair@$$CBHV?$basic_string@DU?$char_traits@D@std@@V?$allocator@D@2@@std@@@std@@QAE@AAV?$tuple@ABH@1@AAV?$tuple@$$V@1@U?$integer_sequence@I$0A@@1@U?$integer_sequence@I$S@1@@Z 00414040 f i cTED.obj
 0001:000130b0       ??$?8DU?$char_traits@D@std@@V?$allocator@D@1@@std@@YA_NABV?$basic_string@DU?$char_traits@D@std@@V?$allocator@D@2@@0@0@Z 004140b0 f i cTED.obj
 0001:00013110       ??$?8DU?$char_traits@D@std@@V?$allocator@D@1@@std@@YA_NABV?$basic_string@DU?$char_traits@D@std@@V?$allocator@D@2@@0@PBD@Z 00414110 f i cTED.obj
 0001:00013170       ??$_Buynode@ABUpiecewise_construct_t@std@@V?$tuple@$$QAH@2@V?$tuple@$$V@2@@?$_Tree_comp_alloc@V?$_Tmap_traits@HV?$basic_string@DU?$char_traits@D@std@@V?$allocator@D@2@@std@@U?$less@H@2@V?$allocator@U?$pair@$$CBHV?$basic_string@DU?$char_traits@D@std@@V?$allocator@D@2@@std@@@std@@@2@$0A@@std@@@std@@QAEPAU?$_Tree_node@U?$pair@$$CBHV?$basic_string@DU?$char_traits@D@std@@V?$allocator@D@2@@std@@@std@@PAX@1@ABUpiecewise_construct_t@1@$$QAV?$tuple@$$QAH@1@$$QAV?$tuple@$$V@1@@Z 00414170 f i cTED.obj
 0001:00013290       ??$_Buynode@ABUpiecewise_construct_t@std@@V?$tuple@ABH@2@V?$tuple@$$V@2@@?$_Tree_comp_alloc@V?$_Tmap_traits@HV?$basic_string@DU?$char_traits@D@std@@V?$allocator@D@2@@std@@U?$less@H@2@V?$allocator@U?$pair@$$CBHV?$basic_string@DU?$char_traits@D@std@@V?$allocator@D@2@@std@@@std@@@2@$0A@@std@@@std@@QAEPAU?$_Tree_node@U?$pair@$$CBHV?$basic_string@DU?$char_traits@D@std@@V?$allocator@D@2@@std@@@std@@PAX@1@ABUpiecewise_construct_t@1@$$QAV?$tuple@ABH@1@$$QAV?$tuple@$$V@1@@Z 00414290 f i cTED.obj
 0001:000133b0       ??$_Buynode_if_nil@AAU?$pair@$$CBHV?$basic_string@DU?$char_traits@D@std@@V?$allocator@D@2@@std@@@std@@@?$_Tree@V?$_Tmap_traits@HV?$basic_string@DU?$char_traits@D@std@@V?$allocator@D@2@@std@@U?$less@H@2@V?$allocator@U?$pair@$$CBHV?$basic_string@DU?$char_traits@D@std@@V?$allocator@D@2@@std@@@std@@@2@$0A@@std@@@std@@IAEPAU?$_Tree_node@U?$pair@$$CBHV?$basic_string@DU?$char_traits@D@std@@V?$allocator@D@2@@std@@@std@@PAX@1@PAU21@AAU?$pair@$$CBHV?$basic_string@DU?$char_traits@D@std@@V?$allocator@D@2@@std@@@1@@Z 004143b0 f i cTED.obj
 0001:000133e0       ??$_Copy_memmove@PAGPAG@std@@YAPAGPAG00@Z 004143e0 f i cTED.obj
 0001:00013460       ??$_Debug_lt_pred@AAU?$less@H@std@@AAHABH@std@@YA_NAAU?$less@H@0@AAHABHPB_WI@Z 00414460 f i cTED.obj
 0001:00013510       ??$_Debug_pointer@$$CBD@std@@YAXPBDPB_WI@Z 00414510 f i cTED.obj
 0001:00013570       ??$_Debug_pointer_if@$$CBD@std@@YAX_NPBDPB_WI@Z 00414570 f i cTED.obj
 0001:000135d0       ??$_Destroy_range1@V?$allocator@G@std@@PAG@std@@YAXPAG0AAU?$_Wrap_alloc@V?$allocator@G@std@@@0@U?$integral_constant@_N$00@0@@Z 004145d0 f i cTED.obj
 0001:00013600       ??$_Destroy_range@V?$allocator@G@std@@PAG@std@@YAXPAG0AAU?$_Wrap_alloc@V?$allocator@G@std@@@0@@Z 00414600 f i cTED.obj
 0001:00013650       ??$_Distance1@V?$_Tree_const_iterator@V?$_Tree_val@U?$_Tree_simple_types@U?$pair@$$CBHV?$basic_string@DU?$char_traits@D@std@@V?$allocator@D@2@@std@@@std@@@std@@@std@@@std@@@std@@YAHV?$_Tree_const_iterator@V?$_Tree_val@U?$_Tree_simple_types@U?$pair@$$CBHV?$basic_string@DU?$char_traits@D@std@@V?$allocator@D@2@@std@@@std@@@std@@@std@@@0@0Uinput_iterator_tag@0@@Z 00414650 f i cTED.obj
 0001:00013710       ??$_Eqrange@H@?$_Tree@V?$_Tmap_traits@HV?$basic_string@DU?$char_traits@D@std@@V?$allocator@D@2@@std@@U?$less@H@2@V?$allocator@U?$pair@$$CBHV?$basic_string@DU?$char_traits@D@std@@V?$allocator@D@2@@std@@@std@@@2@$0A@@std@@@std@@IBE?AU?$pair@V?$_Tree_const_iterator@V?$_Tree_val@U?$_Tree_simple_types@U?$pair@$$CBHV?$basic_string@DU?$char_traits@D@std@@V?$allocator@D@2@@std@@@std@@@std@@@std@@@std@@V12@@1@ABH@Z 00414710 f i cTED.obj
 0001:000139d0       ??$_Insert_at@AAU?$pair@$$CBHV?$basic_string@DU?$char_traits@D@std@@V?$allocator@D@2@@std@@@std@@PAU?$_Tree_node@U?$pair@$$CBHV?$basic_string@DU?$char_traits@D@std@@V?$allocator@D@2@@std@@@std@@PAX@2@@?$_Tree@V?$_Tmap_traits@HV?$basic_string@DU?$char_traits@D@std@@V?$allocator@D@2@@std@@U?$less@H@2@V?$allocator@U?$pair@$$CBHV?$basic_string@DU?$char_traits@D@std@@V?$allocator@D@2@@std@@@std@@@2@$0A@@std@@@std@@IAE?AV?$_Tree_iterator@V?$_Tree_val@U?$_Tree_simple_types@U?$pair@$$CBHV?$basic_string@DU?$char_traits@D@std@@V?$allocator@D@2@@std@@@std@@@std@@@std@@@1@_NPAU?$_Tree_node@U?$pair@$$CBHV?$basic_string@DU?$char_traits@D@std@@V?$allocator@D@2@@std@@@std@@PAX@1@AAU?$pair@$$CBHV?$basic_string@DU?$char_traits@D@std@@V?$allocator@D@2@@std@@@1@1@Z 004149d0 f i cTED.obj
 0001:00013e70       ??$_Insert_hint@AAU?$pair@$$CBHV?$basic_string@DU?$char_traits@D@std@@V?$allocator@D@2@@std@@@std@@PAU?$_Tree_node@U?$pair@$$CBHV?$basic_string@DU?$char_traits@D@std@@V?$allocator@D@2@@std@@@std@@PAX@2@@?$_Tree@V?$_Tmap_traits@HV?$basic_string@DU?$char_traits@D@std@@V?$allocator@D@2@@std@@U?$less@H@2@V?$allocator@U?$pair@$$CBHV?$basic_string@DU?$char_traits@D@std@@V?$allocator@D@2@@std@@@std@@@2@$0A@@std@@@std@@IAE?AV?$_Tree_iterator@V?$_Tree_val@U?$_Tree_simple_types@U?$pair@$$CBHV?$basic_string@DU?$char_traits@D@std@@V?$allocator@D@2@@std@@@std@@@std@@@std@@@1@V?$_Tree_const_iterator@V?$_Tree_val@U?$_Tree_simple_types@U?$pair@$$CBHV?$basic_string@DU?$char_traits@D@std@@V?$allocator@D@2@@std@@@std@@@std@@@std@@@1@AAU?$pair@$$CBHV?$basic_string@DU?$char_traits@D@std@@V?$allocator@D@2@@std@@@1@PAU?$_Tree_node@U?$pair@$$CBHV?$basic_string@DU?$char_traits@D@std@@V?$allocator@D@2@@std@@@std@@PAX@1@@Z 00414e70 f i cTED.obj
 0001:00014f80       ??$_Insert_nohint@AAU?$pair@$$CBHV?$basic_string@DU?$char_traits@D@std@@V?$allocator@D@2@@std@@@std@@PAU?$_Tree_node@U?$pair@$$CBHV?$basic_string@DU?$char_traits@D@std@@V?$allocator@D@2@@std@@@std@@PAX@2@@?$_Tree@V?$_Tmap_traits@HV?$basic_string@DU?$char_traits@D@std@@V?$allocator@D@2@@std@@U?$less@H@2@V?$allocator@U?$pair@$$CBHV?$basic_string@DU?$char_traits@D@std@@V?$allocator@D@2@@std@@@std@@@2@$0A@@std@@@std@@IAE?AU?$pair@V?$_Tree_iterator@V?$_Tree_val@U?$_Tree_simple_types@U?$pair@$$CBHV?$basic_string@DU?$char_traits@D@std@@V?$allocator@D@2@@std@@@std@@@std@@@std@@@std@@_N@1@_NAAU?$pair@$$CBHV?$basic_string@DU?$char_traits@D@std@@V?$allocator@D@2@@std@@@1@PAU?$_Tree_node@U?$pair@$$CBHV?$basic_string@DU?$char_traits@D@std@@V?$allocator@D@2@@std@@@std@@PAX@1@@Z 00415f80 f i cTED.obj
 0001:000154f0       ??$_Kfn@$$CBHV?$basic_string@DU?$char_traits@D@std@@V?$allocator@D@2@@std@@@?$_Tmap_traits@HV?$basic_string@DU?$char_traits@D@std@@V?$allocator@D@2@@std@@U?$less@H@2@V?$allocator@U?$pair@$$CBHV?$basic_string@DU?$char_traits@D@std@@V?$allocator@D@2@@std@@@std@@@2@$0A@@std@@SAABHABU?$pair@$$CBHV?$basic_string@DU?$char_traits@D@std@@V?$allocator@D@2@@std@@@1@@Z 004164f0 f i cTED.obj
 0001:00015520       ??$_Lbound@H@?$_Tree@V?$_Tmap_traits@HV?$basic_string@DU?$char_traits@D@std@@V?$allocator@D@2@@std@@U?$less@H@2@V?$allocator@U?$pair@$$CBHV?$basic_string@DU?$char_traits@D@std@@V?$allocator@D@2@@std@@@std@@@2@$0A@@std@@@std@@IBEPAU?$_Tree_node@U?$pair@$$CBHV?$basic_string@DU?$char_traits@D@std@@V?$allocator@D@2@@std@@@std@@PAX@1@ABH@Z 00416520 f i cTED.obj
 0001:000155e0       ??$_Ptr_move_cat@GG@std@@YA?AU_Really_trivial_ptr_iterator_tag@0@ABQAG0@Z 004165e0 f i cTED.obj
 0001:00015610       ??$_Rechecked@PAGPAG@std@@YAAAPAGAAPAGPAG@Z 00416610 f i cTED.obj
 0001:00015640       ??$_Try_emplace@ABH$$V@?$map@HV?$basic_string@DU?$char_traits@D@std@@V?$allocator@D@2@@std@@U?$less@H@2@V?$allocator@U?$pair@$$CBHV?$basic_string@DU?$char_traits@D@std@@V?$allocator@D@2@@std@@@std@@@2@@std@@QAE?AU?$pair@V?$_Tree_iterator@V?$_Tree_val@U?$_Tree_simple_types@U?$pair@$$CBHV?$basic_string@DU?$char_traits@D@std@@V?$allocator@D@2@@std@@@std@@@std@@@std@@@std@@_N@1@ABH@Z 00416640 f i cTED.obj
 0001:000158e0       ??$_Try_emplace@H$$V@?$map@HV?$basic_string@DU?$char_traits@D@std@@V?$allocator@D@2@@std@@U?$less@H@2@V?$allocator@U?$pair@$$CBHV?$basic_string@DU?$char_traits@D@std@@V?$allocator@D@2@@std@@@std@@@2@@std@@QAE?AU?$pair@V?$_Tree_iterator@V?$_Tree_val@U?$_Tree_simple_types@U?$pair@$$CBHV?$basic_string@DU?$char_traits@D@std@@V?$allocator@D@2@@std@@@std@@@std@@@std@@@std@@_N@1@$$QAH@Z 004168e0 f i cTED.obj
 0001:00015b80       ??$_Umove@PAG@?$vector@GV?$allocator@G@std@@@std@@IAEPAGPAG00@Z 00416b80 f i cTED.obj
 0001:00015be0       ??$_Unchecked@PAG@std@@YAPAGPAG@Z 00416be0 f i cTED.obj
 0001:00015c10       ??$_Unfancy@D@std@@YAPADPAD@Z 00416c10 f i cTED.obj
 0001:00015c40       ??$_Unfancy@G@std@@YAPAGPAG@Z 00416c40 f i cTED.obj
 0001:00015c70       ??$_Uninitialized_move@PAGPAGV?$allocator@G@std@@@std@@YAPAGPAG00AAU?$_Wrap_alloc@V?$allocator@G@std@@@0@@Z 00416c70 f i cTED.obj
 0001:00015cf0       ??$_Uninitialized_move_al_unchecked1@GGV?$allocator@G@std@@@std@@YAPAGPAG00AAU?$_Wrap_alloc@V?$allocator@G@std@@@0@U_Really_trivial_ptr_iterator_tag@0@U?$integral_constant@_N$00@0@@Z 00416cf0 f i cTED.obj
 0001:00015d40       ??$_Uninitialized_move_al_unchecked@PAGPAGV?$allocator@G@std@@@std@@YAPAGPAG00AAU?$_Wrap_alloc@V?$allocator@G@std@@@0@@Z 00416d40 f i cTED.obj
 0001:00015db0       ??$addressof@$$CBG@std@@YAPBGABG@Z 00416db0 f i cTED.obj
 0001:00015de0       ??$addressof@PAD@std@@YAPAPADAAPAD@Z 00416de0 f i cTED.obj
 0001:00015e10       ??$addressof@PAU?$_Tree_node@U?$pair@$$CBHV?$basic_string@DU?$char_traits@D@std@@V?$allocator@D@2@@std@@@std@@PAX@std@@@std@@YAPAPAU?$_Tree_node@U?$pair@$$CBHV?$basic_string@DU?$char_traits@D@std@@V?$allocator@D@2@@std@@@std@@PAX@0@AAPAU10@@Z 00416e10 f i cTED.obj
 0001:00015e40       ??$addressof@U?$pair@$$CBHV?$basic_string@DU?$char_traits@D@std@@V?$allocator@D@2@@std@@@std@@@std@@YAPAU?$pair@$$CBHV?$basic_string@DU?$char_traits@D@std@@V?$allocator@D@2@@std@@@0@AAU10@@Z 00416e40 f i cTED.obj
 0001:00015e70       ??$construct@GAAG@?$_Wrap_alloc@V?$allocator@G@std@@@std@@QAEXPAGAAG@Z 00416e70 f i cTED.obj
 0001:00015ed0       ??$construct@GAAG@?$allocator@G@std@@QAEXPAGAAG@Z 00416ed0 f i cTED.obj
 0001:00015f60       ??$construct@GAAG@?$allocator_traits@V?$allocator@G@std@@@std@@SAXAAV?$allocator@G@1@PAGAAG@Z 00416f60 f i cTED.obj
 0001:00015fb0       ??$construct@GABG@?$_Wrap_alloc@V?$allocator@G@std@@@std@@QAEXPAGABG@Z 00416fb0 f i cTED.obj
 0001:00016010       ??$construct@GABG@?$allocator@G@std@@QAEXPAGABG@Z 00417010 f i cTED.obj
 0001:000160a0       ??$construct@GABG@?$allocator_traits@V?$allocator@G@std@@@std@@SAXAAV?$allocator@G@1@PAGABG@Z 004170a0 f i cTED.obj
 0001:000160f0       ??$construct@PADAAPAD@?$_Wrap_alloc@V?$allocator@D@std@@@std@@QAEXPAPADAAPAD@Z 004170f0 f i cTED.obj
 0001:00016150       ??$construct@PADAAPAD@?$allocator@D@std@@QAEXPAPADAAPAD@Z 00417150 f i cTED.obj
 0001:000161e0       ??$construct@PADAAPAD@?$allocator_traits@V?$allocator@D@std@@@std@@SAXAAV?$allocator@D@1@PAPADAAPAD@Z 004171e0 f i cTED.obj
 0001:00016230       ??$construct@PAU?$_Tree_node@U?$pair@$$CBHV?$basic_string@DU?$char_traits@D@std@@V?$allocator@D@2@@std@@@std@@PAX@std@@AAPAU12@@?$_Wrap_alloc@V?$allocator@U?$_Tree_node@U?$pair@$$CBHV?$basic_string@DU?$char_traits@D@std@@V?$allocator@D@2@@std@@@std@@PAX@std@@@std@@@std@@QAEXPAPAU?$_Tree_node@U?$pair@$$CBHV?$basic_string@DU?$char_traits@D@std@@V?$allocator@D@2@@std@@@std@@PAX@1@AAPAU21@@Z 00417230 f i cTED.obj
 0001:00016290       ??$construct@PAU?$_Tree_node@U?$pair@$$CBHV?$basic_string@DU?$char_traits@D@std@@V?$allocator@D@2@@std@@@std@@PAX@std@@AAPAU12@@?$allocator@U?$_Tree_node@U?$pair@$$CBHV?$basic_string@DU?$char_traits@D@std@@V?$allocator@D@2@@std@@@std@@PAX@std@@@std@@QAEXPAPAU?$_Tree_node@U?$pair@$$CBHV?$basic_string@DU?$char_traits@D@std@@V?$allocator@D@2@@std@@@std@@PAX@1@AAPAU21@@Z 00417290 f i cTED.obj
 0001:00016320       ??$construct@PAU?$_Tree_node@U?$pair@$$CBHV?$basic_string@DU?$char_traits@D@std@@V?$allocator@D@2@@std@@@std@@PAX@std@@AAPAU12@@?$allocator_traits@V?$allocator@U?$_Tree_node@U?$pair@$$CBHV?$basic_string@DU?$char_traits@D@std@@V?$allocator@D@2@@std@@@std@@PAX@std@@@std@@@std@@SAXAAV?$allocator@U?$_Tree_node@U?$pair@$$CBHV?$basic_string@DU?$char_traits@D@std@@V?$allocator@D@2@@std@@@std@@PAX@std@@@1@PAPAU?$_Tree_node@U?$pair@$$CBHV?$basic_string@DU?$char_traits@D@std@@V?$allocator@D@2@@std@@@std@@PAX@1@AAPAU31@@Z 00417320 f i cTED.obj
 0001:00016370       ??$construct@U?$pair@$$CBHV?$basic_string@DU?$char_traits@D@std@@V?$allocator@D@2@@std@@@std@@ABUpiecewise_construct_t@2@V?$tuple@$$QAH@2@V?$tuple@$$V@2@@?$_Wrap_alloc@V?$allocator@U?$_Tree_node@U?$pair@$$CBHV?$basic_string@DU?$char_traits@D@std@@V?$allocator@D@2@@std@@@std@@PAX@std@@@std@@@std@@QAEXPAU?$pair@$$CBHV?$basic_string@DU?$char_traits@D@std@@V?$allocator@D@2@@std@@@1@ABUpiecewise_construct_t@1@$$QAV?$tuple@$$QAH@1@$$QAV?$tuple@$$V@1@@Z 00417370 f i cTED.obj
 0001:000163e0       ??$construct@U?$pair@$$CBHV?$basic_string@DU?$char_traits@D@std@@V?$allocator@D@2@@std@@@std@@ABUpiecewise_construct_t@2@V?$tuple@$$QAH@2@V?$tuple@$$V@2@@?$allocator@U?$_Tree_node@U?$pair@$$CBHV?$basic_string@DU?$char_traits@D@std@@V?$allocator@D@2@@std@@@std@@PAX@std@@@std@@QAEXPAU?$pair@$$CBHV?$basic_string@DU?$char_traits@D@std@@V?$allocator@D@2@@std@@@1@ABUpiecewise_construct_t@1@$$QAV?$tuple@$$QAH@1@$$QAV?$tuple@$$V@1@@Z 004173e0 f i cTED.obj
 0001:000164e0       ??$construct@U?$pair@$$CBHV?$basic_string@DU?$char_traits@D@std@@V?$allocator@D@2@@std@@@std@@ABUpiecewise_construct_t@2@V?$tuple@$$QAH@2@V?$tuple@$$V@2@@?$allocator_traits@V?$allocator@U?$_Tree_node@U?$pair@$$CBHV?$basic_string@DU?$char_traits@D@std@@V?$allocator@D@2@@std@@@std@@PAX@std@@@std@@@std@@SAXAAV?$allocator@U?$_Tree_node@U?$pair@$$CBHV?$basic_string@DU?$char_traits@D@std@@V?$allocator@D@2@@std@@@std@@PAX@std@@@1@PAU?$pair@$$CBHV?$basic_string@DU?$char_traits@D@std@@V?$allocator@D@2@@std@@@1@ABUpiecewise_construct_t@1@$$QAV?$tuple@$$QAH@1@$$QAV?$tuple@$$V@1@@Z 004174e0 f i cTED.obj
 0001:00016550       ??$construct@U?$pair@$$CBHV?$basic_string@DU?$char_traits@D@std@@V?$allocator@D@2@@std@@@std@@ABUpiecewise_construct_t@2@V?$tuple@ABH@2@V?$tuple@$$V@2@@?$_Wrap_alloc@V?$allocator@U?$_Tree_node@U?$pair@$$CBHV?$basic_string@DU?$char_traits@D@std@@V?$allocator@D@2@@std@@@std@@PAX@std@@@std@@@std@@QAEXPAU?$pair@$$CBHV?$basic_string@DU?$char_traits@D@std@@V?$allocator@D@2@@std@@@1@ABUpiecewise_construct_t@1@$$QAV?$tuple@ABH@1@$$QAV?$tuple@$$V@1@@Z 00417550 f i cTED.obj
 0001:000165c0       ??$construct@U?$pair@$$CBHV?$basic_string@DU?$char_traits@D@std@@V?$allocator@D@2@@std@@@std@@ABUpiecewise_construct_t@2@V?$tuple@ABH@2@V?$tuple@$$V@2@@?$allocator@U?$_Tree_node@U?$pair@$$CBHV?$basic_string@DU?$char_traits@D@std@@V?$allocator@D@2@@std@@@std@@PAX@std@@@std@@QAEXPAU?$pair@$$CBHV?$basic_string@DU?$char_traits@D@std@@V?$allocator@D@2@@std@@@1@ABUpiecewise_construct_t@1@$$QAV?$tuple@ABH@1@$$QAV?$tuple@$$V@1@@Z 004175c0 f i cTED.obj
 0001:000166c0       ??$construct@U?$pair@$$CBHV?$basic_string@DU?$char_traits@D@std@@V?$allocator@D@2@@std@@@std@@ABUpiecewise_construct_t@2@V?$tuple@ABH@2@V?$tuple@$$V@2@@?$allocator_traits@V?$allocator@U?$_Tree_node@U?$pair@$$CBHV?$basic_string@DU?$char_traits@D@std@@V?$allocator@D@2@@std@@@std@@PAX@std@@@std@@@std@@SAXAAV?$allocator@U?$_Tree_node@U?$pair@$$CBHV?$basic_string@DU?$char_traits@D@std@@V?$allocator@D@2@@std@@@std@@PAX@std@@@1@PAU?$pair@$$CBHV?$basic_string@DU?$char_traits@D@std@@V?$allocator@D@2@@std@@@1@ABUpiecewise_construct_t@1@$$QAV?$tuple@ABH@1@$$QAV?$tuple@$$V@1@@Z 004176c0 f i cTED.obj
 0001:00016730       ??$destroy@PAD@?$_Wrap_alloc@V?$allocator@D@std@@@std@@QAEXPAPAD@Z 00417730 f i cTED.obj
 0001:00016780       ??$destroy@PAD@?$allocator@D@std@@QAEXPAPAD@Z 00417780 f i cTED.obj
 0001:000167b0       ??$destroy@PAD@?$allocator_traits@V?$allocator@D@std@@@std@@SAXAAV?$allocator@D@1@PAPAD@Z 004177b0 f i cTED.obj
 0001:000167f0       ??$destroy@PAU?$_Tree_node@U?$pair@$$CBHV?$basic_string@DU?$char_traits@D@std@@V?$allocator@D@2@@std@@@std@@PAX@std@@@?$_Wrap_alloc@V?$allocator@U?$_Tree_node@U?$pair@$$CBHV?$basic_string@DU?$char_traits@D@std@@V?$allocator@D@2@@std@@@std@@PAX@std@@@std@@@std@@QAEXPAPAU?$_Tree_node@U?$pair@$$CBHV?$basic_string@DU?$char_traits@D@std@@V?$allocator@D@2@@std@@@std@@PAX@1@@Z 004177f0 f i cTED.obj
 0001:00016840       ??$destroy@PAU?$_Tree_node@U?$pair@$$CBHV?$basic_string@DU?$char_traits@D@std@@V?$allocator@D@2@@std@@@std@@PAX@std@@@?$allocator@U?$_Tree_node@U?$pair@$$CBHV?$basic_string@DU?$char_traits@D@std@@V?$allocator@D@2@@std@@@std@@PAX@std@@@std@@QAEXPAPAU?$_Tree_node@U?$pair@$$CBHV?$basic_string@DU?$char_traits@D@std@@V?$allocator@D@2@@std@@@std@@PAX@1@@Z 00417840 f i cTED.obj
 0001:00016870       ??$destroy@PAU?$_Tree_node@U?$pair@$$CBHV?$basic_string@DU?$char_traits@D@std@@V?$allocator@D@2@@std@@@std@@PAX@std@@@?$allocator_traits@V?$allocator@U?$_Tree_node@U?$pair@$$CBHV?$basic_string@DU?$char_traits@D@std@@V?$allocator@D@2@@std@@@std@@PAX@std@@@std@@@std@@SAXAAV?$allocator@U?$_Tree_node@U?$pair@$$CBHV?$basic_string@DU?$char_traits@D@std@@V?$allocator@D@2@@std@@@std@@PAX@std@@@1@PAPAU?$_Tree_node@U?$pair@$$CBHV?$basic_string@DU?$char_traits@D@std@@V?$allocator@D@2@@std@@@std@@PAX@1@@Z 00417870 f i cTED.obj
 0001:000168b0       ??$destroy@U?$pair@$$CBHV?$basic_string@DU?$char_traits@D@std@@V?$allocator@D@2@@std@@@std@@@?$_Wrap_alloc@V?$allocator@U?$_Tree_node@U?$pair@$$CBHV?$basic_string@DU?$char_traits@D@std@@V?$allocator@D@2@@std@@@std@@PAX@std@@@std@@@std@@QAEXPAU?$pair@$$CBHV?$basic_string@DU?$char_traits@D@std@@V?$allocator@D@2@@std@@@1@@Z 004178b0 f i cTED.obj
 0001:00016900       ??$destroy@U?$pair@$$CBHV?$basic_string@DU?$char_traits@D@std@@V?$allocator@D@2@@std@@@std@@@?$allocator@U?$_Tree_node@U?$pair@$$CBHV?$basic_string@DU?$char_traits@D@std@@V?$allocator@D@2@@std@@@std@@PAX@std@@@std@@QAEXPAU?$pair@$$CBHV?$basic_string@DU?$char_traits@D@std@@V?$allocator@D@2@@std@@@1@@Z 00417900 f i cTED.obj
 0001:00016950       ??$destroy@U?$pair@$$CBHV?$basic_string@DU?$char_traits@D@std@@V?$allocator@D@2@@std@@@std@@@?$allocator_traits@V?$allocator@U?$_Tree_node@U?$pair@$$CBHV?$basic_string@DU?$char_traits@D@std@@V?$allocator@D@2@@std@@@std@@PAX@std@@@std@@@std@@SAXAAV?$allocator@U?$_Tree_node@U?$pair@$$CBHV?$basic_string@DU?$char_traits@D@std@@V?$allocator@D@2@@std@@@std@@PAX@std@@@1@PAU?$pair@$$CBHV?$basic_string@DU?$char_traits@D@std@@V?$allocator@D@2@@std@@@1@@Z 00417950 f i cTED.obj
 0001:00016990       ??$distance@V?$_Tree_const_iterator@V?$_Tree_val@U?$_Tree_simple_types@U?$pair@$$CBHV?$basic_string@DU?$char_traits@D@std@@V?$allocator@D@2@@std@@@std@@@std@@@std@@@std@@@std@@YAHV?$_Tree_const_iterator@V?$_Tree_val@U?$_Tree_simple_types@U?$pair@$$CBHV?$basic_string@DU?$char_traits@D@std@@V?$allocator@D@2@@std@@@std@@@std@@@std@@@0@0@Z 00417990 f i cTED.obj
 0001:00016a90       ??$emplace_hint@ABUpiecewise_construct_t@std@@V?$tuple@$$QAH@2@V?$tuple@$$V@2@@?$_Tree@V?$_Tmap_traits@HV?$basic_string@DU?$char_traits@D@std@@V?$allocator@D@2@@std@@U?$less@H@2@V?$allocator@U?$pair@$$CBHV?$basic_string@DU?$char_traits@D@std@@V?$allocator@D@2@@std@@@std@@@2@$0A@@std@@@std@@QAE?AV?$_Tree_iterator@V?$_Tree_val@U?$_Tree_simple_types@U?$pair@$$CBHV?$basic_string@DU?$char_traits@D@std@@V?$allocator@D@2@@std@@@std@@@std@@@std@@@1@V?$_Tree_const_iterator@V?$_Tree_val@U?$_Tree_simple_types@U?$pair@$$CBHV?$basic_string@DU?$char_traits@D@std@@V?$allocator@D@2@@std@@@std@@@std@@@std@@@1@ABUpiecewise_construct_t@1@$$QAV?$tuple@$$QAH@1@$$QAV?$tuple@$$V@1@@Z 00417a90 f i cTED.obj
 0001:00016ba0       ??$emplace_hint@ABUpiecewise_construct_t@std@@V?$tuple@ABH@2@V?$tuple@$$V@2@@?$_Tree@V?$_Tmap_traits@HV?$basic_string@DU?$char_traits@D@std@@V?$allocator@D@2@@std@@U?$less@H@2@V?$allocator@U?$pair@$$CBHV?$basic_string@DU?$char_traits@D@std@@V?$allocator@D@2@@std@@@std@@@2@$0A@@std@@@std@@QAE?AV?$_Tree_iterator@V?$_Tree_val@U?$_Tree_simple_types@U?$pair@$$CBHV?$basic_string@DU?$char_traits@D@std@@V?$allocator@D@2@@std@@@std@@@std@@@std@@@1@V?$_Tree_const_iterator@V?$_Tree_val@U?$_Tree_simple_types@U?$pair@$$CBHV?$basic_string@DU?$char_traits@D@std@@V?$allocator@D@2@@std@@@std@@@std@@@std@@@1@ABUpiecewise_construct_t@1@$$QAV?$tuple@ABH@1@$$QAV?$tuple@$$V@1@@Z 00417ba0 f i cTED.obj
 0001:00016cb0       ??$forward@$$QAH@std@@YA$$QAHAAH@Z 00417cb0 f i cTED.obj
 0001:00016ce0       ??$forward@AAG@std@@YAAAGAAG@Z 00417ce0 f i cTED.obj
 0001:00016d10       ??$forward@AAPAD@std@@YAAAPADAAPAD@Z 00417d10 f i cTED.obj
 0001:00016d40       ??$forward@AAPAU?$_Tree_node@U?$pair@$$CBHV?$basic_string@DU?$char_traits@D@std@@V?$allocator@D@2@@std@@@std@@PAX@std@@@std@@YAAAPAU?$_Tree_node@U?$pair@$$CBHV?$basic_string@DU?$char_traits@D@std@@V?$allocator@D@2@@std@@@std@@PAX@0@AAPAU10@@Z 00417d40 f i cTED.obj
 0001:00016d70       ??$forward@AAU?$_Wrap_alloc@V?$allocator@D@std@@@std@@@std@@YAAAU?$_Wrap_alloc@V?$allocator@D@std@@@0@AAU10@@Z 00417d70 f i cTED.obj
 0001:00016da0       ??$forward@AAU?$_Wrap_alloc@V?$allocator@G@std@@@std@@@std@@YAAAU?$_Wrap_alloc@V?$allocator@G@std@@@0@AAU10@@Z 00417da0 f i cTED.obj
 0001:00016dd0       ??$forward@AAU?$_Wrap_alloc@V?$allocator@U?$_Tree_node@U?$pair@$$CBHV?$basic_string@DU?$char_traits@D@std@@V?$allocator@D@2@@std@@@std@@PAX@std@@@std@@@std@@@std@@YAAAU?$_Wrap_alloc@V?$allocator@U?$_Tree_node@U?$pair@$$CBHV?$basic_string@DU?$char_traits@D@std@@V?$allocator@D@2@@std@@@std@@PAX@std@@@std@@@0@AAU10@@Z 00417dd0 f i cTED.obj
 0001:00016e00       ??$forward@AAU?$pair@$$CBHV?$basic_string@DU?$char_traits@D@std@@V?$allocator@D@2@@std@@@std@@@std@@YAAAU?$pair@$$CBHV?$basic_string@DU?$char_traits@D@std@@V?$allocator@D@2@@std@@@0@AAU10@@Z 00417e00 f i cTED.obj
 0001:00016e30       ??$forward@AAV?$_Tree_const_iterator@V?$_Tree_val@U?$_Tree_simple_types@U?$pair@$$CBHV?$basic_string@DU?$char_traits@D@std@@V?$allocator@D@2@@std@@@std@@@std@@@std@@@std@@@std@@YAAAV?$_Tree_const_iterator@V?$_Tree_val@U?$_Tree_simple_types@U?$pair@$$CBHV?$basic_string@DU?$char_traits@D@std@@V?$allocator@D@2@@std@@@std@@@std@@@std@@@0@AAV10@@Z 00417e30 f i cTED.obj
 0001:00016e60       ??$forward@AAV?$_Tree_iterator@V?$_Tree_val@U?$_Tree_simple_types@U?$pair@$$CBHV?$basic_string@DU?$char_traits@D@std@@V?$allocator@D@2@@std@@@std@@@std@@@std@@@std@@@std@@YAAAV?$_Tree_iterator@V?$_Tree_val@U?$_Tree_simple_types@U?$pair@$$CBHV?$basic_string@DU?$char_traits@D@std@@V?$allocator@D@2@@std@@@std@@@std@@@std@@@0@AAV10@@Z 00417e60 f i cTED.obj
 0001:00016e90       ??$forward@ABG@std@@YAABGABG@Z 00417e90 f i cTED.obj
 0001:00016ec0       ??$forward@ABU?$less@H@std@@@std@@YAABU?$less@H@0@ABU10@@Z 00417ec0 f i cTED.obj
 0001:00016ef0       ??$forward@H@std@@YA$$QAHAAH@Z 00417ef0 f i cTED.obj
 0001:00016f20       ??$forward@U?$_Wrap_alloc@V?$allocator@D@std@@@std@@@std@@YA$$QAU?$_Wrap_alloc@V?$allocator@D@std@@@0@AAU10@@Z 00417f20 f i cTED.obj
 0001:00016f50       ??$forward@V?$_Tree_iterator@V?$_Tree_val@U?$_Tree_simple_types@U?$pair@$$CBHV?$basic_string@DU?$char_traits@D@std@@V?$allocator@D@2@@std@@@std@@@std@@@std@@@std@@@std@@YA$$QAV?$_Tree_iterator@V?$_Tree_val@U?$_Tree_simple_types@U?$pair@$$CBHV?$basic_string@DU?$char_traits@D@std@@V?$allocator@D@2@@std@@@std@@@std@@@std@@@0@AAV10@@Z 00417f50 f i cTED.obj
 0001:00016f80       ??$forward@V?$allocator@D@std@@@std@@YA$$QAV?$allocator@D@0@AAV10@@Z 00417f80 f i cTED.obj
 0001:00016fb0       ??$forward@V?$tuple@$$QAH@std@@@std@@YA$$QAV?$tuple@$$QAH@0@AAV10@@Z 00417fb0 f i cTED.obj
 0001:00016fe0       ??$forward_as_tuple@H@std@@YA?AV?$tuple@$$QAH@0@$$QAH@Z 00417fe0 f i cTED.obj
 0001:00017060       ??$get@$0A@$$QAH@std@@YA$$QAH$$QAV?$tuple@$$QAH@0@@Z 00418060 f i cTED.obj
 0001:000170a0       ??$move@AAD@std@@YA$$QADAAD@Z 004180a0 f i cTED.obj
 0001:000170d0       ??$move@AAH@std@@YA$$QAHAAH@Z 004180d0 f i cTED.obj
 0001:00017100       ??$move@AAU?$_Wrap_alloc@V?$allocator@D@std@@@std@@@std@@YA$$QAU?$_Wrap_alloc@V?$allocator@D@std@@@0@AAU10@@Z 00418100 f i cTED.obj
 0001:00017130       ??$move@AAV?$tuple@$$QAH@std@@@std@@YA$$QAV?$tuple@$$QAH@0@AAV10@@Z 00418130 f i cTED.obj
 0001:00017160       ??$swap@DX@std@@YAXAAD0@Z  00418160 f i cTED.obj
 0001:00017200       ??$try_emplace@$$V@?$map@HV?$basic_string@DU?$char_traits@D@std@@V?$allocator@D@2@@std@@U?$less@H@2@V?$allocator@U?$pair@$$CBHV?$basic_string@DU?$char_traits@D@std@@V?$allocator@D@2@@std@@@std@@@2@@std@@QAE?AU?$pair@V?$_Tree_iterator@V?$_Tree_val@U?$_Tree_simple_types@U?$pair@$$CBHV?$basic_string@DU?$char_traits@D@std@@V?$allocator@D@2@@std@@@std@@@std@@@std@@@std@@_N@1@$$QAH@Z 00418200 f i cTED.obj
 0001:00017270       ??$try_emplace@$$V@?$map@HV?$basic_string@DU?$char_traits@D@std@@V?$allocator@D@2@@std@@U?$less@H@2@V?$allocator@U?$pair@$$CBHV?$basic_string@DU?$char_traits@D@std@@V?$allocator@D@2@@std@@@std@@@2@@std@@QAE?AU?$pair@V?$_Tree_iterator@V?$_Tree_val@U?$_Tree_simple_types@U?$pair@$$CBHV?$basic_string@DU?$char_traits@D@std@@V?$allocator@D@2@@std@@@std@@@std@@@std@@@std@@_N@1@ABH@Z 00418270 f i cTED.obj
 0001:000172e0       ??0?$_Iterator012@Ubidirectional_iterator_tag@std@@U?$pair@$$CBHV?$basic_string@DU?$char_traits@D@std@@V?$allocator@D@2@@std@@@2@HPBU32@ABU32@U_Iterator_base12@2@@std@@QAE@$$QAU01@@Z 004182e0 f i cTED.obj
 0001:00017330       ??0?$_Iterator012@Ubidirectional_iterator_tag@std@@U?$pair@$$CBHV?$basic_string@DU?$char_traits@D@std@@V?$allocator@D@2@@std@@@2@HPBU32@ABU32@U_Iterator_base12@2@@std@@QAE@ABU01@@Z 00418330 f i cTED.obj
 0001:00017380       ??0?$_Iterator012@Ubidirectional_iterator_tag@std@@U?$pair@$$CBHV?$basic_string@DU?$char_traits@D@std@@V?$allocator@D@2@@std@@@2@HPBU32@ABU32@U_Iterator_base12@2@@std@@QAE@XZ 00418380 f i cTED.obj
 0001:000173d0       ??0?$_String_alloc@U?$_String_base_types@DV?$allocator@D@std@@@std@@@std@@QAE@XZ 004183d0 f i cTED.obj
 0001:00017460       ??0?$_String_val@U?$_Simple_types@D@std@@@std@@QAE@XZ 00418460 f i cTED.obj
 0001:00017500       ??0?$_Tree@V?$_Tmap_traits@HV?$basic_string@DU?$char_traits@D@std@@V?$allocator@D@2@@std@@U?$less@H@2@V?$allocator@U?$pair@$$CBHV?$basic_string@DU?$char_traits@D@std@@V?$allocator@D@2@@std@@@std@@@2@$0A@@std@@@std@@QAE@ABU?$less@H@1@@Z 00418500 f i cTED.obj
 0001:00017550       ??0?$_Tree_comp_alloc@V?$_Tmap_traits@HV?$basic_string@DU?$char_traits@D@std@@V?$allocator@D@2@@std@@U?$less@H@2@V?$allocator@U?$pair@$$CBHV?$basic_string@DU?$char_traits@D@std@@V?$allocator@D@2@@std@@@std@@@2@$0A@@std@@@std@@QAE@ABU?$less@H@1@@Z 00418550 f i cTED.obj
 0001:000175f0       ??0?$_Tree_const_iterator@V?$_Tree_val@U?$_Tree_simple_types@U?$pair@$$CBHV?$basic_string@DU?$char_traits@D@std@@V?$allocator@D@2@@std@@@std@@@std@@@std@@@std@@QAE@$$QAV01@@Z 004185f0 f i cTED.obj
 0001:00017640       ??0?$_Tree_const_iterator@V?$_Tree_val@U?$_Tree_simple_types@U?$pair@$$CBHV?$basic_string@DU?$char_traits@D@std@@V?$allocator@D@2@@std@@@std@@@std@@@std@@@std@@QAE@ABV01@@Z 00418640 f i cTED.obj
 0001:00017690       ??0?$_Tree_const_iterator@V?$_Tree_val@U?$_Tree_simple_types@U?$pair@$$CBHV?$basic_string@DU?$char_traits@D@std@@V?$allocator@D@2@@std@@@std@@@std@@@std@@@std@@QAE@PAU?$_Tree_node@U?$pair@$$CBHV?$basic_string@DU?$char_traits@D@std@@V?$allocator@D@2@@std@@@std@@PAX@1@PBV?$_Tree_val@U?$_Tree_simple_types@U?$pair@$$CBHV?$basic_string@DU?$char_traits@D@std@@V?$allocator@D@2@@std@@@std@@@std@@@1@@Z 00418690 f i cTED.obj
 0001:000176e0       ??0?$_Tree_const_iterator@V?$_Tree_val@U?$_Tree_simple_types@U?$pair@$$CBHV?$basic_string@DU?$char_traits@D@std@@V?$allocator@D@2@@std@@@std@@@std@@@std@@@std@@QAE@XZ 004186e0 f i cTED.obj
 0001:00017730       ??0?$_Tree_iterator@V?$_Tree_val@U?$_Tree_simple_types@U?$pair@$$CBHV?$basic_string@DU?$char_traits@D@std@@V?$allocator@D@2@@std@@@std@@@std@@@std@@@std@@QAE@$$QAV01@@Z 00418730 f i cTED.obj
 0001:00017780       ??0?$_Tree_iterator@V?$_Tree_val@U?$_Tree_simple_types@U?$pair@$$CBHV?$basic_string@DU?$char_traits@D@std@@V?$allocator@D@2@@std@@@std@@@std@@@std@@@std@@QAE@ABV01@@Z 00418780 f i cTED.obj
 0001:000177d0       ??0?$_Tree_iterator@V?$_Tree_val@U?$_Tree_simple_types@U?$pair@$$CBHV?$basic_string@DU?$char_traits@D@std@@V?$allocator@D@2@@std@@@std@@@std@@@std@@@std@@QAE@PAU?$_Tree_node@U?$pair@$$CBHV?$basic_string@DU?$char_traits@D@std@@V?$allocator@D@2@@std@@@std@@PAX@1@PBV?$_Tree_val@U?$_Tree_simple_types@U?$pair@$$CBHV?$basic_string@DU?$char_traits@D@std@@V?$allocator@D@2@@std@@@std@@@std@@@1@@Z 004187d0 f i cTED.obj
 0001:00017820       ??0?$_Tree_unchecked_const_iterator@V?$_Tree_val@U?$_Tree_simple_types@U?$pair@$$CBHV?$basic_string@DU?$char_traits@D@std@@V?$allocator@D@2@@std@@@std@@@std@@@std@@U_Iterator_base12@2@@std@@QAE@$$QAV01@@Z 00418820 f i cTED.obj
 0001:00017880       ??0?$_Tree_unchecked_const_iterator@V?$_Tree_val@U?$_Tree_simple_types@U?$pair@$$CBHV?$basic_string@DU?$char_traits@D@std@@V?$allocator@D@2@@std@@@std@@@std@@@std@@U_Iterator_base12@2@@std@@QAE@ABV01@@Z 00418880 f i cTED.obj
 0001:000178e0       ??0?$_Tree_unchecked_const_iterator@V?$_Tree_val@U?$_Tree_simple_types@U?$pair@$$CBHV?$basic_string@DU?$char_traits@D@std@@V?$allocator@D@2@@std@@@std@@@std@@@std@@U_Iterator_base12@2@@std@@QAE@PAU?$_Tree_node@U?$pair@$$CBHV?$basic_string@DU?$char_traits@D@std@@V?$allocator@D@2@@std@@@std@@PAX@1@PBV?$_Tree_val@U?$_Tree_simple_types@U?$pair@$$CBHV?$basic_string@DU?$char_traits@D@std@@V?$allocator@D@2@@std@@@std@@@std@@@1@@Z 004188e0 f i cTED.obj
 0001:00017980       ??0?$_Tree_unchecked_const_iterator@V?$_Tree_val@U?$_Tree_simple_types@U?$pair@$$CBHV?$basic_string@DU?$char_traits@D@std@@V?$allocator@D@2@@std@@@std@@@std@@@std@@U_Iterator_base12@2@@std@@QAE@XZ 00418980 f i cTED.obj
 0001:000179d0       ??0?$_Tree_val@U?$_Tree_simple_types@U?$pair@$$CBHV?$basic_string@DU?$char_traits@D@std@@V?$allocator@D@2@@std@@@std@@@std@@@std@@QAE@XZ 004189d0 f i cTED.obj
 0001:00017a30       ??0?$_Vector_alloc@U?$_Vec_base_types@GV?$allocator@G@std@@@std@@@std@@QAE@XZ 00418a30 f i cTED.obj
 0001:00017ac0       ??0?$_Vector_val@U?$_Simple_types@G@std@@@std@@QAE@XZ 00418ac0 f i cTED.obj
 0001:00017b20       ??0?$_Wrap_alloc@V?$allocator@D@std@@@std@@QAE@$$QAU01@@Z 00418b20 f i cTED.obj
 0001:00017b80       ??0?$_Wrap_alloc@V?$allocator@D@std@@@std@@QAE@XZ 00418b80 f i cTED.obj
 0001:00017bd0       ??0?$_Wrap_alloc@V?$allocator@G@std@@@std@@QAE@XZ 00418bd0 f i cTED.obj
 0001:00017c20       ??0?$_Wrap_alloc@V?$allocator@U?$_Tree_node@U?$pair@$$CBHV?$basic_string@DU?$char_traits@D@std@@V?$allocator@D@2@@std@@@std@@PAX@std@@@std@@@std@@QAE@XZ 00418c20 f i cTED.obj
 0001:00017c70       ??0?$allocator@D@std@@QAE@ABV01@@Z 00418c70 f i cTED.obj
 0001:00017ca0       ??0?$allocator@D@std@@QAE@XZ 00418ca0 f i cTED.obj
 0001:00017cd0       ??0?$allocator@G@std@@QAE@XZ 00418cd0 f i cTED.obj
 0001:00017d00       ??0?$allocator@U?$_Tree_node@U?$pair@$$CBHV?$basic_string@DU?$char_traits@D@std@@V?$allocator@D@2@@std@@@std@@PAX@std@@@std@@QAE@XZ 00418d00 f i cTED.obj
 0001:00017d30       ??0?$basic_string@DU?$char_traits@D@std@@V?$allocator@D@2@@std@@QAE@ABV01@@Z 00418d30 f i cTED.obj
 0001:00017df0       ??0?$basic_string@DU?$char_traits@D@std@@V?$allocator@D@2@@std@@QAE@PBD@Z 00418df0 f i cTED.obj
 0001:00017e90       ??0?$basic_string@DU?$char_traits@D@std@@V?$allocator@D@2@@std@@QAE@XZ 00418e90 f i cTED.obj
 0001:00017f10       ??0?$map@HV?$basic_string@DU?$char_traits@D@std@@V?$allocator@D@2@@std@@U?$less@H@2@V?$allocator@U?$pair@$$CBHV?$basic_string@DU?$char_traits@D@std@@V?$allocator@D@2@@std@@@std@@@2@@std@@QAE@XZ 00418f10 f i cTED.obj
 0001:00017f60       ??0?$tuple@$$QAH@std@@QAE@$$QAV01@@Z 00418f60 f i cTED.obj
 0001:00017fc0       ??0?$vector@GV?$allocator@G@std@@@std@@QAE@XZ 00418fc0 f i cTED.obj
 0001:00018030       ??0MetroidTextEditor@@QAE@XZ 00419030 f   cTED.obj
 0001:000180f0       ??0_Bxty@?$_String_val@U?$_Simple_types@D@std@@@std@@QAE@XZ 004190f0 f i cTED.obj
 0001:00018120       ??1?$_Compressed_pair@U?$_Wrap_alloc@V?$allocator@D@std@@@std@@V?$_String_val@U?$_Simple_types@D@std@@@2@$00@std@@QAE@XZ 00419120 f i cTED.obj
 0001:00018160       ??1?$_Compressed_pair@U?$_Wrap_alloc@V?$allocator@G@std@@@std@@V?$_Vector_val@U?$_Simple_types@G@std@@@2@$00@std@@QAE@XZ 00419160 f i cTED.obj
 0001:000181a0       ??1?$_Compressed_pair@U?$_Wrap_alloc@V?$allocator@U?$_Tree_node@U?$pair@$$CBHV?$basic_string@DU?$char_traits@D@std@@V?$allocator@D@2@@std@@@std@@PAX@std@@@std@@@std@@V?$_Tree_val@U?$_Tree_simple_types@U?$pair@$$CBHV?$basic_string@DU?$char_traits@D@std@@V?$allocator@D@2@@std@@@std@@@std@@@2@$00@std@@QAE@XZ 004191a0 f i cTED.obj
 0001:000181e0       ??1?$_Compressed_pair@U?$less@H@std@@V?$_Compressed_pair@U?$_Wrap_alloc@V?$allocator@U?$_Tree_node@U?$pair@$$CBHV?$basic_string@DU?$char_traits@D@std@@V?$allocator@D@2@@std@@@std@@PAX@std@@@std@@@std@@V?$_Tree_val@U?$_Tree_simple_types@U?$pair@$$CBHV?$basic_string@DU?$char_traits@D@std@@V?$allocator@D@2@@std@@@std@@@std@@@2@$00@2@$00@std@@QAE@XZ 004191e0 f i cTED.obj
 0001:00018220       ??1?$_Iterator012@Ubidirectional_iterator_tag@std@@U?$pair@$$CBHV?$basic_string@DU?$char_traits@D@std@@V?$allocator@D@2@@std@@@2@HPBU32@ABU32@U_Iterator_base12@2@@std@@QAE@XZ 00419220 f i cTED.obj
 0001:00018260       ??1?$_String_alloc@U?$_String_base_types@DV?$allocator@D@std@@@std@@@std@@QAE@XZ 00419260 f i cTED.obj
 0001:000182e0       ??1?$_String_val@U?$_Simple_types@D@std@@@std@@QAE@XZ 004192e0 f i cTED.obj
 0001:00018330       ??1?$_Tree@V?$_Tmap_traits@HV?$basic_string@DU?$char_traits@D@std@@V?$allocator@D@2@@std@@U?$less@H@2@V?$allocator@U?$pair@$$CBHV?$basic_string@DU?$char_traits@D@std@@V?$allocator@D@2@@std@@@std@@@2@$0A@@std@@@std@@QAE@XZ 00419330 f i cTED.obj
 0001:000183b0       ??1?$_Tree_comp_alloc@V?$_Tmap_traits@HV?$basic_string@DU?$char_traits@D@std@@V?$allocator@D@2@@std@@U?$less@H@2@V?$allocator@U?$pair@$$CBHV?$basic_string@DU?$char_traits@D@std@@V?$allocator@D@2@@std@@@std@@@2@$0A@@std@@@std@@QAE@XZ 004193b0 f i cTED.obj
 0001:00018440       ??1?$_Tree_const_iterator@V?$_Tree_val@U?$_Tree_simple_types@U?$pair@$$CBHV?$basic_string@DU?$char_traits@D@std@@V?$allocator@D@2@@std@@@std@@@std@@@std@@@std@@QAE@XZ 00419440 f i cTED.obj
 0001:00018480       ??1?$_Tree_iterator@V?$_Tree_val@U?$_Tree_simple_types@U?$pair@$$CBHV?$basic_string@DU?$char_traits@D@std@@V?$allocator@D@2@@std@@@std@@@std@@@std@@@std@@QAE@XZ 00419480 f i cTED.obj
 0001:000184c0       ??1?$_Tree_unchecked_const_iterator@V?$_Tree_val@U?$_Tree_simple_types@U?$pair@$$CBHV?$basic_string@DU?$char_traits@D@std@@V?$allocator@D@2@@std@@@std@@@std@@@std@@U_Iterator_base12@2@@std@@QAE@XZ 004194c0 f i cTED.obj
 0001:00018500       ??1?$_Tree_val@U?$_Tree_simple_types@U?$pair@$$CBHV?$basic_string@DU?$char_traits@D@std@@V?$allocator@D@2@@std@@@std@@@std@@@std@@QAE@XZ 00419500 f i cTED.obj
 0001:00018540       ??1?$_Vector_val@U?$_Simple_types@G@std@@@std@@QAE@XZ 00419540 f i cTED.obj
 0001:00018580       ??1?$basic_string@DU?$char_traits@D@std@@V?$allocator@D@2@@std@@QAE@XZ 00419580 f i cTED.obj
 0001:00018600       ??1?$map@HV?$basic_string@DU?$char_traits@D@std@@V?$allocator@D@2@@std@@U?$less@H@2@V?$allocator@U?$pair@$$CBHV?$basic_string@DU?$char_traits@D@std@@V?$allocator@D@2@@std@@@std@@@2@@std@@QAE@XZ 00419600 f i cTED.obj
 0001:00018640       ??1?$pair@$$CBHV?$basic_string@DU?$char_traits@D@std@@V?$allocator@D@2@@std@@@std@@QAE@XZ 00419640 f i cTED.obj
 0001:00018690       ??1?$pair@V?$_Tree_const_iterator@V?$_Tree_val@U?$_Tree_simple_types@U?$pair@$$CBHV?$basic_string@DU?$char_traits@D@std@@V?$allocator@D@2@@std@@@std@@@std@@@std@@@std@@V12@@std@@QAE@XZ 00419690 f i cTED.obj
 0001:000186e0       ??1?$pair@V?$_Tree_iterator@V?$_Tree_val@U?$_Tree_simple_types@U?$pair@$$CBHV?$basic_string@DU?$char_traits@D@std@@V?$allocator@D@2@@std@@@std@@@std@@@std@@@std@@_N@std@@QAE@XZ 004196e0 f i cTED.obj
 0001:00018720       ??1MetroidTextEditor@@QAE@XZ 00419720 f   cTED.obj
 0001:00018790       ??1_Bxty@?$_String_val@U?$_Simple_types@D@std@@@std@@QAE@XZ 00419790 f i cTED.obj
 0001:000187c0       ??4?$_Iterator012@Ubidirectional_iterator_tag@std@@U?$pair@$$CBHV?$basic_string@DU?$char_traits@D@std@@V?$allocator@D@2@@std@@@2@HPBU32@ABU32@U_Iterator_base12@2@@std@@QAEAAU01@ABU01@@Z 004197c0 f i cTED.obj
 0001:00018810       ??4?$_Tree_const_iterator@V?$_Tree_val@U?$_Tree_simple_types@U?$pair@$$CBHV?$basic_string@DU?$char_traits@D@std@@V?$allocator@D@2@@std@@@std@@@std@@@std@@@std@@QAEAAV01@ABV01@@Z 00419810 f i cTED.obj
 0001:00018860       ??4?$_Tree_unchecked_const_iterator@V?$_Tree_val@U?$_Tree_simple_types@U?$pair@$$CBHV?$basic_string@DU?$char_traits@D@std@@V?$allocator@D@2@@std@@@std@@@std@@@std@@U_Iterator_base12@2@@std@@QAEAAV01@ABV01@@Z 00419860 f i cTED.obj
 0001:000188c0       ??4?$basic_string@DU?$char_traits@D@std@@V?$allocator@D@2@@std@@QAEAAV01@PBD@Z 004198c0 f i cTED.obj
 0001:00018910       ??8?$_Tree_const_iterator@V?$_Tree_val@U?$_Tree_simple_types@U?$pair@$$CBHV?$basic_string@DU?$char_traits@D@std@@V?$allocator@D@2@@std@@@std@@@std@@@std@@@std@@QBE_NABV01@@Z 00419910 f i cTED.obj
 0001:00018a20       ??9?$_Tree_const_iterator@V?$_Tree_val@U?$_Tree_simple_types@U?$pair@$$CBHV?$basic_string@DU?$char_traits@D@std@@V?$allocator@D@2@@std@@@std@@@std@@@std@@@std@@QBE_NABV01@@Z 00419a20 f i cTED.obj
 0001:00018a90       ??A?$map@HV?$basic_string@DU?$char_traits@D@std@@V?$allocator@D@2@@std@@U?$less@H@2@V?$allocator@U?$pair@$$CBHV?$basic_string@DU?$char_traits@D@std@@V?$allocator@D@2@@std@@@std@@@2@@std@@QAEAAV?$basic_string@DU?$char_traits@D@std@@V?$allocator@D@2@@1@$$QAH@Z 00419a90 f i cTED.obj
 0001:00018b60       ??A?$map@HV?$basic_string@DU?$char_traits@D@std@@V?$allocator@D@2@@std@@U?$less@H@2@V?$allocator@U?$pair@$$CBHV?$basic_string@DU?$char_traits@D@std@@V?$allocator@D@2@@std@@@std@@@2@@std@@QAEAAV?$basic_string@DU?$char_traits@D@std@@V?$allocator@D@2@@1@ABH@Z 00419b60 f i cTED.obj
 0001:00018c20       ??C?$_Tree_iterator@V?$_Tree_val@U?$_Tree_simple_types@U?$pair@$$CBHV?$basic_string@DU?$char_traits@D@std@@V?$allocator@D@2@@std@@@std@@@std@@@std@@@std@@QBEPAU?$pair@$$CBHV?$basic_string@DU?$char_traits@D@std@@V?$allocator@D@2@@std@@@1@XZ 00419c20 f i cTED.obj
 0001:00018c70       ??D?$_Tree_const_iterator@V?$_Tree_val@U?$_Tree_simple_types@U?$pair@$$CBHV?$basic_string@DU?$char_traits@D@std@@V?$allocator@D@2@@std@@@std@@@std@@@std@@@std@@QBEABU?$pair@$$CBHV?$basic_string@DU?$char_traits@D@std@@V?$allocator@D@2@@std@@@1@XZ 00419c70 f i cTED.obj
 0001:00018d70       ??D?$_Tree_iterator@V?$_Tree_val@U?$_Tree_simple_types@U?$pair@$$CBHV?$basic_string@DU?$char_traits@D@std@@V?$allocator@D@2@@std@@@std@@@std@@@std@@@std@@QBEAAU?$pair@$$CBHV?$basic_string@DU?$char_traits@D@std@@V?$allocator@D@2@@std@@@1@XZ 00419d70 f i cTED.obj
 0001:00018db0       ??E?$_Tree_const_iterator@V?$_Tree_val@U?$_Tree_simple_types@U?$pair@$$CBHV?$basic_string@DU?$char_traits@D@std@@V?$allocator@D@2@@std@@@std@@@std@@@std@@@std@@QAE?AV01@H@Z 00419db0 f i cTED.obj
 0001:00018ea0       ??E?$_Tree_const_iterator@V?$_Tree_val@U?$_Tree_simple_types@U?$pair@$$CBHV?$basic_string@DU?$char_traits@D@std@@V?$allocator@D@2@@std@@@std@@@std@@@std@@@std@@QAEAAV01@XZ 00419ea0 f i cTED.obj
 0001:00018fa0       ??E?$_Tree_iterator@V?$_Tree_val@U?$_Tree_simple_types@U?$pair@$$CBHV?$basic_string@DU?$char_traits@D@std@@V?$allocator@D@2@@std@@@std@@@std@@@std@@@std@@QAEAAV01@XZ 00419fa0 f i cTED.obj
 0001:00018ff0       ??E?$_Tree_unchecked_const_iterator@V?$_Tree_val@U?$_Tree_simple_types@U?$pair@$$CBHV?$basic_string@DU?$char_traits@D@std@@V?$allocator@D@2@@std@@@std@@@std@@@std@@U_Iterator_base12@2@@std@@QAEAAV01@XZ 00419ff0 f i cTED.obj
 0001:000190e0       ??F?$_Tree_const_iterator@V?$_Tree_val@U?$_Tree_simple_types@U?$pair@$$CBHV?$basic_string@DU?$char_traits@D@std@@V?$allocator@D@2@@std@@@std@@@std@@@std@@@std@@QAEAAV01@XZ 0041a0e0 f i cTED.obj
 0001:00019260       ??F?$_Tree_iterator@V?$_Tree_val@U?$_Tree_simple_types@U?$pair@$$CBHV?$basic_string@DU?$char_traits@D@std@@V?$allocator@D@2@@std@@@std@@@std@@@std@@@std@@QAEAAV01@XZ 0041a260 f i cTED.obj
 0001:000192b0       ??F?$_Tree_unchecked_const_iterator@V?$_Tree_val@U?$_Tree_simple_types@U?$pair@$$CBHV?$basic_string@DU?$char_traits@D@std@@V?$allocator@D@2@@std@@@std@@@std@@@std@@U_Iterator_base12@2@@std@@QAEAAV01@XZ 0041a2b0 f i cTED.obj
 0001:000193d0       ??_G?$pair@$$CBHV?$basic_string@DU?$char_traits@D@std@@V?$allocator@D@2@@std@@@std@@QAEPAXI@Z 0041a3d0 f i cTED.obj
 0001:00019430       ?Create@MetroidTextEditor@@QAEHHPAUHINSTANCE__@@P6GJPAUHWND__@@IIJ@Z@Z 0041a430 f   cTED.obj
 0001:000196c0       ?CreateTextpicTileImage@MetroidTextEditor@@QAEHPAUHINSTANCE__@@P6GJPAUHWND__@@IIJ@Z@Z 0041a6c0 f   cTED.obj
 0001:00019800       ?DecodeText@MetroidTextEditor@@QAEHK@Z 0041a800 f   cTED.obj
 0001:000199b0       ?DecodeText@MetroidTextEditor@@QAEHPAGH@Z 0041a9b0 f   cTED.obj
 0001:00019ab0       ?Draw@MetroidTextEditor@@QAEHXZ 0041aab0 f   cTED.obj
 0001:00019d30       ?EncodeString@MetroidTextEditor@@QAEPAV?$vector@GV?$allocator@G@std@@@std@@PAD@Z 0041ad30 f   cTED.obj
 0001:00019f80       ?EncodeText@MetroidTextEditor@@QAEHH@Z 0041af80 f   cTED.obj
 0001:0001a3a0       ?GetEncodedEntry@MetroidTextEditor@@QAEGPAD@Z 0041b3a0 f   cTED.obj
 0001:0001a5a0       ?LoadTable@MetroidTextEditor@@QAEHXZ 0041b5a0 f   cTED.obj
 0001:0001a820       ?ResetList@MetroidTextEditor@@QAEHH@Z 0041b820 f   cTED.obj
 0001:0001aa60       ?_Alloc_proxy@?$_String_alloc@U?$_String_base_types@DV?$allocator@D@std@@@std@@@std@@QAEXXZ 0041ba60 f i cTED.obj
 0001:0001ab30       ?_Alloc_proxy@?$_Tree_comp_alloc@V?$_Tmap_traits@HV?$basic_string@DU?$char_traits@D@std@@V?$allocator@D@2@@std@@U?$less@H@2@V?$allocator@U?$pair@$$CBHV?$basic_string@DU?$char_traits@D@std@@V?$allocator@D@2@@std@@@std@@@2@$0A@@std@@@std@@QAEXXZ 0041bb30 f i cTED.obj
 0001:0001ac00       ?_Alloc_proxy@?$_Vector_alloc@U?$_Vec_base_types@GV?$allocator@G@std@@@std@@@std@@QAEXXZ 0041bc00 f i cTED.obj
 0001:0001acd0       ?_Buyheadnode@?$_Tree_comp_alloc@V?$_Tmap_traits@HV?$basic_string@DU?$char_traits@D@std@@V?$allocator@D@2@@std@@U?$less@H@2@V?$allocator@U?$pair@$$CBHV?$basic_string@DU?$char_traits@D@std@@V?$allocator@D@2@@std@@@std@@@2@$0A@@std@@@std@@QAEPAU?$_Tree_node@U?$pair@$$CBHV?$basic_string@DU?$char_traits@D@std@@V?$allocator@D@2@@std@@@std@@PAX@2@XZ 0041bcd0 f i cTED.obj
 0001:0001ae80       ?_Buynode0@?$_Tree_comp_alloc@V?$_Tmap_traits@HV?$basic_string@DU?$char_traits@D@std@@V?$allocator@D@2@@std@@U?$less@H@2@V?$allocator@U?$pair@$$CBHV?$basic_string@DU?$char_traits@D@std@@V?$allocator@D@2@@std@@@std@@@2@$0A@@std@@@std@@QAEPAU?$_Tree_node@U?$pair@$$CBHV?$basic_string@DU?$char_traits@D@std@@V?$allocator@D@2@@std@@@std@@PAX@2@XZ 0041be80 f i cTED.obj
 0001:0001aff0       ?_Bx@?$_String_alloc@U?$_String_base_types@DV?$allocator@D@std@@@std@@@std@@QAEAAT_Bxty@?$_String_val@U?$_Simple_types@D@std@@@2@XZ 0041bff0 f i cTED.obj
 0001:0001b040       ?_Check_offset@?$basic_string@DU?$char_traits@D@std@@V?$allocator@D@2@@std@@QBEXI@Z 0041c040 f i cTED.obj
 0001:0001b090       ?_Clamp_suffix_size@?$basic_string@DU?$char_traits@D@std@@V?$allocator@D@2@@std@@QBEIII@Z 0041c090 f i cTED.obj
 0001:0001b0f0       ?_Clrcont@_Iterator_base12@std@@QAEXXZ 0041c0f0 f i cTED.obj
 0001:0001b130       ?_Color@?$_Tree_comp_alloc@V?$_Tmap_traits@HV?$basic_string@DU?$char_traits@D@std@@V?$allocator@D@2@@std@@U?$less@H@2@V?$allocator@U?$pair@$$CBHV?$basic_string@DU?$char_traits@D@std@@V?$allocator@D@2@@std@@@std@@@2@$0A@@std@@@std@@SAAADPAU?$_Tree_node@U?$pair@$$CBHV?$basic_string@DU?$char_traits@D@std@@V?$allocator@D@2@@std@@@std@@PAX@2@@Z 0041c130 f i cTED.obj
 0001:0001b170       ?_Color@?$_Tree_val@U?$_Tree_simple_types@U?$pair@$$CBHV?$basic_string@DU?$char_traits@D@std@@V?$allocator@D@2@@std@@@std@@@std@@@std@@SAAADPAU?$_Tree_node@U?$pair@$$CBHV?$basic_string@DU?$char_traits@D@std@@V?$allocator@D@2@@std@@@std@@PAX@2@@Z 0041c170 f i cTED.obj
 0001:0001b1a0       ?_Compare@?$_Tree@V?$_Tmap_traits@HV?$basic_string@DU?$char_traits@D@std@@V?$allocator@D@2@@std@@U?$less@H@2@V?$allocator@U?$pair@$$CBHV?$basic_string@DU?$char_traits@D@std@@V?$allocator@D@2@@std@@@std@@@2@$0A@@std@@@std@@IBE_NABH0@Z 0041c1a0 f i cTED.obj
 0001:0001b200       ?_Construct@?$_Tree_comp_alloc@V?$_Tmap_traits@HV?$basic_string@DU?$char_traits@D@std@@V?$allocator@D@2@@std@@U?$less@H@2@V?$allocator@U?$pair@$$CBHV?$basic_string@DU?$char_traits@D@std@@V?$allocator@D@2@@std@@@std@@@2@$0A@@std@@@std@@QAEXXZ 0041c200 f i cTED.obj
 0001:0001b2c0       ?_Copy@?$basic_string@DU?$char_traits@D@std@@V?$allocator@D@2@@std@@QAEXII@Z 0041c2c0 f i cTED.obj
 0001:0001b500       ?_Destroy@?$vector@GV?$allocator@G@std@@@std@@IAEXPAG0@Z 0041c500 f i cTED.obj
 0001:0001b560       ?_Destroy_if_not_nil@?$_Tree@V?$_Tmap_traits@HV?$basic_string@DU?$char_traits@D@std@@V?$allocator@D@2@@std@@U?$less@H@2@V?$allocator@U?$pair@$$CBHV?$basic_string@DU?$char_traits@D@std@@V?$allocator@D@2@@std@@@std@@@2@$0A@@std@@@std@@IAEXPAU?$_Tree_node@U?$pair@$$CBHV?$basic_string@DU?$char_traits@D@std@@V?$allocator@D@2@@std@@@std@@PAX@2@@Z 0041c560 f i cTED.obj
 0001:0001b5e0       ?_Eos@?$basic_string@DU?$char_traits@D@std@@V?$allocator@D@2@@std@@QAEXI@Z 0041c5e0 f i cTED.obj
 0001:0001b650       ?_Erase@?$_Tree@V?$_Tmap_traits@HV?$basic_string@DU?$char_traits@D@std@@V?$allocator@D@2@@std@@U?$less@H@2@V?$allocator@U?$pair@$$CBHV?$basic_string@DU?$char_traits@D@std@@V?$allocator@D@2@@std@@@std@@@2@$0A@@std@@@std@@IAEXPAU?$_Tree_node@U?$pair@$$CBHV?$basic_string@DU?$char_traits@D@std@@V?$allocator@D@2@@std@@@std@@PAX@2@@Z 0041c650 f i cTED.obj
 0001:0001b710       ?_Free_proxy@?$_String_alloc@U?$_String_base_types@DV?$allocator@D@std@@@std@@@std@@QAEXXZ 0041c710 f i cTED.obj
 0001:0001b7d0       ?_Free_proxy@?$_Tree_comp_alloc@V?$_Tmap_traits@HV?$basic_string@DU?$char_traits@D@std@@V?$allocator@D@2@@std@@U?$less@H@2@V?$allocator@U?$pair@$$CBHV?$basic_string@DU?$char_traits@D@std@@V?$allocator@D@2@@std@@@std@@@2@$0A@@std@@@std@@QAEXXZ 0041c7d0 f i cTED.obj
 0001:0001b890       ?_Freeheadnode@?$_Tree_comp_alloc@V?$_Tmap_traits@HV?$basic_string@DU?$char_traits@D@std@@V?$allocator@D@2@@std@@U?$less@H@2@V?$allocator@U?$pair@$$CBHV?$basic_string@DU?$char_traits@D@std@@V?$allocator@D@2@@std@@@std@@@2@$0A@@std@@@std@@QAEXPAU?$_Tree_node@U?$pair@$$CBHV?$basic_string@DU?$char_traits@D@std@@V?$allocator@D@2@@std@@@std@@PAX@2@@Z 0041c890 f i cTED.obj
 0001:0001b950       ?_Freenode0@?$_Tree_comp_alloc@V?$_Tmap_traits@HV?$basic_string@DU?$char_traits@D@std@@V?$allocator@D@2@@std@@U?$less@H@2@V?$allocator@U?$pair@$$CBHV?$basic_string@DU?$char_traits@D@std@@V?$allocator@D@2@@std@@@std@@@2@$0A@@std@@@std@@QAEXPAU?$_Tree_node@U?$pair@$$CBHV?$basic_string@DU?$char_traits@D@std@@V?$allocator@D@2@@std@@@std@@PAX@2@@Z 0041c950 f i cTED.obj
 0001:0001ba10       ?_Get_data@?$_String_alloc@U?$_String_base_types@DV?$allocator@D@std@@@std@@@std@@QAEAAV?$_String_val@U?$_Simple_types@D@std@@@2@XZ 0041ca10 f i cTED.obj
 0001:0001ba50       ?_Get_data@?$_String_alloc@U?$_String_base_types@DV?$allocator@D@std@@@std@@@std@@QBEABV?$_String_val@U?$_Simple_types@D@std@@@2@XZ 0041ca50 f i cTED.obj
 0001:0001ba90       ?_Get_data@?$_Tree_comp_alloc@V?$_Tmap_traits@HV?$basic_string@DU?$char_traits@D@std@@V?$allocator@D@2@@std@@U?$less@H@2@V?$allocator@U?$pair@$$CBHV?$basic_string@DU?$char_traits@D@std@@V?$allocator@D@2@@std@@@std@@@2@$0A@@std@@@std@@QAEAAV?$_Tree_val@U?$_Tree_simple_types@U?$pair@$$CBHV?$basic_string@DU?$char_traits@D@std@@V?$allocator@D@2@@std@@@std@@@std@@@2@XZ 0041ca90 f i cTED.obj
 0001:0001bae0       ?_Get_data@?$_Tree_comp_alloc@V?$_Tmap_traits@HV?$basic_string@DU?$char_traits@D@std@@V?$allocator@D@2@@std@@U?$less@H@2@V?$allocator@U?$pair@$$CBHV?$basic_string@DU?$char_traits@D@std@@V?$allocator@D@2@@std@@@std@@@2@$0A@@std@@@std@@QBEABV?$_Tree_val@U?$_Tree_simple_types@U?$pair@$$CBHV?$basic_string@DU?$char_traits@D@std@@V?$allocator@D@2@@std@@@std@@@std@@@2@XZ 0041cae0 f i cTED.obj
 0001:0001bb30       ?_Get_data@?$_Vector_alloc@U?$_Vec_base_types@GV?$allocator@G@std@@@std@@@std@@QAEAAV?$_Vector_val@U?$_Simple_types@G@std@@@2@XZ 0041cb30 f i cTED.obj
 0001:0001bb70       ?_Get_data@?$_Vector_alloc@U?$_Vec_base_types@GV?$allocator@G@std@@@std@@@std@@QBEABV?$_Vector_val@U?$_Simple_types@G@std@@@2@XZ 0041cb70 f i cTED.obj
 0001:0001bbb0       ?_Get_first@?$_Compressed_pair@U?$_Wrap_alloc@V?$allocator@D@std@@@std@@V?$_String_val@U?$_Simple_types@D@std@@@2@$00@std@@QAEAAU?$_Wrap_alloc@V?$allocator@D@std@@@2@XZ 0041cbb0 f i cTED.obj
 0001:0001bbe0       ?_Get_first@?$_Compressed_pair@U?$_Wrap_alloc@V?$allocator@D@std@@@std@@V?$_String_val@U?$_Simple_types@D@std@@@2@$00@std@@QBEABU?$_Wrap_alloc@V?$allocator@D@std@@@2@XZ 0041cbe0 f i cTED.obj
 0001:0001bc10       ?_Get_first@?$_Compressed_pair@U?$_Wrap_alloc@V?$allocator@G@std@@@std@@V?$_Vector_val@U?$_Simple_types@G@std@@@2@$00@std@@QAEAAU?$_Wrap_alloc@V?$allocator@G@std@@@2@XZ 0041cc10 f i cTED.obj
 0001:0001bc40       ?_Get_first@?$_Compressed_pair@U?$_Wrap_alloc@V?$allocator@G@std@@@std@@V?$_Vector_val@U?$_Simple_types@G@std@@@2@$00@std@@QBEABU?$_Wrap_alloc@V?$allocator@G@std@@@2@XZ 0041cc40 f i cTED.obj
 0001:0001bc70       ?_Get_first@?$_Compressed_pair@U?$_Wrap_alloc@V?$allocator@U?$_Tree_node@U?$pair@$$CBHV?$basic_string@DU?$char_traits@D@std@@V?$allocator@D@2@@std@@@std@@PAX@std@@@std@@@std@@V?$_Tree_val@U?$_Tree_simple_types@U?$pair@$$CBHV?$basic_string@DU?$char_traits@D@std@@V?$allocator@D@2@@std@@@std@@@std@@@2@$00@std@@QAEAAU?$_Wrap_alloc@V?$allocator@U?$_Tree_node@U?$pair@$$CBHV?$basic_string@DU?$char_traits@D@std@@V?$allocator@D@2@@std@@@std@@PAX@std@@@std@@@2@XZ 0041cc70 f i cTED.obj
 0001:0001bca0       ?_Get_first@?$_Compressed_pair@U?$_Wrap_alloc@V?$allocator@U?$_Tree_node@U?$pair@$$CBHV?$basic_string@DU?$char_traits@D@std@@V?$allocator@D@2@@std@@@std@@PAX@std@@@std@@@std@@V?$_Tree_val@U?$_Tree_simple_types@U?$pair@$$CBHV?$basic_string@DU?$char_traits@D@std@@V?$allocator@D@2@@std@@@std@@@std@@@2@$00@std@@QBEABU?$_Wrap_alloc@V?$allocator@U?$_Tree_node@U?$pair@$$CBHV?$basic_string@DU?$char_traits@D@std@@V?$allocator@D@2@@std@@@std@@PAX@std@@@std@@@2@XZ 0041cca0 f i cTED.obj
 0001:0001bcd0       ?_Get_first@?$_Compressed_pair@U?$less@H@std@@V?$_Compressed_pair@U?$_Wrap_alloc@V?$allocator@U?$_Tree_node@U?$pair@$$CBHV?$basic_string@DU?$char_traits@D@std@@V?$allocator@D@2@@std@@@std@@PAX@std@@@std@@@std@@V?$_Tree_val@U?$_Tree_simple_types@U?$pair@$$CBHV?$basic_string@DU?$char_traits@D@std@@V?$allocator@D@2@@std@@@std@@@std@@@2@$00@2@$00@std@@QAEAAU?$less@H@2@XZ 0041ccd0 f i cTED.obj
 0001:0001bd00       ?_Get_first@?$_Compressed_pair@U?$less@H@std@@V?$_Compressed_pair@U?$_Wrap_alloc@V?$allocator@U?$_Tree_node@U?$pair@$$CBHV?$basic_string@DU?$char_traits@D@std@@V?$allocator@D@2@@std@@@std@@PAX@std@@@std@@@std@@V?$_Tree_val@U?$_Tree_simple_types@U?$pair@$$CBHV?$basic_string@DU?$char_traits@D@std@@V?$allocator@D@2@@std@@@std@@@std@@@2@$00@2@$00@std@@QBEABU?$less@H@2@XZ 0041cd00 f i cTED.obj
 0001:0001bd30       ?_Get_second@?$_Compressed_pair@U?$_Wrap_alloc@V?$allocator@D@std@@@std@@V?$_String_val@U?$_Simple_types@D@std@@@2@$00@std@@QAEAAV?$_String_val@U?$_Simple_types@D@std@@@2@XZ 0041cd30 f i cTED.obj
 0001:0001bd60       ?_Get_second@?$_Compressed_pair@U?$_Wrap_alloc@V?$allocator@D@std@@@std@@V?$_String_val@U?$_Simple_types@D@std@@@2@$00@std@@QBEABV?$_String_val@U?$_Simple_types@D@std@@@2@XZ 0041cd60 f i cTED.obj
 0001:0001bd90       ?_Get_second@?$_Compressed_pair@U?$_Wrap_alloc@V?$allocator@G@std@@@std@@V?$_Vector_val@U?$_Simple_types@G@std@@@2@$00@std@@QAEAAV?$_Vector_val@U?$_Simple_types@G@std@@@2@XZ 0041cd90 f i cTED.obj
 0001:0001bdc0       ?_Get_second@?$_Compressed_pair@U?$_Wrap_alloc@V?$allocator@G@std@@@std@@V?$_Vector_val@U?$_Simple_types@G@std@@@2@$00@std@@QBEABV?$_Vector_val@U?$_Simple_types@G@std@@@2@XZ 0041cdc0 f i cTED.obj
 0001:0001bdf0       ?_Get_second@?$_Compressed_pair@U?$_Wrap_alloc@V?$allocator@U?$_Tree_node@U?$pair@$$CBHV?$basic_string@DU?$char_traits@D@std@@V?$allocator@D@2@@std@@@std@@PAX@std@@@std@@@std@@V?$_Tree_val@U?$_Tree_simple_types@U?$pair@$$CBHV?$basic_string@DU?$char_traits@D@std@@V?$allocator@D@2@@std@@@std@@@std@@@2@$00@std@@QAEAAV?$_Tree_val@U?$_Tree_simple_types@U?$pair@$$CBHV?$basic_string@DU?$char_traits@D@std@@V?$allocator@D@2@@std@@@std@@@std@@@2@XZ 0041cdf0 f i cTED.obj
 0001:0001be20       ?_Get_second@?$_Compressed_pair@U?$_Wrap_alloc@V?$allocator@U?$_Tree_node@U?$pair@$$CBHV?$basic_string@DU?$char_traits@D@std@@V?$allocator@D@2@@std@@@std@@PAX@std@@@std@@@std@@V?$_Tree_val@U?$_Tree_simple_types@U?$pair@$$CBHV?$basic_string@DU?$char_traits@D@std@@V?$allocator@D@2@@std@@@std@@@std@@@2@$00@std@@QBEABV?$_Tree_val@U?$_Tree_simple_types@U?$pair@$$CBHV?$basic_string@DU?$char_traits@D@std@@V?$allocator@D@2@@std@@@std@@@std@@@2@XZ 0041ce20 f i cTED.obj
 0001:0001be50       ?_Get_second@?$_Compressed_pair@U?$less@H@std@@V?$_Compressed_pair@U?$_Wrap_alloc@V?$allocator@U?$_Tree_node@U?$pair@$$CBHV?$basic_string@DU?$char_traits@D@std@@V?$allocator@D@2@@std@@@std@@PAX@std@@@std@@@std@@V?$_Tree_val@U?$_Tree_simple_types@U?$pair@$$CBHV?$basic_string@DU?$char_traits@D@std@@V?$allocator@D@2@@std@@@std@@@std@@@2@$00@2@$00@std@@QAEAAV?$_Compressed_pair@U?$_Wrap_alloc@V?$allocator@U?$_Tree_node@U?$pair@$$CBHV?$basic_string@DU?$char_traits@D@std@@V?$allocator@D@2@@std@@@std@@PAX@std@@@std@@@std@@V?$_Tree_val@U?$_Tree_simple_types@U?$pair@$$CBHV?$basic_string@DU?$char_traits@D@std@@V?$allocator@D@2@@std@@@std@@@std@@@2@$00@2@XZ 0041ce50 f i cTED.obj
 0001:0001be80       ?_Get_second@?$_Compressed_pair@U?$less@H@std@@V?$_Compressed_pair@U?$_Wrap_alloc@V?$allocator@U?$_Tree_node@U?$pair@$$CBHV?$basic_string@DU?$char_traits@D@std@@V?$allocator@D@2@@std@@@std@@PAX@std@@@std@@@std@@V?$_Tree_val@U?$_Tree_simple_types@U?$pair@$$CBHV?$basic_string@DU?$char_traits@D@std@@V?$allocator@D@2@@std@@@std@@@std@@@2@$00@2@$00@std@@QBEABV?$_Compressed_pair@U?$_Wrap_alloc@V?$allocator@U?$_Tree_node@U?$pair@$$CBHV?$basic_string@DU?$char_traits@D@std@@V?$allocator@D@2@@std@@@std@@PAX@std@@@std@@@std@@V?$_Tree_val@U?$_Tree_simple_types@U?$pair@$$CBHV?$basic_string@DU?$char_traits@D@std@@V?$allocator@D@2@@std@@@std@@@std@@@2@$00@2@XZ 0041ce80 f i cTED.obj
 0001:0001beb0       ?_Getal@?$_String_alloc@U?$_String_base_types@DV?$allocator@D@std@@@std@@@std@@QAEAAU?$_Wrap_alloc@V?$allocator@D@std@@@2@XZ 0041ceb0 f i cTED.obj
 0001:0001bef0       ?_Getal@?$_String_alloc@U?$_String_base_types@DV?$allocator@D@std@@@std@@@std@@QBEABU?$_Wrap_alloc@V?$allocator@D@std@@@2@XZ 0041cef0 f i cTED.obj
 0001:0001bf30       ?_Getal@?$_Tree_comp_alloc@V?$_Tmap_traits@HV?$basic_string@DU?$char_traits@D@std@@V?$allocator@D@2@@std@@U?$less@H@2@V?$allocator@U?$pair@$$CBHV?$basic_string@DU?$char_traits@D@std@@V?$allocator@D@2@@std@@@std@@@2@$0A@@std@@@std@@QAEAAU?$_Wrap_alloc@V?$allocator@U?$_Tree_node@U?$pair@$$CBHV?$basic_string@DU?$char_traits@D@std@@V?$allocator@D@2@@std@@@std@@PAX@std@@@std@@@2@XZ 0041cf30 f i cTED.obj
 0001:0001bf80       ?_Getal@?$_Tree_comp_alloc@V?$_Tmap_traits@HV?$basic_string@DU?$char_traits@D@std@@V?$allocator@D@2@@std@@U?$less@H@2@V?$allocator@U?$pair@$$CBHV?$basic_string@DU?$char_traits@D@std@@V?$allocator@D@2@@std@@@std@@@2@$0A@@std@@@std@@QBEABU?$_Wrap_alloc@V?$allocator@U?$_Tree_node@U?$pair@$$CBHV?$basic_string@DU?$char_traits@D@std@@V?$allocator@D@2@@std@@@std@@PAX@std@@@std@@@2@XZ 0041cf80 f i cTED.obj
 0001:0001bfd0       ?_Getal@?$_Vector_alloc@U?$_Vec_base_types@GV?$allocator@G@std@@@std@@@std@@QAEAAU?$_Wrap_alloc@V?$allocator@G@std@@@2@XZ 0041cfd0 f i cTED.obj
 0001:0001c010       ?_Getal@?$_Vector_alloc@U?$_Vec_base_types@GV?$allocator@G@std@@@std@@@std@@QBEABU?$_Wrap_alloc@V?$allocator@G@std@@@2@XZ 0041d010 f i cTED.obj
 0001:0001c050       ?_Getcomp@?$_Tree_comp_alloc@V?$_Tmap_traits@HV?$basic_string@DU?$char_traits@D@std@@V?$allocator@D@2@@std@@U?$less@H@2@V?$allocator@U?$pair@$$CBHV?$basic_string@DU?$char_traits@D@std@@V?$allocator@D@2@@std@@@std@@@2@$0A@@std@@@std@@QAEAAU?$less@H@2@XZ 0041d050 f i cTED.obj
 0001:0001c090       ?_Getcomp@?$_Tree_comp_alloc@V?$_Tmap_traits@HV?$basic_string@DU?$char_traits@D@std@@V?$allocator@D@2@@std@@U?$less@H@2@V?$allocator@U?$pair@$$CBHV?$basic_string@DU?$char_traits@D@std@@V?$allocator@D@2@@std@@@std@@@2@$0A@@std@@@std@@QBEABU?$less@H@2@XZ 0041d090 f i cTED.obj
 0001:0001c0d0       ?_Getpfirst@?$_Tree_comp_alloc@V?$_Tmap_traits@HV?$basic_string@DU?$char_traits@D@std@@V?$allocator@D@2@@std@@U?$less@H@2@V?$allocator@U?$pair@$$CBHV?$basic_string@DU?$char_traits@D@std@@V?$allocator@D@2@@std@@@std@@@2@$0A@@std@@@std@@QBEPAPAU_Iterator_base12@2@XZ 0041d0d0 f i cTED.obj
 0001:0001c120       ?_Getpfirst@?$_Vector_alloc@U?$_Vec_base_types@GV?$allocator@G@std@@@std@@@std@@QBEPAPAU_Iterator_base12@2@XZ 0041d120 f i cTED.obj
 0001:0001c170       ?_Getpfirst@_Container_base12@std@@QBEPAPAU_Iterator_base12@2@XZ 0041d170 f i cTED.obj
 0001:0001c1d0       ?_Getpnext@_Iterator_base12@std@@QAEPAPAU12@XZ 0041d1d0 f i cTED.obj
 0001:0001c200       ?_Grow@?$basic_string@DU?$char_traits@D@std@@V?$allocator@D@2@@std@@QAE_NI_N@Z 0041d200 f i cTED.obj
 0001:0001c300       ?_Grow_to@?$vector@GV?$allocator@G@std@@@std@@IBEII@Z 0041d300 f i cTED.obj
 0001:0001c390       ?_Inside@?$basic_string@DU?$char_traits@D@std@@V?$allocator@D@2@@std@@QAE_NPBD@Z 0041d390 f i cTED.obj
 0001:0001c400       ?_Inside@?$vector@GV?$allocator@G@std@@@std@@IBE_NPBG@Z 0041d400 f i cTED.obj
 0001:0001c490       ?_Isnil@?$_Tree_comp_alloc@V?$_Tmap_traits@HV?$basic_string@DU?$char_traits@D@std@@V?$allocator@D@2@@std@@U?$less@H@2@V?$allocator@U?$pair@$$CBHV?$basic_string@DU?$char_traits@D@std@@V?$allocator@D@2@@std@@@std@@@2@$0A@@std@@@std@@SAAADPAU?$_Tree_node@U?$pair@$$CBHV?$basic_string@DU?$char_traits@D@std@@V?$allocator@D@2@@std@@@std@@PAX@2@@Z 0041d490 f i cTED.obj
 0001:0001c4d0       ?_Isnil@?$_Tree_val@U?$_Tree_simple_types@U?$pair@$$CBHV?$basic_string@DU?$char_traits@D@std@@V?$allocator@D@2@@std@@@std@@@std@@@std@@SAAADPAU?$_Tree_node@U?$pair@$$CBHV?$basic_string@DU?$char_traits@D@std@@V?$allocator@D@2@@std@@@std@@PAX@2@@Z 0041d4d0 f i cTED.obj
 0001:0001c500       ?_Key@?$_Tree@V?$_Tmap_traits@HV?$basic_string@DU?$char_traits@D@std@@V?$allocator@D@2@@std@@U?$less@H@2@V?$allocator@U?$pair@$$CBHV?$basic_string@DU?$char_traits@D@std@@V?$allocator@D@2@@std@@@std@@@2@$0A@@std@@@std@@IBEABHPAU?$_Tree_node@U?$pair@$$CBHV?$basic_string@DU?$char_traits@D@std@@V?$allocator@D@2@@std@@@std@@PAX@2@@Z 0041d500 f i cTED.obj
 0001:0001c550       ?_Kfn@?$_Tree@V?$_Tmap_traits@HV?$basic_string@DU?$char_traits@D@std@@V?$allocator@D@2@@std@@U?$less@H@2@V?$allocator@U?$pair@$$CBHV?$basic_string@DU?$char_traits@D@std@@V?$allocator@D@2@@std@@@std@@@2@$0A@@std@@@std@@IBEABHABU?$pair@$$CBHV?$basic_string@DU?$char_traits@D@std@@V?$allocator@D@2@@std@@@2@@Z 0041d550 f i cTED.obj
 0001:0001c5a0       ?_Left@?$_Tree_comp_alloc@V?$_Tmap_traits@HV?$basic_string@DU?$char_traits@D@std@@V?$allocator@D@2@@std@@U?$less@H@2@V?$allocator@U?$pair@$$CBHV?$basic_string@DU?$char_traits@D@std@@V?$allocator@D@2@@std@@@std@@@2@$0A@@std@@@std@@SAAAPAU?$_Tree_node@U?$pair@$$CBHV?$basic_string@DU?$char_traits@D@std@@V?$allocator@D@2@@std@@@std@@PAX@2@PAU32@@Z 0041d5a0 f i cTED.obj
 0001:0001c5e0       ?_Left@?$_Tree_val@U?$_Tree_simple_types@U?$pair@$$CBHV?$basic_string@DU?$char_traits@D@std@@V?$allocator@D@2@@std@@@std@@@std@@@std@@SAAAPAU?$_Tree_node@U?$pair@$$CBHV?$basic_string@DU?$char_traits@D@std@@V?$allocator@D@2@@std@@@std@@PAX@2@PAU32@@Z 0041d5e0 f i cTED.obj
 0001:0001c610       ?_Lmost@?$_Tree@V?$_Tmap_traits@HV?$basic_string@DU?$char_traits@D@std@@V?$allocator@D@2@@std@@U?$less@H@2@V?$allocator@U?$pair@$$CBHV?$basic_string@DU?$char_traits@D@std@@V?$allocator@D@2@@std@@@std@@@2@$0A@@std@@@std@@IBEAAPAU?$_Tree_node@U?$pair@$$CBHV?$basic_string@DU?$char_traits@D@std@@V?$allocator@D@2@@std@@@std@@PAX@2@XZ 0041d610 f i cTED.obj
 0001:0001c660       ?_Lrotate@?$_Tree@V?$_Tmap_traits@HV?$basic_string@DU?$char_traits@D@std@@V?$allocator@D@2@@std@@U?$less@H@2@V?$allocator@U?$pair@$$CBHV?$basic_string@DU?$char_traits@D@std@@V?$allocator@D@2@@std@@@std@@@2@$0A@@std@@@std@@IAEXPAU?$_Tree_node@U?$pair@$$CBHV?$basic_string@DU?$char_traits@D@std@@V?$allocator@D@2@@std@@@std@@PAX@2@@Z 0041d660 f i cTED.obj
 0001:0001c7c0       ?_Max@?$_Tree_comp_alloc@V?$_Tmap_traits@HV?$basic_string@DU?$char_traits@D@std@@V?$allocator@D@2@@std@@U?$less@H@2@V?$allocator@U?$pair@$$CBHV?$basic_string@DU?$char_traits@D@std@@V?$allocator@D@2@@std@@@std@@@2@$0A@@std@@@std@@SAPAU?$_Tree_node@U?$pair@$$CBHV?$basic_string@DU?$char_traits@D@std@@V?$allocator@D@2@@std@@@std@@PAX@2@PAU32@@Z 0041d7c0 f i cTED.obj
 0001:0001c800       ?_Max@?$_Tree_val@U?$_Tree_simple_types@U?$pair@$$CBHV?$basic_string@DU?$char_traits@D@std@@V?$allocator@D@2@@std@@@std@@@std@@@std@@SAPAU?$_Tree_node@U?$pair@$$CBHV?$basic_string@DU?$char_traits@D@std@@V?$allocator@D@2@@std@@@std@@PAX@2@PAU32@@Z 0041d800 f i cTED.obj
 0001:0001c870       ?_Min@?$_Tree_comp_alloc@V?$_Tmap_traits@HV?$basic_string@DU?$char_traits@D@std@@V?$allocator@D@2@@std@@U?$less@H@2@V?$allocator@U?$pair@$$CBHV?$basic_string@DU?$char_traits@D@std@@V?$allocator@D@2@@std@@@std@@@2@$0A@@std@@@std@@SAPAU?$_Tree_node@U?$pair@$$CBHV?$basic_string@DU?$char_traits@D@std@@V?$allocator@D@2@@std@@@std@@PAX@2@PAU32@@Z 0041d870 f i cTED.obj
 0001:0001c8b0       ?_Min@?$_Tree_val@U?$_Tree_simple_types@U?$pair@$$CBHV?$basic_string@DU?$char_traits@D@std@@V?$allocator@D@2@@std@@@std@@@std@@@std@@SAPAU?$_Tree_node@U?$pair@$$CBHV?$basic_string@DU?$char_traits@D@std@@V?$allocator@D@2@@std@@@std@@PAX@2@PAU32@@Z 0041d8b0 f i cTED.obj
 0001:0001c920       ?_Myend@?$_Vector_alloc@U?$_Vec_base_types@GV?$allocator@G@std@@@std@@@std@@QAEAAPAGXZ 0041d920 f i cTED.obj
 0001:0001c970       ?_Myend@?$_Vector_alloc@U?$_Vec_base_types@GV?$allocator@G@std@@@std@@@std@@QBEABQAGXZ 0041d970 f i cTED.obj
 0001:0001c9c0       ?_Myfirst@?$_Vector_alloc@U?$_Vec_base_types@GV?$allocator@G@std@@@std@@@std@@QAEAAPAGXZ 0041d9c0 f i cTED.obj
 0001:0001ca10       ?_Myfirst@?$_Vector_alloc@U?$_Vec_base_types@GV?$allocator@G@std@@@std@@@std@@QBEABQAGXZ 0041da10 f i cTED.obj
 0001:0001ca60       ?_Myhead@?$_Tree_comp_alloc@V?$_Tmap_traits@HV?$basic_string@DU?$char_traits@D@std@@V?$allocator@D@2@@std@@U?$less@H@2@V?$allocator@U?$pair@$$CBHV?$basic_string@DU?$char_traits@D@std@@V?$allocator@D@2@@std@@@std@@@2@$0A@@std@@@std@@QAEAAPAU?$_Tree_node@U?$pair@$$CBHV?$basic_string@DU?$char_traits@D@std@@V?$allocator@D@2@@std@@@std@@PAX@2@XZ 0041da60 f i cTED.obj
 0001:0001cab0       ?_Myhead@?$_Tree_comp_alloc@V?$_Tmap_traits@HV?$basic_string@DU?$char_traits@D@std@@V?$allocator@D@2@@std@@U?$less@H@2@V?$allocator@U?$pair@$$CBHV?$basic_string@DU?$char_traits@D@std@@V?$allocator@D@2@@std@@@std@@@2@$0A@@std@@@std@@QBEABQAU?$_Tree_node@U?$pair@$$CBHV?$basic_string@DU?$char_traits@D@std@@V?$allocator@D@2@@std@@@std@@PAX@2@XZ 0041dab0 f i cTED.obj
 0001:0001cb00       ?_Mylast@?$_Vector_alloc@U?$_Vec_base_types@GV?$allocator@G@std@@@std@@@std@@QAEAAPAGXZ 0041db00 f i cTED.obj
 0001:0001cb50       ?_Mylast@?$_Vector_alloc@U?$_Vec_base_types@GV?$allocator@G@std@@@std@@@std@@QBEABQAGXZ 0041db50 f i cTED.obj
 0001:0001cba0       ?_Mynode@?$_Tree_unchecked_const_iterator@V?$_Tree_val@U?$_Tree_simple_types@U?$pair@$$CBHV?$basic_string@DU?$char_traits@D@std@@V?$allocator@D@2@@std@@@std@@@std@@@std@@U_Iterator_base12@2@@std@@QBEPAU?$_Tree_node@U?$pair@$$CBHV?$basic_string@DU?$char_traits@D@std@@V?$allocator@D@2@@std@@@std@@PAX@2@XZ 0041dba0 f i cTED.obj
 0001:0001cbd0       ?_Myproxy@?$_String_alloc@U?$_String_base_types@DV?$allocator@D@std@@@std@@@std@@QAEAAPAU_Container_proxy@2@XZ 0041dbd0 f i cTED.obj
 0001:0001cc10       ?_Myproxy@?$_Tree_comp_alloc@V?$_Tmap_traits@HV?$basic_string@DU?$char_traits@D@std@@V?$allocator@D@2@@std@@U?$less@H@2@V?$allocator@U?$pair@$$CBHV?$basic_string@DU?$char_traits@D@std@@V?$allocator@D@2@@std@@@std@@@2@$0A@@std@@@std@@QAEAAPAU_Container_proxy@2@XZ 0041dc10 f i cTED.obj
 0001:0001cc50       ?_Myproxy@?$_Vector_alloc@U?$_Vec_base_types@GV?$allocator@G@std@@@std@@@std@@QAEAAPAU_Container_proxy@2@XZ 0041dc50 f i cTED.obj
 0001:0001cc90       ?_Myptr@?$_String_alloc@U?$_String_base_types@DV?$allocator@D@std@@@std@@@std@@QAEPADXZ 0041dc90 f i cTED.obj
 0001:0001cce0       ?_Myptr@?$_String_alloc@U?$_String_base_types@DV?$allocator@D@std@@@std@@@std@@QBEPBDXZ 0041dce0 f i cTED.obj
 0001:0001cd30       ?_Myptr@?$_String_val@U?$_Simple_types@D@std@@@std@@QAEPADXZ 0041dd30 f i cTED.obj
 0001:0001cda0       ?_Myptr@?$_String_val@U?$_Simple_types@D@std@@@std@@QBEPBDXZ 0041dda0 f i cTED.obj
 0001:0001ce10       ?_Myres@?$_String_alloc@U?$_String_base_types@DV?$allocator@D@std@@@std@@@std@@QAEAAIXZ 0041de10 f i cTED.obj
 0001:0001ce60       ?_Mysize@?$_String_alloc@U?$_String_base_types@DV?$allocator@D@std@@@std@@@std@@QAEAAIXZ 0041de60 f i cTED.obj
 0001:0001ceb0       ?_Mysize@?$_String_alloc@U?$_String_base_types@DV?$allocator@D@std@@@std@@@std@@QBEABIXZ 0041deb0 f i cTED.obj
 0001:0001cf00       ?_Mysize@?$_Tree_comp_alloc@V?$_Tmap_traits@HV?$basic_string@DU?$char_traits@D@std@@V?$allocator@D@2@@std@@U?$less@H@2@V?$allocator@U?$pair@$$CBHV?$basic_string@DU?$char_traits@D@std@@V?$allocator@D@2@@std@@@std@@@2@$0A@@std@@@std@@QAEAAIXZ 0041df00 f i cTED.obj
 0001:0001cf50       ?_Mysize@?$_Tree_comp_alloc@V?$_Tmap_traits@HV?$basic_string@DU?$char_traits@D@std@@V?$allocator@D@2@@std@@U?$less@H@2@V?$allocator@U?$pair@$$CBHV?$basic_string@DU?$char_traits@D@std@@V?$allocator@D@2@@std@@@std@@@2@$0A@@std@@@std@@QBEABIXZ 0041df50 f i cTED.obj
 0001:0001cfa0       ?_Myval@?$_Tree_comp_alloc@V?$_Tmap_traits@HV?$basic_string@DU?$char_traits@D@std@@V?$allocator@D@2@@std@@U?$less@H@2@V?$allocator@U?$pair@$$CBHV?$basic_string@DU?$char_traits@D@std@@V?$allocator@D@2@@std@@@std@@@2@$0A@@std@@@std@@SAAAU?$pair@$$CBHV?$basic_string@DU?$char_traits@D@std@@V?$allocator@D@2@@std@@@2@PAU?$_Tree_node@U?$pair@$$CBHV?$basic_string@DU?$char_traits@D@std@@V?$allocator@D@2@@std@@@std@@PAX@2@@Z 0041dfa0 f i cTED.obj
 0001:0001cfe0       ?_Myval@?$_Tree_val@U?$_Tree_simple_types@U?$pair@$$CBHV?$basic_string@DU?$char_traits@D@std@@V?$allocator@D@2@@std@@@std@@@std@@@std@@SAAAU?$pair@$$CBHV?$basic_string@DU?$char_traits@D@std@@V?$allocator@D@2@@std@@@2@PAU?$_Tree_node@U?$pair@$$CBHV?$basic_string@DU?$char_traits@D@std@@V?$allocator@D@2@@std@@@std@@PAX@2@@Z 0041dfe0 f i cTED.obj
 0001:0001d010       ?_Orphan_all@?$_String_alloc@U?$_String_base_types@DV?$allocator@D@std@@@std@@@std@@QAEXXZ 0041e010 f i cTED.obj
 0001:0001d060       ?_Orphan_all@?$_Tree_comp_alloc@V?$_Tmap_traits@HV?$basic_string@DU?$char_traits@D@std@@V?$allocator@D@2@@std@@U?$less@H@2@V?$allocator@U?$pair@$$CBHV?$basic_string@DU?$char_traits@D@std@@V?$allocator@D@2@@std@@@std@@@2@$0A@@std@@@std@@QAEXXZ 0041e060 f i cTED.obj
 0001:0001d0b0       ?_Orphan_all@?$_Vector_alloc@U?$_Vec_base_types@GV?$allocator@G@std@@@std@@@std@@QAEXXZ 0041e0b0 f i cTED.obj
 0001:0001d100       ?_Orphan_ptr@?$_Tree@V?$_Tmap_traits@HV?$basic_string@DU?$char_traits@D@std@@V?$allocator@D@2@@std@@U?$less@H@2@V?$allocator@U?$pair@$$CBHV?$basic_string@DU?$char_traits@D@std@@V?$allocator@D@2@@std@@@std@@@2@$0A@@std@@@std@@IAEXPAU?$_Tree_node@U?$pair@$$CBHV?$basic_string@DU?$char_traits@D@std@@V?$allocator@D@2@@std@@@std@@PAX@2@@Z 0041e100 f i cTED.obj
 0001:0001d230       ?_Orphan_range@?$vector@GV?$allocator@G@std@@@std@@IBEXPAG0@Z 0041e230 f i cTED.obj
 0001:0001d360       ?_Parent@?$_Tree_comp_alloc@V?$_Tmap_traits@HV?$basic_string@DU?$char_traits@D@std@@V?$allocator@D@2@@std@@U?$less@H@2@V?$allocator@U?$pair@$$CBHV?$basic_string@DU?$char_traits@D@std@@V?$allocator@D@2@@std@@@std@@@2@$0A@@std@@@std@@SAAAPAU?$_Tree_node@U?$pair@$$CBHV?$basic_string@DU?$char_traits@D@std@@V?$allocator@D@2@@std@@@std@@PAX@2@PAU32@@Z 0041e360 f i cTED.obj
 0001:0001d3a0       ?_Parent@?$_Tree_val@U?$_Tree_simple_types@U?$pair@$$CBHV?$basic_string@DU?$char_traits@D@std@@V?$allocator@D@2@@std@@@std@@@std@@@std@@SAAAPAU?$_Tree_node@U?$pair@$$CBHV?$basic_string@DU?$char_traits@D@std@@V?$allocator@D@2@@std@@@std@@PAX@2@PAU32@@Z 0041e3a0 f i cTED.obj
 0001:0001d3d0       ?_Reallocate@?$vector@GV?$allocator@G@std@@@std@@IAEXI@Z 0041e3d0 f i cTED.obj
 0001:0001d560       ?_Reserve@?$vector@GV?$allocator@G@std@@@std@@IAEXI@Z 0041e560 f i cTED.obj
 0001:0001d5f0       ?_Right@?$_Tree_comp_alloc@V?$_Tmap_traits@HV?$basic_string@DU?$char_traits@D@std@@V?$allocator@D@2@@std@@U?$less@H@2@V?$allocator@U?$pair@$$CBHV?$basic_string@DU?$char_traits@D@std@@V?$allocator@D@2@@std@@@std@@@2@$0A@@std@@@std@@SAAAPAU?$_Tree_node@U?$pair@$$CBHV?$basic_string@DU?$char_traits@D@std@@V?$allocator@D@2@@std@@@std@@PAX@2@PAU32@@Z 0041e5f0 f i cTED.obj
 0001:0001d630       ?_Right@?$_Tree_val@U?$_Tree_simple_types@U?$pair@$$CBHV?$basic_string@DU?$char_traits@D@std@@V?$allocator@D@2@@std@@@std@@@std@@@std@@SAAAPAU?$_Tree_node@U?$pair@$$CBHV?$basic_string@DU?$char_traits@D@std@@V?$allocator@D@2@@std@@@std@@PAX@2@PAU32@@Z 0041e630 f i cTED.obj
 0001:0001d660       ?_Rmost@?$_Tree@V?$_Tmap_traits@HV?$basic_string@DU?$char_traits@D@std@@V?$allocator@D@2@@std@@U?$less@H@2@V?$allocator@U?$pair@$$CBHV?$basic_string@DU?$char_traits@D@std@@V?$allocator@D@2@@std@@@std@@@2@$0A@@std@@@std@@IBEAAPAU?$_Tree_node@U?$pair@$$CBHV?$basic_string@DU?$char_traits@D@std@@V?$allocator@D@2@@std@@@std@@PAX@2@XZ 0041e660 f i cTED.obj
 0001:0001d6b0       ?_Root@?$_Tree@V?$_Tmap_traits@HV?$basic_string@DU?$char_traits@D@std@@V?$allocator@D@2@@std@@U?$less@H@2@V?$allocator@U?$pair@$$CBHV?$basic_string@DU?$char_traits@D@std@@V?$allocator@D@2@@std@@@std@@@2@$0A@@std@@@std@@IBEAAPAU?$_Tree_node@U?$pair@$$CBHV?$basic_string@DU?$char_traits@D@std@@V?$allocator@D@2@@std@@@std@@PAX@2@XZ 0041e6b0 f i cTED.obj
 0001:0001d700       ?_Rrotate@?$_Tree@V?$_Tmap_traits@HV?$basic_string@DU?$char_traits@D@std@@V?$allocator@D@2@@std@@U?$less@H@2@V?$allocator@U?$pair@$$CBHV?$basic_string@DU?$char_traits@D@std@@V?$allocator@D@2@@std@@@std@@@2@$0A@@std@@@std@@IAEXPAU?$_Tree_node@U?$pair@$$CBHV?$basic_string@DU?$char_traits@D@std@@V?$allocator@D@2@@std@@@std@@PAX@2@@Z 0041e700 f i cTED.obj
 0001:0001d860       ?_Tidy@?$_Tree@V?$_Tmap_traits@HV?$basic_string@DU?$char_traits@D@std@@V?$allocator@D@2@@std@@U?$less@H@2@V?$allocator@U?$pair@$$CBHV?$basic_string@DU?$char_traits@D@std@@V?$allocator@D@2@@std@@@std@@@2@$0A@@std@@@std@@IAEXXZ 0041e860 f i cTED.obj
 0001:0001d9a0       ?_Tidy@?$basic_string@DU?$char_traits@D@std@@V?$allocator@D@2@@std@@QAEX_NI@Z 0041e9a0 f i cTED.obj
 0001:0001da90       ?_Traits_compare@?$basic_string@DU?$char_traits@D@std@@V?$allocator@D@2@@std@@SAHQBDI0I@Z 0041ea90 f i cTED.obj
 0001:0001db30       ?_Unused_capacity@?$vector@GV?$allocator@G@std@@@std@@QBEIXZ 0041eb30 f i cTED.obj
 0001:0001db90       ?_Xlen@?$basic_string@DU?$char_traits@D@std@@V?$allocator@D@2@@std@@QBEXXZ 0041eb90 f i cTED.obj
 0001:0001dbe0       ?_Xlen@?$vector@GV?$allocator@G@std@@@std@@IBEXXZ 0041ebe0 f i cTED.obj
 0001:0001dc30       ?_Xran@?$basic_string@DU?$char_traits@D@std@@V?$allocator@D@2@@std@@QBEXXZ 0041ec30 f i cTED.obj
 0001:0001dc80       ?allocate@?$_Wrap_alloc@V?$allocator@D@std@@@std@@QAEPADI@Z 0041ec80 f i cTED.obj
 0001:0001dcd0       ?allocate@?$_Wrap_alloc@V?$allocator@G@std@@@std@@QAEPAGI@Z 0041ecd0 f i cTED.obj
 0001:0001dd20       ?allocate@?$_Wrap_alloc@V?$allocator@U?$_Tree_node@U?$pair@$$CBHV?$basic_string@DU?$char_traits@D@std@@V?$allocator@D@2@@std@@@std@@PAX@std@@@std@@@std@@QAEPAU?$_Tree_node@U?$pair@$$CBHV?$basic_string@DU?$char_traits@D@std@@V?$allocator@D@2@@std@@@std@@PAX@2@I@Z 0041ed20 f i cTED.obj
 0001:0001dd70       ?allocate@?$allocator@D@std@@QAEPADI@Z 0041ed70 f i cTED.obj
 0001:0001ddc0       ?allocate@?$allocator@G@std@@QAEPAGI@Z 0041edc0 f i cTED.obj
 0001:0001de10       ?allocate@?$allocator@U?$_Tree_node@U?$pair@$$CBHV?$basic_string@DU?$char_traits@D@std@@V?$allocator@D@2@@std@@@std@@PAX@std@@@std@@QAEPAU?$_Tree_node@U?$pair@$$CBHV?$basic_string@DU?$char_traits@D@std@@V?$allocator@D@2@@std@@@std@@PAX@2@I@Z 0041ee10 f i cTED.obj
 0001:0001de60       ?assign@?$basic_string@DU?$char_traits@D@std@@V?$allocator@D@2@@std@@QAEAAV12@ABV12@II@Z 0041ee60 f i cTED.obj
 0001:0001df30       ?assign@?$basic_string@DU?$char_traits@D@std@@V?$allocator@D@2@@std@@QAEAAV12@PBD@Z 0041ef30 f i cTED.obj
 0001:0001dfa0       ?assign@?$basic_string@DU?$char_traits@D@std@@V?$allocator@D@2@@std@@QAEAAV12@PBDI@Z 0041efa0 f i cTED.obj
 0001:0001e080       ?assign@?$char_traits@D@std@@SAXAADABD@Z 0041f080 f i cTED.obj
 0001:0001e0b0       ?begin@?$_Tree@V?$_Tmap_traits@HV?$basic_string@DU?$char_traits@D@std@@V?$allocator@D@2@@std@@U?$less@H@2@V?$allocator@U?$pair@$$CBHV?$basic_string@DU?$char_traits@D@std@@V?$allocator@D@2@@std@@@std@@@2@$0A@@std@@@std@@QAE?AV?$_Tree_iterator@V?$_Tree_val@U?$_Tree_simple_types@U?$pair@$$CBHV?$basic_string@DU?$char_traits@D@std@@V?$allocator@D@2@@std@@@std@@@std@@@std@@@2@XZ 0041f0b0 f i cTED.obj
 0001:0001e140       ?c_str@?$basic_string@DU?$char_traits@D@std@@V?$allocator@D@2@@std@@QBEPBDXZ 0041f140 f i cTED.obj
 0001:0001e1b0       ?capacity@?$vector@GV?$allocator@G@std@@@std@@QBEIXZ 0041f1b0 f i cTED.obj
 0001:0001e210       ?clear@?$_Tree@V?$_Tmap_traits@HV?$basic_string@DU?$char_traits@D@std@@V?$allocator@D@2@@std@@U?$less@H@2@V?$allocator@U?$pair@$$CBHV?$basic_string@DU?$char_traits@D@std@@V?$allocator@D@2@@std@@@std@@@2@$0A@@std@@@std@@QAEXXZ 0041f210 f i cTED.obj
 0001:0001e2e0       ?compare@?$basic_string@DU?$char_traits@D@std@@V?$allocator@D@2@@std@@QBEHABV12@@Z 0041f2e0 f i cTED.obj
 0001:0001e380       ?compare@?$basic_string@DU?$char_traits@D@std@@V?$allocator@D@2@@std@@QBEHPBD@Z 0041f380 f i cTED.obj
 0001:0001e400       ?compare@?$char_traits@D@std@@SAHPBD0I@Z 0041f400 f i cTED.obj
 0001:0001e470       ?copy@?$char_traits@D@std@@SAPADPADPBDI@Z 0041f470 f i cTED.obj
 0001:0001e4e0       ?count@?$_Tree@V?$_Tmap_traits@HV?$basic_string@DU?$char_traits@D@std@@V?$allocator@D@2@@std@@U?$less@H@2@V?$allocator@U?$pair@$$CBHV?$basic_string@DU?$char_traits@D@std@@V?$allocator@D@2@@std@@@std@@@2@$0A@@std@@@std@@QBEIABH@Z 0041f4e0 f i cTED.obj
 0001:0001e600       ?data@?$vector@GV?$allocator@G@std@@@std@@QAEPAGXZ 0041f600 f i cTED.obj
 0001:0001e680       ?deallocate@?$_Wrap_alloc@V?$allocator@D@std@@@std@@QAEXPADI@Z 0041f680 f i cTED.obj
 0001:0001e6d0       ?deallocate@?$_Wrap_alloc@V?$allocator@G@std@@@std@@QAEXPAGI@Z 0041f6d0 f i cTED.obj
 0001:0001e720       ?deallocate@?$_Wrap_alloc@V?$allocator@U?$_Tree_node@U?$pair@$$CBHV?$basic_string@DU?$char_traits@D@std@@V?$allocator@D@2@@std@@@std@@PAX@std@@@std@@@std@@QAEXPAU?$_Tree_node@U?$pair@$$CBHV?$basic_string@DU?$char_traits@D@std@@V?$allocator@D@2@@std@@@std@@PAX@2@I@Z 0041f720 f i cTED.obj
 0001:0001e770       ?deallocate@?$allocator@D@std@@QAEXPADI@Z 0041f770 f i cTED.obj
 0001:0001e7c0       ?deallocate@?$allocator@G@std@@QAEXPAGI@Z 0041f7c0 f i cTED.obj
 0001:0001e810       ?deallocate@?$allocator@U?$_Tree_node@U?$pair@$$CBHV?$basic_string@DU?$char_traits@D@std@@V?$allocator@D@2@@std@@@std@@PAX@std@@@std@@QAEXPAU?$_Tree_node@U?$pair@$$CBHV?$basic_string@DU?$char_traits@D@std@@V?$allocator@D@2@@std@@@std@@PAX@2@I@Z 0041f810 f i cTED.obj
 0001:0001e860       ?end@?$_Tree@V?$_Tmap_traits@HV?$basic_string@DU?$char_traits@D@std@@V?$allocator@D@2@@std@@U?$less@H@2@V?$allocator@U?$pair@$$CBHV?$basic_string@DU?$char_traits@D@std@@V?$allocator@D@2@@std@@@std@@@2@$0A@@std@@@std@@QAE?AV?$_Tree_iterator@V?$_Tree_val@U?$_Tree_simple_types@U?$pair@$$CBHV?$basic_string@DU?$char_traits@D@std@@V?$allocator@D@2@@std@@@std@@@std@@@std@@@2@XZ 0041f860 f i cTED.obj
 0001:0001e8f0       ?equal_range@?$_Tree@V?$_Tmap_traits@HV?$basic_string@DU?$char_traits@D@std@@V?$allocator@D@2@@std@@U?$less@H@2@V?$allocator@U?$pair@$$CBHV?$basic_string@DU?$char_traits@D@std@@V?$allocator@D@2@@std@@@std@@@2@$0A@@std@@@std@@QBE?AU?$pair@V?$_Tree_const_iterator@V?$_Tree_val@U?$_Tree_simple_types@U?$pair@$$CBHV?$basic_string@DU?$char_traits@D@std@@V?$allocator@D@2@@std@@@std@@@std@@@std@@@std@@V12@@2@ABH@Z 0041f8f0 f i cTED.obj
 0001:0001e960       ?erase@?$_Tree@V?$_Tmap_traits@HV?$basic_string@DU?$char_traits@D@std@@V?$allocator@D@2@@std@@U?$less@H@2@V?$allocator@U?$pair@$$CBHV?$basic_string@DU?$char_traits@D@std@@V?$allocator@D@2@@std@@@std@@@2@$0A@@std@@@std@@QAE?AV?$_Tree_iterator@V?$_Tree_val@U?$_Tree_simple_types@U?$pair@$$CBHV?$basic_string@DU?$char_traits@D@std@@V?$allocator@D@2@@std@@@std@@@std@@@std@@@2@V?$_Tree_const_iterator@V?$_Tree_val@U?$_Tree_simple_types@U?$pair@$$CBHV?$basic_string@DU?$char_traits@D@std@@V?$allocator@D@2@@std@@@std@@@std@@@std@@@2@0@Z 0041f960 f i cTED.obj
 0001:0001ebe0       ?erase@?$_Tree@V?$_Tmap_traits@HV?$basic_string@DU?$char_traits@D@std@@V?$allocator@D@2@@std@@U?$less@H@2@V?$allocator@U?$pair@$$CBHV?$basic_string@DU?$char_traits@D@std@@V?$allocator@D@2@@std@@@std@@@2@$0A@@std@@@std@@QAE?AV?$_Tree_iterator@V?$_Tree_val@U?$_Tree_simple_types@U?$pair@$$CBHV?$basic_string@DU?$char_traits@D@std@@V?$allocator@D@2@@std@@@std@@@std@@@std@@@2@V?$_Tree_const_iterator@V?$_Tree_val@U?$_Tree_simple_types@U?$pair@$$CBHV?$basic_string@DU?$char_traits@D@std@@V?$allocator@D@2@@std@@@std@@@std@@@std@@@2@@Z 0041fbe0 f i cTED.obj
 0001:0001f460       ?erase@?$basic_string@DU?$char_traits@D@std@@V?$allocator@D@2@@std@@QAEAAV12@I@Z 00420460 f i cTED.obj
 0001:0001f4c0       ?erase@?$basic_string@DU?$char_traits@D@std@@V?$allocator@D@2@@std@@QAEAAV12@II@Z 004204c0 f i cTED.obj
 0001:0001f580       ?length@?$char_traits@D@std@@SAIPBD@Z 00420580 f i cTED.obj
 0001:0001f5e0       ?lower_bound@?$_Tree@V?$_Tmap_traits@HV?$basic_string@DU?$char_traits@D@std@@V?$allocator@D@2@@std@@U?$less@H@2@V?$allocator@U?$pair@$$CBHV?$basic_string@DU?$char_traits@D@std@@V?$allocator@D@2@@std@@@std@@@2@$0A@@std@@@std@@QAE?AV?$_Tree_iterator@V?$_Tree_val@U?$_Tree_simple_types@U?$pair@$$CBHV?$basic_string@DU?$char_traits@D@std@@V?$allocator@D@2@@std@@@std@@@std@@@std@@@2@ABH@Z 004205e0 f i cTED.obj
 0001:0001f660       ?max_size@?$_Tree@V?$_Tmap_traits@HV?$basic_string@DU?$char_traits@D@std@@V?$allocator@D@2@@std@@U?$less@H@2@V?$allocator@U?$pair@$$CBHV?$basic_string@DU?$char_traits@D@std@@V?$allocator@D@2@@std@@@std@@@2@$0A@@std@@@std@@QBEIXZ 00420660 f i cTED.obj
 0001:0001f6b0       ?max_size@?$_Wrap_alloc@V?$allocator@D@std@@@std@@QBEIU_Nil@2@@Z 004206b0 f i cTED.obj
 0001:0001f700       ?max_size@?$_Wrap_alloc@V?$allocator@G@std@@@std@@QBEIU_Nil@2@@Z 00420700 f i cTED.obj
 0001:0001f750       ?max_size@?$_Wrap_alloc@V?$allocator@U?$_Tree_node@U?$pair@$$CBHV?$basic_string@DU?$char_traits@D@std@@V?$allocator@D@2@@std@@@std@@PAX@std@@@std@@@std@@QBEIU_Nil@2@@Z 00420750 f i cTED.obj
 0001:0001f7a0       ?max_size@?$allocator@D@std@@QBEIXZ 004207a0 f i cTED.obj
 0001:0001f7d0       ?max_size@?$allocator@G@std@@QBEIXZ 004207d0 f i cTED.obj
 0001:0001f800       ?max_size@?$allocator@U?$_Tree_node@U?$pair@$$CBHV?$basic_string@DU?$char_traits@D@std@@V?$allocator@D@2@@std@@@std@@PAX@std@@@std@@QBEIXZ 00420800 f i cTED.obj
 0001:0001f830       ?max_size@?$allocator_traits@V?$allocator@D@std@@@std@@SAIABV?$allocator@D@2@@Z 00420830 f i cTED.obj
 0001:0001f870       ?max_size@?$allocator_traits@V?$allocator@G@std@@@std@@SAIABV?$allocator@G@2@@Z 00420870 f i cTED.obj
 0001:0001f8b0       ?max_size@?$allocator_traits@V?$allocator@U?$_Tree_node@U?$pair@$$CBHV?$basic_string@DU?$char_traits@D@std@@V?$allocator@D@2@@std@@@std@@PAX@std@@@std@@@std@@SAIABV?$allocator@U?$_Tree_node@U?$pair@$$CBHV?$basic_string@DU?$char_traits@D@std@@V?$allocator@D@2@@std@@@std@@PAX@std@@@2@@Z 004208b0 f i cTED.obj
 0001:0001f8f0       ?max_size@?$basic_string@DU?$char_traits@D@std@@V?$allocator@D@2@@std@@QBEIXZ 004208f0 f i cTED.obj
 0001:0001f970       ?max_size@?$vector@GV?$allocator@G@std@@@std@@QBEIXZ 00420970 f i cTED.obj
 0001:0001f9c0       ?move@?$char_traits@D@std@@SAPADPADPBDI@Z 004209c0 f i cTED.obj
 0001:0001fa30       ?pointer_to@?$pointer_traits@PAU?$pair@$$CBHV?$basic_string@DU?$char_traits@D@std@@V?$allocator@D@2@@std@@@std@@@std@@SAPAU?$pair@$$CBHV?$basic_string@DU?$char_traits@D@std@@V?$allocator@D@2@@std@@@2@AAU32@@Z 00420a30 f i cTED.obj
 0001:0001fa70       ?push_back@?$vector@GV?$allocator@G@std@@@std@@QAEXABG@Z 00420a70 f i cTED.obj
 0001:0001fc20       ?select_on_container_copy_construction@?$_Wrap_alloc@V?$allocator@D@std@@@std@@QBE?AU12@U_Nil@2@@Z 00420c20 f i cTED.obj
 0001:0001fc80       ?select_on_container_copy_construction@?$allocator_traits@V?$allocator@D@std@@@std@@SA?AV?$allocator@D@2@ABV32@@Z 00420c80 f i cTED.obj
 0001:0001fcd0       ?size@?$_Tree@V?$_Tmap_traits@HV?$basic_string@DU?$char_traits@D@std@@V?$allocator@D@2@@std@@U?$less@H@2@V?$allocator@U?$pair@$$CBHV?$basic_string@DU?$char_traits@D@std@@V?$allocator@D@2@@std@@@std@@@2@$0A@@std@@@std@@QBEIXZ 00420cd0 f i cTED.obj
 0001:0001fd20       ?size@?$vector@GV?$allocator@G@std@@@std@@QBEIXZ 00420d20 f i cTED.obj
 0001:0001fd80       ??0cTSAEditorClass@@QAE@XZ 00420d80 f   cTSAEditorClass.obj
 0001:0001fe80       ??1cTSAEditorClass@@QAE@XZ 00420e80 f   cTSAEditorClass.obj
 0001:0001ff60       ?Create@cTSAEditorClass@@QAEHXZ 00420f60 f   cTSAEditorClass.obj
 0001:000203b0       ?CreatePreviewWind@cTSAEditorClass@@QAEHXZ 004213b0 f   cTSAEditorClass.obj
 0001:000204e0       ?CreateTilesetWind@cTSAEditorClass@@QAEHXZ 004214e0 f   cTSAEditorClass.obj
 0001:00020670       ?DrawPreview@cTSAEditorClass@@QAEHXZ 00421670 f   cTSAEditorClass.obj
 0001:00020890       ?DrawThisTileset@cTSAEditorClass@@QAEHXZ 00421890 f   cTSAEditorClass.obj
 0001:00020990       ?LoadTSA@cTSAEditorClass@@QAEHXZ 00421990 f   cTSAEditorClass.obj
 0001:00020b50       ?SaveBlock@cTSAEditorClass@@QAEHXZ 00421b50 f   cTSAEditorClass.obj
 0001:00020d20       ??A?$vector@HV?$allocator@H@std@@@std@@QAEAAHI@Z 00421d20 f i Door Connections.obj
 0001:00020e00       ??A?$vector@VvDoor@@V?$allocator@VvDoor@@@std@@@std@@QAEAAVvDoor@@I@Z 00421e00 f i Door Connections.obj
 0001:00020ee0       ?DoesaBridgeExist@@YAHXZ   00421ee0 f   Door Connections.obj
 0001:00021240       ?EnableConnections@@YAHXZ  00422240 f   Door Connections.obj
 0001:00021440       ?SetConnections@@YAHE@Z    00422440 f   Door Connections.obj
 0001:00021500       ?UserEnableConnections@@YAHXZ 00422500 f   Door Connections.obj
 0001:00021630       ?_Get_data@?$_Vector_alloc@U?$_Vec_base_types@HV?$allocator@H@std@@@std@@@std@@QAEAAV?$_Vector_val@U?$_Simple_types@H@std@@@2@XZ 00422630 f i Door Connections.obj
 0001:00021670       ?_Get_data@?$_Vector_alloc@U?$_Vec_base_types@HV?$allocator@H@std@@@std@@@std@@QBEABV?$_Vector_val@U?$_Simple_types@H@std@@@2@XZ 00422670 f i Door Connections.obj
 0001:000216b0       ?_Get_data@?$_Vector_alloc@U?$_Vec_base_types@VvDoor@@V?$allocator@VvDoor@@@std@@@std@@@std@@QAEAAV?$_Vector_val@U?$_Simple_types@VvDoor@@@std@@@2@XZ 004226b0 f i Door Connections.obj
 0001:000216f0       ?_Get_data@?$_Vector_alloc@U?$_Vec_base_types@VvDoor@@V?$allocator@VvDoor@@@std@@@std@@@std@@QBEABV?$_Vector_val@U?$_Simple_types@VvDoor@@@std@@@2@XZ 004226f0 f i Door Connections.obj
 0001:00021730       ?_Get_second@?$_Compressed_pair@U?$_Wrap_alloc@V?$allocator@H@std@@@std@@V?$_Vector_val@U?$_Simple_types@H@std@@@2@$00@std@@QAEAAV?$_Vector_val@U?$_Simple_types@H@std@@@2@XZ 00422730 f i Door Connections.obj
 0001:00021760       ?_Get_second@?$_Compressed_pair@U?$_Wrap_alloc@V?$allocator@H@std@@@std@@V?$_Vector_val@U?$_Simple_types@H@std@@@2@$00@std@@QBEABV?$_Vector_val@U?$_Simple_types@H@std@@@2@XZ 00422760 f i Door Connections.obj
 0001:00021790       ?_Get_second@?$_Compressed_pair@U?$_Wrap_alloc@V?$allocator@VvDoor@@@std@@@std@@V?$_Vector_val@U?$_Simple_types@VvDoor@@@std@@@2@$00@std@@QAEAAV?$_Vector_val@U?$_Simple_types@VvDoor@@@std@@@2@XZ 00422790 f i Door Connections.obj
 0001:000217c0       ?_Get_second@?$_Compressed_pair@U?$_Wrap_alloc@V?$allocator@VvDoor@@@std@@@std@@V?$_Vector_val@U?$_Simple_types@VvDoor@@@std@@@2@$00@std@@QBEABV?$_Vector_val@U?$_Simple_types@VvDoor@@@std@@@2@XZ 004227c0 f i Door Connections.obj
 0001:000217f0       ?_Myfirst@?$_Vector_alloc@U?$_Vec_base_types@HV?$allocator@H@std@@@std@@@std@@QAEAAPAHXZ 004227f0 f i Door Connections.obj
 0001:00021840       ?_Myfirst@?$_Vector_alloc@U?$_Vec_base_types@HV?$allocator@H@std@@@std@@@std@@QBEABQAHXZ 00422840 f i Door Connections.obj
 0001:00021890       ?_Myfirst@?$_Vector_alloc@U?$_Vec_base_types@VvDoor@@V?$allocator@VvDoor@@@std@@@std@@@std@@QAEAAPAVvDoor@@XZ 00422890 f i Door Connections.obj
 0001:000218e0       ?_Myfirst@?$_Vector_alloc@U?$_Vec_base_types@VvDoor@@V?$allocator@VvDoor@@@std@@@std@@@std@@QBEABQAVvDoor@@XZ 004228e0 f i Door Connections.obj
 0001:00021930       ?_Mylast@?$_Vector_alloc@U?$_Vec_base_types@HV?$allocator@H@std@@@std@@@std@@QBEABQAHXZ 00422930 f i Door Connections.obj
 0001:00021980       ?_Mylast@?$_Vector_alloc@U?$_Vec_base_types@VvDoor@@V?$allocator@VvDoor@@@std@@@std@@@std@@QBEABQAVvDoor@@XZ 00422980 f i Door Connections.obj
 0001:000219d0       ?size@?$vector@HV?$allocator@H@std@@@std@@QBEIXZ 004229d0 f i Door Connections.obj
 0001:00021a30       ?size@?$vector@VvDoor@@V?$allocator@VvDoor@@@std@@@std@@QBEIXZ 00422a30 f i Door Connections.obj
 0001:00021a90       ?ConnControls@@YAH_N@Z     00422a90 f   frmDoor.obj
 0001:00021b60       ?ConnectDoor@DoorManager@@QAEHE@Z 00422b60 f   frmDoor.obj
 0001:00021de0       ?DwProc@@YGHPAUHWND__@@IIJ@Z 00422de0 f   frmDoor.obj
 0001:00022360       ?LoadThisDoor@DoorManager@@QAEHH@Z 00423360 f   frmDoor.obj
 0001:000226e0       ?SaveConnections@@YAHXZ    004236e0 f   frmDoor.obj
 0001:000229a0       ?SaveThisDoor@DoorManager@@QAEHH@Z 004239a0 f   frmDoor.obj
 0001:00022e80       ?MapDataProc@@YGHPAUHWND__@@IIJ@Z 00423e80 f   frmMapData.obj
 0001:00022f80       ??$?0$$QAV?$basic_string@DU?$char_traits@D@std@@V?$allocator@D@2@@std@@$$Z$$V@?$pair@$$CBV?$basic_string@DU?$char_traits@D@std@@V?$allocator@D@2@@std@@H@std@@QAE@Upiecewise_construct_t@1@V?$tuple@$$QAV?$basic_string@DU?$char_traits@D@std@@V?$allocator@D@2@@std@@@1@V?$tuple@$$V@1@@Z 00423f80 f i frmSamusEditor.obj
 0001:00022fe0       ??$?0AAV?$_Tree_iterator@V?$_Tree_val@U?$_Tree_simple_types@U?$pair@$$CBV?$basic_string@DU?$char_traits@D@std@@V?$allocator@D@2@@std@@H@std@@@std@@@std@@@std@@_NX$0A@@?$pair@V?$_Tree_iterator@V?$_Tree_val@U?$_Tree_simple_types@U?$pair@$$CBV?$basic_string@DU?$char_traits@D@std@@V?$allocator@D@2@@std@@H@std@@@std@@@std@@@std@@_N@std@@QAE@AAV?$_Tree_iterator@V?$_Tree_val@U?$_Tree_simple_types@U?$pair@$$CBV?$basic_string@DU?$char_traits@D@std@@V?$allocator@D@2@@std@@H@std@@@std@@@std@@@1@$$QA_N@Z 00423fe0 f i frmSamusEditor.obj
 0001:00023050       ??$?0ABV?$basic_string@DU?$char_traits@D@std@@V?$allocator@D@2@@std@@$$Z$$V@?$pair@$$CBV?$basic_string@DU?$char_traits@D@std@@V?$allocator@D@2@@std@@H@std@@QAE@Upiecewise_construct_t@1@V?$tuple@ABV?$basic_string@DU?$char_traits@D@std@@V?$allocator@D@2@@std@@@1@V?$tuple@$$V@1@@Z 00424050 f i frmSamusEditor.obj
 0001:000230b0       ??$?0ABV?$basic_string@DU?$char_traits@D@std@@V?$allocator@D@2@@std@@$0A@@?$tuple@ABV?$basic_string@DU?$char_traits@D@std@@V?$allocator@D@2@@std@@@std@@QAE@ABV?$basic_string@DU?$char_traits@D@std@@V?$allocator@D@2@@1@@Z 004240b0 f i frmSamusEditor.obj
 0001:00023110       ??$?0ABV?$basic_string@DU?$char_traits@D@std@@V?$allocator@D@2@@std@@@?$_Tuple_val@ABV?$basic_string@DU?$char_traits@D@std@@V?$allocator@D@2@@std@@@std@@QAE@ABV?$basic_string@DU?$char_traits@D@std@@V?$allocator@D@2@@1@@Z 00424110 f i frmSamusEditor.obj
 0001:00023160       ??$?0V?$_Tree_iterator@V?$_Tree_val@U?$_Tree_simple_types@U?$pair@$$CBV?$basic_string@DU?$char_traits@D@std@@V?$allocator@D@2@@std@@H@std@@@std@@@std@@@std@@_NX$0A@@?$pair@V?$_Tree_iterator@V?$_Tree_val@U?$_Tree_simple_types@U?$pair@$$CBV?$basic_string@DU?$char_traits@D@std@@V?$allocator@D@2@@std@@H@std@@@std@@@std@@@std@@_N@std@@QAE@$$QAV?$_Tree_iterator@V?$_Tree_val@U?$_Tree_simple_types@U?$pair@$$CBV?$basic_string@DU?$char_traits@D@std@@V?$allocator@D@2@@std@@H@std@@@std@@@std@@@1@$$QA_N@Z 00424160 f i frmSamusEditor.obj
 0001:000231d0       ??$?0V?$basic_string@DU?$char_traits@D@std@@V?$allocator@D@2@@std@@$$V$0A@@?$tuple@$$QAV?$basic_string@DU?$char_traits@D@std@@V?$allocator@D@2@@std@@@std@@QAE@$$QAV?$basic_string@DU?$char_traits@D@std@@V?$allocator@D@2@@1@@Z 004241d0 f i frmSamusEditor.obj
 0001:00023240       ??$?0V?$basic_string@DU?$char_traits@D@std@@V?$allocator@D@2@@std@@@?$_Tuple_val@$$QAV?$basic_string@DU?$char_traits@D@std@@V?$allocator@D@2@@std@@@std@@QAE@$$QAV?$basic_string@DU?$char_traits@D@std@@V?$allocator@D@2@@1@@Z 00424240 f i frmSamusEditor.obj
 0001:00023290       ??$?0V?$tuple@$$QAV?$basic_string@DU?$char_traits@D@std@@V?$allocator@D@2@@std@@@std@@V?$tuple@$$V@1@$0A@$$Z$S@?$pair@$$CBV?$basic_string@DU?$char_traits@D@std@@V?$allocator@D@2@@std@@H@std@@QAE@AAV?$tuple@$$QAV?$basic_string@DU?$char_traits@D@std@@V?$allocator@D@2@@std@@@1@AAV?$tuple@$$V@1@U?$integer_sequence@I$0A@@1@U?$integer_sequence@I$S@1@@Z 00424290 f i frmSamusEditor.obj
 0001:00023300       ??$?0V?$tuple@ABV?$basic_string@DU?$char_traits@D@std@@V?$allocator@D@2@@std@@@std@@V?$tuple@$$V@1@$0A@$$Z$S@?$pair@$$CBV?$basic_string@DU?$char_traits@D@std@@V?$allocator@D@2@@std@@H@std@@QAE@AAV?$tuple@ABV?$basic_string@DU?$char_traits@D@std@@V?$allocator@D@2@@std@@@1@AAV?$tuple@$$V@1@U?$integer_sequence@I$0A@@1@U?$integer_sequence@I$S@1@@Z 00424300 f i frmSamusEditor.obj
 0001:00023370       ??$?MDU?$char_traits@D@std@@V?$allocator@D@1@@std@@YA_NABV?$basic_string@DU?$char_traits@D@std@@V?$allocator@D@2@@0@0@Z 00424370 f i frmSamusEditor.obj
 0001:000233d0       ??$_Buynode@ABUpiecewise_construct_t@std@@V?$tuple@$$QAV?$basic_string@DU?$char_traits@D@std@@V?$allocator@D@2@@std@@@2@V?$tuple@$$V@2@@?$_Tree_comp_alloc@V?$_Tmap_traits@V?$basic_string@DU?$char_traits@D@std@@V?$allocator@D@2@@std@@HU?$less@V?$basic_string@DU?$char_traits@D@std@@V?$allocator@D@2@@std@@@2@V?$allocator@U?$pair@$$CBV?$basic_string@DU?$char_traits@D@std@@V?$allocator@D@2@@std@@H@std@@@2@$0A@@std@@@std@@QAEPAU?$_Tree_node@U?$pair@$$CBV?$basic_string@DU?$char_traits@D@std@@V?$allocator@D@2@@std@@H@std@@PAX@1@ABUpiecewise_construct_t@1@$$QAV?$tuple@$$QAV?$basic_string@DU?$char_traits@D@std@@V?$allocator@D@2@@std@@@1@$$QAV?$tuple@$$V@1@@Z 004243d0 f i frmSamusEditor.obj
 0001:000234f0       ??$_Buynode@ABUpiecewise_construct_t@std@@V?$tuple@ABV?$basic_string@DU?$char_traits@D@std@@V?$allocator@D@2@@std@@@2@V?$tuple@$$V@2@@?$_Tree_comp_alloc@V?$_Tmap_traits@V?$basic_string@DU?$char_traits@D@std@@V?$allocator@D@2@@std@@HU?$less@V?$basic_string@DU?$char_traits@D@std@@V?$allocator@D@2@@std@@@2@V?$allocator@U?$pair@$$CBV?$basic_string@DU?$char_traits@D@std@@V?$allocator@D@2@@std@@H@std@@@2@$0A@@std@@@std@@QAEPAU?$_Tree_node@U?$pair@$$CBV?$basic_string@DU?$char_traits@D@std@@V?$allocator@D@2@@std@@H@std@@PAX@1@ABUpiecewise_construct_t@1@$$QAV?$tuple@ABV?$basic_string@DU?$char_traits@D@std@@V?$allocator@D@2@@std@@@1@$$QAV?$tuple@$$V@1@@Z 004244f0 f i frmSamusEditor.obj
 0001:00023610       ??$_Buynode_if_nil@AAU?$pair@$$CBV?$basic_string@DU?$char_traits@D@std@@V?$allocator@D@2@@std@@H@std@@@?$_Tree@V?$_Tmap_traits@V?$basic_string@DU?$char_traits@D@std@@V?$allocator@D@2@@std@@HU?$less@V?$basic_string@DU?$char_traits@D@std@@V?$allocator@D@2@@std@@@2@V?$allocator@U?$pair@$$CBV?$basic_string@DU?$char_traits@D@std@@V?$allocator@D@2@@std@@H@std@@@2@$0A@@std@@@std@@IAEPAU?$_Tree_node@U?$pair@$$CBV?$basic_string@DU?$char_traits@D@std@@V?$allocator@D@2@@std@@H@std@@PAX@1@PAU21@AAU?$pair@$$CBV?$basic_string@DU?$char_traits@D@std@@V?$allocator@D@2@@std@@H@1@@Z 00424610 f i frmSamusEditor.obj
 0001:00023640       ??$_Copy_memmove@PAUOverAllOAM@@PAU1@@std@@YAPAUOverAllOAM@@PAU1@00@Z 00424640 f i frmSamusEditor.obj
 0001:000236c0       ??$_Debug_lt_pred@AAU?$less@V?$basic_string@DU?$char_traits@D@std@@V?$allocator@D@2@@std@@@std@@AAV?$basic_string@DU?$char_traits@D@std@@V?$allocator@D@2@@2@ABV32@@std@@YA_NAAU?$less@V?$basic_string@DU?$char_traits@D@std@@V?$allocator@D@2@@std@@@0@AAV?$basic_string@DU?$char_traits@D@std@@V?$allocator@D@2@@0@ABV20@PB_WI@Z 004246c0 f i frmSamusEditor.obj
 0001:00023770       ??$_Debug_lt_pred@AAU?$less@V?$basic_string@DU?$char_traits@D@std@@V?$allocator@D@2@@std@@@std@@ABV?$basic_string@DU?$char_traits@D@std@@V?$allocator@D@2@@2@ABV32@@std@@YA_NAAU?$less@V?$basic_string@DU?$char_traits@D@std@@V?$allocator@D@2@@std@@@0@ABV?$basic_string@DU?$char_traits@D@std@@V?$allocator@D@2@@0@1PB_WI@Z 00424770 f i frmSamusEditor.obj
 0001:00023820       ??$_Debug_lt_pred@ABU?$less@V?$basic_string@DU?$char_traits@D@std@@V?$allocator@D@2@@std@@@std@@ABV?$basic_string@DU?$char_traits@D@std@@V?$allocator@D@2@@2@ABV32@@std@@YA_NABU?$less@V?$basic_string@DU?$char_traits@D@std@@V?$allocator@D@2@@std@@@0@ABV?$basic_string@DU?$char_traits@D@std@@V?$allocator@D@2@@0@1PB_WI@Z 00424820 f i frmSamusEditor.obj
 0001:000238d0       ??$_Destroy_range1@V?$allocator@UOverAllOAM@@@std@@PAUOverAllOAM@@@std@@YAXPAUOverAllOAM@@0AAU?$_Wrap_alloc@V?$allocator@UOverAllOAM@@@std@@@0@U?$integral_constant@_N$00@0@@Z 004248d0 f i frmSamusEditor.obj
 0001:00023900       ??$_Destroy_range@V?$allocator@UOverAllOAM@@@std@@PAUOverAllOAM@@@std@@YAXPAUOverAllOAM@@0AAU?$_Wrap_alloc@V?$allocator@UOverAllOAM@@@std@@@0@@Z 00424900 f i frmSamusEditor.obj
 0001:00023950       ??$_Insert_at@AAU?$pair@$$CBV?$basic_string@DU?$char_traits@D@std@@V?$allocator@D@2@@std@@H@std@@PAU?$_Tree_node@U?$pair@$$CBV?$basic_string@DU?$char_traits@D@std@@V?$allocator@D@2@@std@@H@std@@PAX@2@@?$_Tree@V?$_Tmap_traits@V?$basic_string@DU?$char_traits@D@std@@V?$allocator@D@2@@std@@HU?$less@V?$basic_string@DU?$char_traits@D@std@@V?$allocator@D@2@@std@@@2@V?$allocator@U?$pair@$$CBV?$basic_string@DU?$char_traits@D@std@@V?$allocator@D@2@@std@@H@std@@@2@$0A@@std@@@std@@IAE?AV?$_Tree_iterator@V?$_Tree_val@U?$_Tree_simple_types@U?$pair@$$CBV?$basic_string@DU?$char_traits@D@std@@V?$allocator@D@2@@std@@H@std@@@std@@@std@@@1@_NPAU?$_Tree_node@U?$pair@$$CBV?$basic_string@DU?$char_traits@D@std@@V?$allocator@D@2@@std@@H@std@@PAX@1@AAU?$pair@$$CBV?$basic_string@DU?$char_traits@D@std@@V?$allocator@D@2@@std@@H@1@1@Z 00424950 f i frmSamusEditor.obj
 0001:00023df0       ??$_Insert_hint@AAU?$pair@$$CBV?$basic_string@DU?$char_traits@D@std@@V?$allocator@D@2@@std@@H@std@@PAU?$_Tree_node@U?$pair@$$CBV?$basic_string@DU?$char_traits@D@std@@V?$allocator@D@2@@std@@H@std@@PAX@2@@?$_Tree@V?$_Tmap_traits@V?$basic_string@DU?$char_traits@D@std@@V?$allocator@D@2@@std@@HU?$less@V?$basic_string@DU?$char_traits@D@std@@V?$allocator@D@2@@std@@@2@V?$allocator@U?$pair@$$CBV?$basic_string@DU?$char_traits@D@std@@V?$allocator@D@2@@std@@H@std@@@2@$0A@@std@@@std@@IAE?AV?$_Tree_iterator@V?$_Tree_val@U?$_Tree_simple_types@U?$pair@$$CBV?$basic_string@DU?$char_traits@D@std@@V?$allocator@D@2@@std@@H@std@@@std@@@std@@@1@V?$_Tree_const_iterator@V?$_Tree_val@U?$_Tree_simple_types@U?$pair@$$CBV?$basic_string@DU?$char_traits@D@std@@V?$allocator@D@2@@std@@H@std@@@std@@@std@@@1@AAU?$pair@$$CBV?$basic_string@DU?$char_traits@D@std@@V?$allocator@D@2@@std@@H@1@PAU?$_Tree_node@U?$pair@$$CBV?$basic_string@DU?$char_traits@D@std@@V?$allocator@D@2@@std@@H@std@@PAX@1@@Z 00424df0 f i frmSamusEditor.obj
 0001:00024f00       ??$_Insert_nohint@AAU?$pair@$$CBV?$basic_string@DU?$char_traits@D@std@@V?$allocator@D@2@@std@@H@std@@PAU?$_Tree_node@U?$pair@$$CBV?$basic_string@DU?$char_traits@D@std@@V?$allocator@D@2@@std@@H@std@@PAX@2@@?$_Tree@V?$_Tmap_traits@V?$basic_string@DU?$char_traits@D@std@@V?$allocator@D@2@@std@@HU?$less@V?$basic_string@DU?$char_traits@D@std@@V?$allocator@D@2@@std@@@2@V?$allocator@U?$pair@$$CBV?$basic_string@DU?$char_traits@D@std@@V?$allocator@D@2@@std@@H@std@@@2@$0A@@std@@@std@@IAE?AU?$pair@V?$_Tree_iterator@V?$_Tree_val@U?$_Tree_simple_types@U?$pair@$$CBV?$basic_string@DU?$char_traits@D@std@@V?$allocator@D@2@@std@@H@std@@@std@@@std@@@std@@_N@1@_NAAU?$pair@$$CBV?$basic_string@DU?$char_traits@D@std@@V?$allocator@D@2@@std@@H@1@PAU?$_Tree_node@U?$pair@$$CBV?$basic_string@DU?$char_traits@D@std@@V?$allocator@D@2@@std@@H@std@@PAX@1@@Z 00425f00 f i frmSamusEditor.obj
 0001:00025470       ??$_Kfn@$$CBV?$basic_string@DU?$char_traits@D@std@@V?$allocator@D@2@@std@@H@?$_Tmap_traits@V?$basic_string@DU?$char_traits@D@std@@V?$allocator@D@2@@std@@HU?$less@V?$basic_string@DU?$char_traits@D@std@@V?$allocator@D@2@@std@@@2@V?$allocator@U?$pair@$$CBV?$basic_string@DU?$char_traits@D@std@@V?$allocator@D@2@@std@@H@std@@@2@$0A@@std@@SAABV?$basic_string@DU?$char_traits@D@std@@V?$allocator@D@2@@1@ABU?$pair@$$CBV?$basic_string@DU?$char_traits@D@std@@V?$allocator@D@2@@std@@H@1@@Z 00426470 f i frmSamusEditor.obj
 0001:000254a0       ??$_Lbound@V?$basic_string@DU?$char_traits@D@std@@V?$allocator@D@2@@std@@@?$_Tree@V?$_Tmap_traits@V?$basic_string@DU?$char_traits@D@std@@V?$allocator@D@2@@std@@HU?$less@V?$basic_string@DU?$char_traits@D@std@@V?$allocator@D@2@@std@@@2@V?$allocator@U?$pair@$$CBV?$basic_string@DU?$char_traits@D@std@@V?$allocator@D@2@@std@@H@std@@@2@$0A@@std@@@std@@IBEPAU?$_Tree_node@U?$pair@$$CBV?$basic_string@DU?$char_traits@D@std@@V?$allocator@D@2@@std@@H@std@@PAX@1@ABV?$basic_string@DU?$char_traits@D@std@@V?$allocator@D@2@@1@@Z 004264a0 f i frmSamusEditor.obj
 0001:00025560       ??$_Ptr_move_cat@UOverAllOAM@@U1@@std@@YA?AU_Really_trivial_ptr_iterator_tag@0@ABQAUOverAllOAM@@0@Z 00426560 f i frmSamusEditor.obj
 0001:00025590       ??$_Rechecked@PAUOverAllOAM@@PAU1@@std@@YAAAPAUOverAllOAM@@AAPAU1@PAU1@@Z 00426590 f i frmSamusEditor.obj
 0001:000255c0       ??$_Try_emplace@ABV?$basic_string@DU?$char_traits@D@std@@V?$allocator@D@2@@std@@$$V@?$map@V?$basic_string@DU?$char_traits@D@std@@V?$allocator@D@2@@std@@HU?$less@V?$basic_string@DU?$char_traits@D@std@@V?$allocator@D@2@@std@@@2@V?$allocator@U?$pair@$$CBV?$basic_string@DU?$char_traits@D@std@@V?$allocator@D@2@@std@@H@std@@@2@@std@@QAE?AU?$pair@V?$_Tree_iterator@V?$_Tree_val@U?$_Tree_simple_types@U?$pair@$$CBV?$basic_string@DU?$char_traits@D@std@@V?$allocator@D@2@@std@@H@std@@@std@@@std@@@std@@_N@1@ABV?$basic_string@DU?$char_traits@D@std@@V?$allocator@D@2@@1@@Z 004265c0 f i frmSamusEditor.obj
 0001:00025860       ??$_Try_emplace@V?$basic_string@DU?$char_traits@D@std@@V?$allocator@D@2@@std@@$$V@?$map@V?$basic_string@DU?$char_traits@D@std@@V?$allocator@D@2@@std@@HU?$less@V?$basic_string@DU?$char_traits@D@std@@V?$allocator@D@2@@std@@@2@V?$allocator@U?$pair@$$CBV?$basic_string@DU?$char_traits@D@std@@V?$allocator@D@2@@std@@H@std@@@2@@std@@QAE?AU?$pair@V?$_Tree_iterator@V?$_Tree_val@U?$_Tree_simple_types@U?$pair@$$CBV?$basic_string@DU?$char_traits@D@std@@V?$allocator@D@2@@std@@H@std@@@std@@@std@@@std@@_N@1@$$QAV?$basic_string@DU?$char_traits@D@std@@V?$allocator@D@2@@1@@Z 00426860 f i frmSamusEditor.obj
 0001:00025b00       ??$_Umove@PAUOverAllOAM@@@?$vector@UOverAllOAM@@V?$allocator@UOverAllOAM@@@std@@@std@@IAEPAUOverAllOAM@@PAU2@00@Z 00426b00 f i frmSamusEditor.obj
 0001:00025b60       ??$_Unchecked@PAUOverAllOAM@@@std@@YAPAUOverAllOAM@@PAU1@@Z 00426b60 f i frmSamusEditor.obj
 0001:00025b90       ??$_Unfancy@UOverAllOAM@@@std@@YAPAUOverAllOAM@@PAU1@@Z 00426b90 f i frmSamusEditor.obj
 0001:00025bc0       ??$_Uninitialized_move@PAUOverAllOAM@@PAU1@V?$allocator@UOverAllOAM@@@std@@@std@@YAPAUOverAllOAM@@PAU1@00AAU?$_Wrap_alloc@V?$allocator@UOverAllOAM@@@std@@@0@@Z 00426bc0 f i frmSamusEditor.obj
 0001:00025c40       ??$_Uninitialized_move_al_unchecked1@UOverAllOAM@@U1@V?$allocator@UOverAllOAM@@@std@@@std@@YAPAUOverAllOAM@@PAU1@00AAU?$_Wrap_alloc@V?$allocator@UOverAllOAM@@@std@@@0@U_Really_trivial_ptr_iterator_tag@0@U?$integral_constant@_N$00@0@@Z 00426c40 f i frmSamusEditor.obj
 0001:00025c90       ??$_Uninitialized_move_al_unchecked@PAUOverAllOAM@@PAU1@V?$allocator@UOverAllOAM@@@std@@@std@@YAPAUOverAllOAM@@PAU1@00AAU?$_Wrap_alloc@V?$allocator@UOverAllOAM@@@std@@@0@@Z 00426c90 f i frmSamusEditor.obj
 0001:00025d00       ??$addressof@$$CBUOverAllOAM@@@std@@YAPBUOverAllOAM@@ABU1@@Z 00426d00 f i frmSamusEditor.obj
 0001:00025d30       ??$addressof@U?$pair@$$CBV?$basic_string@DU?$char_traits@D@std@@V?$allocator@D@2@@std@@H@std@@@std@@YAPAU?$pair@$$CBV?$basic_string@DU?$char_traits@D@std@@V?$allocator@D@2@@std@@H@0@AAU10@@Z 00426d30 f i frmSamusEditor.obj
 0001:00025d60       ??$construct@U?$pair@$$CBV?$basic_string@DU?$char_traits@D@std@@V?$allocator@D@2@@std@@H@std@@ABUpiecewise_construct_t@2@V?$tuple@$$QAV?$basic_string@DU?$char_traits@D@std@@V?$allocator@D@2@@std@@@2@V?$tuple@$$V@2@@?$_Wrap_alloc@V?$allocator@U?$_Tree_node@U?$pair@$$CBV?$basic_string@DU?$char_traits@D@std@@V?$allocator@D@2@@std@@H@std@@PAX@std@@@std@@@std@@QAEXPAU?$pair@$$CBV?$basic_string@DU?$char_traits@D@std@@V?$allocator@D@2@@std@@H@1@ABUpiecewise_construct_t@1@$$QAV?$tuple@$$QAV?$basic_string@DU?$char_traits@D@std@@V?$allocator@D@2@@std@@@1@$$QAV?$tuple@$$V@1@@Z 00426d60 f i frmSamusEditor.obj
 0001:00025dd0       ??$construct@U?$pair@$$CBV?$basic_string@DU?$char_traits@D@std@@V?$allocator@D@2@@std@@H@std@@ABUpiecewise_construct_t@2@V?$tuple@$$QAV?$basic_string@DU?$char_traits@D@std@@V?$allocator@D@2@@std@@@2@V?$tuple@$$V@2@@?$allocator@U?$_Tree_node@U?$pair@$$CBV?$basic_string@DU?$char_traits@D@std@@V?$allocator@D@2@@std@@H@std@@PAX@std@@@std@@QAEXPAU?$pair@$$CBV?$basic_string@DU?$char_traits@D@std@@V?$allocator@D@2@@std@@H@1@ABUpiecewise_construct_t@1@$$QAV?$tuple@$$QAV?$basic_string@DU?$char_traits@D@std@@V?$allocator@D@2@@std@@@1@$$QAV?$tuple@$$V@1@@Z 00426dd0 f i frmSamusEditor.obj
 0001:00025ed0       ??$construct@U?$pair@$$CBV?$basic_string@DU?$char_traits@D@std@@V?$allocator@D@2@@std@@H@std@@ABUpiecewise_construct_t@2@V?$tuple@$$QAV?$basic_string@DU?$char_traits@D@std@@V?$allocator@D@2@@std@@@2@V?$tuple@$$V@2@@?$allocator_traits@V?$allocator@U?$_Tree_node@U?$pair@$$CBV?$basic_string@DU?$char_traits@D@std@@V?$allocator@D@2@@std@@H@std@@PAX@std@@@std@@@std@@SAXAAV?$allocator@U?$_Tree_node@U?$pair@$$CBV?$basic_string@DU?$char_traits@D@std@@V?$allocator@D@2@@std@@H@std@@PAX@std@@@1@PAU?$pair@$$CBV?$basic_string@DU?$char_traits@D@std@@V?$allocator@D@2@@std@@H@1@ABUpiecewise_construct_t@1@$$QAV?$tuple@$$QAV?$basic_string@DU?$char_traits@D@std@@V?$allocator@D@2@@std@@@1@$$QAV?$tuple@$$V@1@@Z 00426ed0 f i frmSamusEditor.obj
 0001:00025f40       ??$construct@U?$pair@$$CBV?$basic_string@DU?$char_traits@D@std@@V?$allocator@D@2@@std@@H@std@@ABUpiecewise_construct_t@2@V?$tuple@ABV?$basic_string@DU?$char_traits@D@std@@V?$allocator@D@2@@std@@@2@V?$tuple@$$V@2@@?$_Wrap_alloc@V?$allocator@U?$_Tree_node@U?$pair@$$CBV?$basic_string@DU?$char_traits@D@std@@V?$allocator@D@2@@std@@H@std@@PAX@std@@@std@@@std@@QAEXPAU?$pair@$$CBV?$basic_string@DU?$char_traits@D@std@@V?$allocator@D@2@@std@@H@1@ABUpiecewise_construct_t@1@$$QAV?$tuple@ABV?$basic_string@DU?$char_traits@D@std@@V?$allocator@D@2@@std@@@1@$$QAV?$tuple@$$V@1@@Z 00426f40 f i frmSamusEditor.obj
 0001:00025fb0       ??$construct@U?$pair@$$CBV?$basic_string@DU?$char_traits@D@std@@V?$allocator@D@2@@std@@H@std@@ABUpiecewise_construct_t@2@V?$tuple@ABV?$basic_string@DU?$char_traits@D@std@@V?$allocator@D@2@@std@@@2@V?$tuple@$$V@2@@?$allocator@U?$_Tree_node@U?$pair@$$CBV?$basic_string@DU?$char_traits@D@std@@V?$allocator@D@2@@std@@H@std@@PAX@std@@@std@@QAEXPAU?$pair@$$CBV?$basic_string@DU?$char_traits@D@std@@V?$allocator@D@2@@std@@H@1@ABUpiecewise_construct_t@1@$$QAV?$tuple@ABV?$basic_string@DU?$char_traits@D@std@@V?$allocator@D@2@@std@@@1@$$QAV?$tuple@$$V@1@@Z 00426fb0 f i frmSamusEditor.obj
 0001:000260b0       ??$construct@U?$pair@$$CBV?$basic_string@DU?$char_traits@D@std@@V?$allocator@D@2@@std@@H@std@@ABUpiecewise_construct_t@2@V?$tuple@ABV?$basic_string@DU?$char_traits@D@std@@V?$allocator@D@2@@std@@@2@V?$tuple@$$V@2@@?$allocator_traits@V?$allocator@U?$_Tree_node@U?$pair@$$CBV?$basic_string@DU?$char_traits@D@std@@V?$allocator@D@2@@std@@H@std@@PAX@std@@@std@@@std@@SAXAAV?$allocator@U?$_Tree_node@U?$pair@$$CBV?$basic_string@DU?$char_traits@D@std@@V?$allocator@D@2@@std@@H@std@@PAX@std@@@1@PAU?$pair@$$CBV?$basic_string@DU?$char_traits@D@std@@V?$allocator@D@2@@std@@H@1@ABUpiecewise_construct_t@1@$$QAV?$tuple@ABV?$basic_string@DU?$char_traits@D@std@@V?$allocator@D@2@@std@@@1@$$QAV?$tuple@$$V@1@@Z 004270b0 f i frmSamusEditor.obj
 0001:00026120       ??$construct@UOverAllOAM@@AAU1@@?$_Wrap_alloc@V?$allocator@UOverAllOAM@@@std@@@std@@QAEXPAUOverAllOAM@@AAU2@@Z 00427120 f i frmSamusEditor.obj
 0001:00026180       ??$construct@UOverAllOAM@@AAU1@@?$allocator@UOverAllOAM@@@std@@QAEXPAUOverAllOAM@@AAU2@@Z 00427180 f i frmSamusEditor.obj
 0001:00026210       ??$construct@UOverAllOAM@@AAU1@@?$allocator_traits@V?$allocator@UOverAllOAM@@@std@@@std@@SAXAAV?$allocator@UOverAllOAM@@@1@PAUOverAllOAM@@AAU3@@Z 00427210 f i frmSamusEditor.obj
 0001:00026260       ??$construct@UOverAllOAM@@ABU1@@?$_Wrap_alloc@V?$allocator@UOverAllOAM@@@std@@@std@@QAEXPAUOverAllOAM@@ABU2@@Z 00427260 f i frmSamusEditor.obj
 0001:000262c0       ??$construct@UOverAllOAM@@ABU1@@?$allocator@UOverAllOAM@@@std@@QAEXPAUOverAllOAM@@ABU2@@Z 004272c0 f i frmSamusEditor.obj
 0001:00026350       ??$construct@UOverAllOAM@@ABU1@@?$allocator_traits@V?$allocator@UOverAllOAM@@@std@@@std@@SAXAAV?$allocator@UOverAllOAM@@@1@PAUOverAllOAM@@ABU3@@Z 00427350 f i frmSamusEditor.obj
 0001:000263a0       ??$destroy@U?$pair@$$CBV?$basic_string@DU?$char_traits@D@std@@V?$allocator@D@2@@std@@H@std@@@?$_Wrap_alloc@V?$allocator@U?$_Tree_node@U?$pair@$$CBV?$basic_string@DU?$char_traits@D@std@@V?$allocator@D@2@@std@@H@std@@PAX@std@@@std@@@std@@QAEXPAU?$pair@$$CBV?$basic_string@DU?$char_traits@D@std@@V?$allocator@D@2@@std@@H@1@@Z 004273a0 f i frmSamusEditor.obj
 0001:000263f0       ??$destroy@U?$pair@$$CBV?$basic_string@DU?$char_traits@D@std@@V?$allocator@D@2@@std@@H@std@@@?$allocator@U?$_Tree_node@U?$pair@$$CBV?$basic_string@DU?$char_traits@D@std@@V?$allocator@D@2@@std@@H@std@@PAX@std@@@std@@QAEXPAU?$pair@$$CBV?$basic_string@DU?$char_traits@D@std@@V?$allocator@D@2@@std@@H@1@@Z 004273f0 f i frmSamusEditor.obj
 0001:00026440       ??$destroy@U?$pair@$$CBV?$basic_string@DU?$char_traits@D@std@@V?$allocator@D@2@@std@@H@std@@@?$allocator_traits@V?$allocator@U?$_Tree_node@U?$pair@$$CBV?$basic_string@DU?$char_traits@D@std@@V?$allocator@D@2@@std@@H@std@@PAX@std@@@std@@@std@@SAXAAV?$allocator@U?$_Tree_node@U?$pair@$$CBV?$basic_string@DU?$char_traits@D@std@@V?$allocator@D@2@@std@@H@std@@PAX@std@@@1@PAU?$pair@$$CBV?$basic_string@DU?$char_traits@D@std@@V?$allocator@D@2@@std@@H@1@@Z 00427440 f i frmSamusEditor.obj
 0001:00026480       ??$emplace_hint@ABUpiecewise_construct_t@std@@V?$tuple@$$QAV?$basic_string@DU?$char_traits@D@std@@V?$allocator@D@2@@std@@@2@V?$tuple@$$V@2@@?$_Tree@V?$_Tmap_traits@V?$basic_string@DU?$char_traits@D@std@@V?$allocator@D@2@@std@@HU?$less@V?$basic_string@DU?$char_traits@D@std@@V?$allocator@D@2@@std@@@2@V?$allocator@U?$pair@$$CBV?$basic_string@DU?$char_traits@D@std@@V?$allocator@D@2@@std@@H@std@@@2@$0A@@std@@@std@@QAE?AV?$_Tree_iterator@V?$_Tree_val@U?$_Tree_simple_types@U?$pair@$$CBV?$basic_string@DU?$char_traits@D@std@@V?$allocator@D@2@@std@@H@std@@@std@@@std@@@1@V?$_Tree_const_iterator@V?$_Tree_val@U?$_Tree_simple_types@U?$pair@$$CBV?$basic_string@DU?$char_traits@D@std@@V?$allocator@D@2@@std@@H@std@@@std@@@std@@@1@ABUpiecewise_construct_t@1@$$QAV?$tuple@$$QAV?$basic_string@DU?$char_traits@D@std@@V?$allocator@D@2@@std@@@1@$$QAV?$tuple@$$V@1@@Z 00427480 f i frmSamusEditor.obj
 0001:00026590       ??$emplace_hint@ABUpiecewise_construct_t@std@@V?$tuple@ABV?$basic_string@DU?$char_traits@D@std@@V?$allocator@D@2@@std@@@2@V?$tuple@$$V@2@@?$_Tree@V?$_Tmap_traits@V?$basic_string@DU?$char_traits@D@std@@V?$allocator@D@2@@std@@HU?$less@V?$basic_string@DU?$char_traits@D@std@@V?$allocator@D@2@@std@@@2@V?$allocator@U?$pair@$$CBV?$basic_string@DU?$char_traits@D@std@@V?$allocator@D@2@@std@@H@std@@@2@$0A@@std@@@std@@QAE?AV?$_Tree_iterator@V?$_Tree_val@U?$_Tree_simple_types@U?$pair@$$CBV?$basic_string@DU?$char_traits@D@std@@V?$allocator@D@2@@std@@H@std@@@std@@@std@@@1@V?$_Tree_const_iterator@V?$_Tree_val@U?$_Tree_simple_types@U?$pair@$$CBV?$basic_string@DU?$char_traits@D@std@@V?$allocator@D@2@@std@@H@std@@@std@@@std@@@1@ABUpiecewise_construct_t@1@$$QAV?$tuple@ABV?$basic_string@DU?$char_traits@D@std@@V?$allocator@D@2@@std@@@1@$$QAV?$tuple@$$V@1@@Z 00427590 f i frmSamusEditor.obj
 0001:000266a0       ??$forward@$$QAV?$basic_string@DU?$char_traits@D@std@@V?$allocator@D@2@@std@@@std@@YA$$QAV?$basic_string@DU?$char_traits@D@std@@V?$allocator@D@2@@0@AAV10@@Z 004276a0 f i frmSamusEditor.obj
 0001:000266d0       ??$forward@AAU?$pair@$$CBV?$basic_string@DU?$char_traits@D@std@@V?$allocator@D@2@@std@@H@std@@@std@@YAAAU?$pair@$$CBV?$basic_string@DU?$char_traits@D@std@@V?$allocator@D@2@@std@@H@0@AAU10@@Z 004276d0 f i frmSamusEditor.obj
 0001:00026700       ??$forward@AAUOverAllOAM@@@std@@YAAAUOverAllOAM@@AAU1@@Z 00427700 f i frmSamusEditor.obj
 0001:00026730       ??$forward@AAV?$_Tree_iterator@V?$_Tree_val@U?$_Tree_simple_types@U?$pair@$$CBV?$basic_string@DU?$char_traits@D@std@@V?$allocator@D@2@@std@@H@std@@@std@@@std@@@std@@@std@@YAAAV?$_Tree_iterator@V?$_Tree_val@U?$_Tree_simple_types@U?$pair@$$CBV?$basic_string@DU?$char_traits@D@std@@V?$allocator@D@2@@std@@H@std@@@std@@@std@@@0@AAV10@@Z 00427730 f i frmSamusEditor.obj
 0001:00026760       ??$forward@ABUOverAllOAM@@@std@@YAABUOverAllOAM@@ABU1@@Z 00427760 f i frmSamusEditor.obj
 0001:00026790       ??$forward@ABV?$basic_string@DU?$char_traits@D@std@@V?$allocator@D@2@@std@@@std@@YAABV?$basic_string@DU?$char_traits@D@std@@V?$allocator@D@2@@0@ABV10@@Z 00427790 f i frmSamusEditor.obj
 0001:000267c0       ??$forward@V?$_Tree_iterator@V?$_Tree_val@U?$_Tree_simple_types@U?$pair@$$CBV?$basic_string@DU?$char_traits@D@std@@V?$allocator@D@2@@std@@H@std@@@std@@@std@@@std@@@std@@YA$$QAV?$_Tree_iterator@V?$_Tree_val@U?$_Tree_simple_types@U?$pair@$$CBV?$basic_string@DU?$char_traits@D@std@@V?$allocator@D@2@@std@@H@std@@@std@@@std@@@0@AAV10@@Z 004277c0 f i frmSamusEditor.obj
 0001:000267f0       ??$forward@V?$basic_string@DU?$char_traits@D@std@@V?$allocator@D@2@@std@@@std@@YA$$QAV?$basic_string@DU?$char_traits@D@std@@V?$allocator@D@2@@0@AAV10@@Z 004277f0 f i frmSamusEditor.obj
 0001:00026820       ??$forward@V?$tuple@$$QAV?$basic_string@DU?$char_traits@D@std@@V?$allocator@D@2@@std@@@std@@@std@@YA$$QAV?$tuple@$$QAV?$basic_string@DU?$char_traits@D@std@@V?$allocator@D@2@@std@@@0@AAV10@@Z 00427820 f i frmSamusEditor.obj
 0001:00026850       ??$forward@V?$tuple@ABV?$basic_string@DU?$char_traits@D@std@@V?$allocator@D@2@@std@@@std@@@std@@YA$$QAV?$tuple@ABV?$basic_string@DU?$char_traits@D@std@@V?$allocator@D@2@@std@@@0@AAV10@@Z 00427850 f i frmSamusEditor.obj
 0001:00026880       ??$forward_as_tuple@ABV?$basic_string@DU?$char_traits@D@std@@V?$allocator@D@2@@std@@@std@@YA?AV?$tuple@ABV?$basic_string@DU?$char_traits@D@std@@V?$allocator@D@2@@std@@@0@ABV?$basic_string@DU?$char_traits@D@std@@V?$allocator@D@2@@0@@Z 00427880 f i frmSamusEditor.obj
 0001:00026900       ??$forward_as_tuple@V?$basic_string@DU?$char_traits@D@std@@V?$allocator@D@2@@std@@@std@@YA?AV?$tuple@$$QAV?$basic_string@DU?$char_traits@D@std@@V?$allocator@D@2@@std@@@0@$$QAV?$basic_string@DU?$char_traits@D@std@@V?$allocator@D@2@@0@@Z 00427900 f i frmSamusEditor.obj
 0001:00026980       ??$get@$0A@$$QAV?$basic_string@DU?$char_traits@D@std@@V?$allocator@D@2@@std@@@std@@YA$$QAV?$basic_string@DU?$char_traits@D@std@@V?$allocator@D@2@@0@$$QAV?$tuple@$$QAV?$basic_string@DU?$char_traits@D@std@@V?$allocator@D@2@@std@@@0@@Z 00427980 f i frmSamusEditor.obj
 0001:000269c0       ??$get@$0A@ABV?$basic_string@DU?$char_traits@D@std@@V?$allocator@D@2@@std@@@std@@YAABV?$basic_string@DU?$char_traits@D@std@@V?$allocator@D@2@@0@$$QAV?$tuple@ABV?$basic_string@DU?$char_traits@D@std@@V?$allocator@D@2@@std@@@0@@Z 004279c0 f i frmSamusEditor.obj
 0001:00026a00       ??$move@AAV?$basic_string@DU?$char_traits@D@std@@V?$allocator@D@2@@std@@@std@@YA$$QAV?$basic_string@DU?$char_traits@D@std@@V?$allocator@D@2@@0@AAV10@@Z 00427a00 f i frmSamusEditor.obj
 0001:00026a30       ??$move@AAV?$tuple@$$QAV?$basic_string@DU?$char_traits@D@std@@V?$allocator@D@2@@std@@@std@@@std@@YA$$QAV?$tuple@$$QAV?$basic_string@DU?$char_traits@D@std@@V?$allocator@D@2@@std@@@0@AAV10@@Z 00427a30 f i frmSamusEditor.obj
 0001:00026a60       ??$move@AAV?$tuple@ABV?$basic_string@DU?$char_traits@D@std@@V?$allocator@D@2@@std@@@std@@@std@@YA$$QAV?$tuple@ABV?$basic_string@DU?$char_traits@D@std@@V?$allocator@D@2@@std@@@0@AAV10@@Z 00427a60 f i frmSamusEditor.obj
 0001:00026a90       ??$try_emplace@$$V@?$map@V?$basic_string@DU?$char_traits@D@std@@V?$allocator@D@2@@std@@HU?$less@V?$basic_string@DU?$char_traits@D@std@@V?$allocator@D@2@@std@@@2@V?$allocator@U?$pair@$$CBV?$basic_string@DU?$char_traits@D@std@@V?$allocator@D@2@@std@@H@std@@@2@@std@@QAE?AU?$pair@V?$_Tree_iterator@V?$_Tree_val@U?$_Tree_simple_types@U?$pair@$$CBV?$basic_string@DU?$char_traits@D@std@@V?$allocator@D@2@@std@@H@std@@@std@@@std@@@std@@_N@1@$$QAV?$basic_string@DU?$char_traits@D@std@@V?$allocator@D@2@@1@@Z 00427a90 f i frmSamusEditor.obj
 0001:00026b00       ??$try_emplace@$$V@?$map@V?$basic_string@DU?$char_traits@D@std@@V?$allocator@D@2@@std@@HU?$less@V?$basic_string@DU?$char_traits@D@std@@V?$allocator@D@2@@std@@@2@V?$allocator@U?$pair@$$CBV?$basic_string@DU?$char_traits@D@std@@V?$allocator@D@2@@std@@H@std@@@2@@std@@QAE?AU?$pair@V?$_Tree_iterator@V?$_Tree_val@U?$_Tree_simple_types@U?$pair@$$CBV?$basic_string@DU?$char_traits@D@std@@V?$allocator@D@2@@std@@H@std@@@std@@@std@@@std@@_N@1@ABV?$basic_string@DU?$char_traits@D@std@@V?$allocator@D@2@@1@@Z 00427b00 f i frmSamusEditor.obj
 0001:00026b70       ??0?$_Iterator012@Ubidirectional_iterator_tag@std@@U?$pair@$$CBV?$basic_string@DU?$char_traits@D@std@@V?$allocator@D@2@@std@@H@2@HPBU32@ABU32@U_Iterator_base12@2@@std@@QAE@$$QAU01@@Z 00427b70 f i frmSamusEditor.obj
 0001:00026bc0       ??0?$_Iterator012@Ubidirectional_iterator_tag@std@@U?$pair@$$CBV?$basic_string@DU?$char_traits@D@std@@V?$allocator@D@2@@std@@H@2@HPBU32@ABU32@U_Iterator_base12@2@@std@@QAE@ABU01@@Z 00427bc0 f i frmSamusEditor.obj
 0001:00026c10       ??0?$_Iterator012@Ubidirectional_iterator_tag@std@@U?$pair@$$CBV?$basic_string@DU?$char_traits@D@std@@V?$allocator@D@2@@std@@H@2@HPBU32@ABU32@U_Iterator_base12@2@@std@@QAE@XZ 00427c10 f i frmSamusEditor.obj
 0001:00026c60       ??0?$_Tree_const_iterator@V?$_Tree_val@U?$_Tree_simple_types@U?$pair@$$CBV?$basic_string@DU?$char_traits@D@std@@V?$allocator@D@2@@std@@H@std@@@std@@@std@@@std@@QAE@$$QAV01@@Z 00427c60 f i frmSamusEditor.obj
 0001:00026cb0       ??0?$_Tree_const_iterator@V?$_Tree_val@U?$_Tree_simple_types@U?$pair@$$CBV?$basic_string@DU?$char_traits@D@std@@V?$allocator@D@2@@std@@H@std@@@std@@@std@@@std@@QAE@ABV01@@Z 00427cb0 f i frmSamusEditor.obj
 0001:00026d00       ??0?$_Tree_const_iterator@V?$_Tree_val@U?$_Tree_simple_types@U?$pair@$$CBV?$basic_string@DU?$char_traits@D@std@@V?$allocator@D@2@@std@@H@std@@@std@@@std@@@std@@QAE@PAU?$_Tree_node@U?$pair@$$CBV?$basic_string@DU?$char_traits@D@std@@V?$allocator@D@2@@std@@H@std@@PAX@1@PBV?$_Tree_val@U?$_Tree_simple_types@U?$pair@$$CBV?$basic_string@DU?$char_traits@D@std@@V?$allocator@D@2@@std@@H@std@@@std@@@1@@Z 00427d00 f i frmSamusEditor.obj
 0001:00026d50       ??0?$_Tree_const_iterator@V?$_Tree_val@U?$_Tree_simple_types@U?$pair@$$CBV?$basic_string@DU?$char_traits@D@std@@V?$allocator@D@2@@std@@H@std@@@std@@@std@@@std@@QAE@XZ 00427d50 f i frmSamusEditor.obj
 0001:00026da0       ??0?$_Tree_iterator@V?$_Tree_val@U?$_Tree_simple_types@U?$pair@$$CBV?$basic_string@DU?$char_traits@D@std@@V?$allocator@D@2@@std@@H@std@@@std@@@std@@@std@@QAE@$$QAV01@@Z 00427da0 f i frmSamusEditor.obj
 0001:00026df0       ??0?$_Tree_iterator@V?$_Tree_val@U?$_Tree_simple_types@U?$pair@$$CBV?$basic_string@DU?$char_traits@D@std@@V?$allocator@D@2@@std@@H@std@@@std@@@std@@@std@@QAE@ABV01@@Z 00427df0 f i frmSamusEditor.obj
 0001:00026e40       ??0?$_Tree_iterator@V?$_Tree_val@U?$_Tree_simple_types@U?$pair@$$CBV?$basic_string@DU?$char_traits@D@std@@V?$allocator@D@2@@std@@H@std@@@std@@@std@@@std@@QAE@PAU?$_Tree_node@U?$pair@$$CBV?$basic_string@DU?$char_traits@D@std@@V?$allocator@D@2@@std@@H@std@@PAX@1@PBV?$_Tree_val@U?$_Tree_simple_types@U?$pair@$$CBV?$basic_string@DU?$char_traits@D@std@@V?$allocator@D@2@@std@@H@std@@@std@@@1@@Z 00427e40 f i frmSamusEditor.obj
 0001:00026e90       ??0?$_Tree_unchecked_const_iterator@V?$_Tree_val@U?$_Tree_simple_types@U?$pair@$$CBV?$basic_string@DU?$char_traits@D@std@@V?$allocator@D@2@@std@@H@std@@@std@@@std@@U_Iterator_base12@2@@std@@QAE@$$QAV01@@Z 00427e90 f i frmSamusEditor.obj
 0001:00026ef0       ??0?$_Tree_unchecked_const_iterator@V?$_Tree_val@U?$_Tree_simple_types@U?$pair@$$CBV?$basic_string@DU?$char_traits@D@std@@V?$allocator@D@2@@std@@H@std@@@std@@@std@@U_Iterator_base12@2@@std@@QAE@ABV01@@Z 00427ef0 f i frmSamusEditor.obj
 0001:00026f50       ??0?$_Tree_unchecked_const_iterator@V?$_Tree_val@U?$_Tree_simple_types@U?$pair@$$CBV?$basic_string@DU?$char_traits@D@std@@V?$allocator@D@2@@std@@H@std@@@std@@@std@@U_Iterator_base12@2@@std@@QAE@PAU?$_Tree_node@U?$pair@$$CBV?$basic_string@DU?$char_traits@D@std@@V?$allocator@D@2@@std@@H@std@@PAX@1@PBV?$_Tree_val@U?$_Tree_simple_types@U?$pair@$$CBV?$basic_string@DU?$char_traits@D@std@@V?$allocator@D@2@@std@@H@std@@@std@@@1@@Z 00427f50 f i frmSamusEditor.obj
 0001:00026ff0       ??0?$_Tree_unchecked_const_iterator@V?$_Tree_val@U?$_Tree_simple_types@U?$pair@$$CBV?$basic_string@DU?$char_traits@D@std@@V?$allocator@D@2@@std@@H@std@@@std@@@std@@U_Iterator_base12@2@@std@@QAE@XZ 00427ff0 f i frmSamusEditor.obj
 0001:00027040       ??0?$basic_string@DU?$char_traits@D@std@@V?$allocator@D@2@@std@@QAE@$$QAV01@@Z 00428040 f i frmSamusEditor.obj
 0001:000270f0       ??0?$tuple@$$QAV?$basic_string@DU?$char_traits@D@std@@V?$allocator@D@2@@std@@@std@@QAE@$$QAV01@@Z 004280f0 f i frmSamusEditor.obj
 0001:00027150       ??0?$tuple@ABV?$basic_string@DU?$char_traits@D@std@@V?$allocator@D@2@@std@@@std@@QAE@$$QAV01@@Z 00428150 f i frmSamusEditor.obj
 0001:000271b0       ??1?$_Iterator012@Ubidirectional_iterator_tag@std@@U?$pair@$$CBV?$basic_string@DU?$char_traits@D@std@@V?$allocator@D@2@@std@@H@2@HPBU32@ABU32@U_Iterator_base12@2@@std@@QAE@XZ 004281b0 f i frmSamusEditor.obj
 0001:000271f0       ??1?$_Tree@V?$_Tmap_traits@V?$basic_string@DU?$char_traits@D@std@@V?$allocator@D@2@@std@@HU?$less@V?$basic_string@DU?$char_traits@D@std@@V?$allocator@D@2@@std@@@2@V?$allocator@U?$pair@$$CBV?$basic_string@DU?$char_traits@D@std@@V?$allocator@D@2@@std@@H@std@@@2@$0A@@std@@@std@@QAE@XZ 004281f0 f i frmSamusEditor.obj
 0001:00027270       ??1?$_Tree_comp_alloc@V?$_Tmap_traits@V?$basic_string@DU?$char_traits@D@std@@V?$allocator@D@2@@std@@HU?$less@V?$basic_string@DU?$char_traits@D@std@@V?$allocator@D@2@@std@@@2@V?$allocator@U?$pair@$$CBV?$basic_string@DU?$char_traits@D@std@@V?$allocator@D@2@@std@@H@std@@@2@$0A@@std@@@std@@QAE@XZ 00428270 f i frmSamusEditor.obj
 0001:00027300       ??1?$_Tree_const_iterator@V?$_Tree_val@U?$_Tree_simple_types@U?$pair@$$CBV?$basic_string@DU?$char_traits@D@std@@V?$allocator@D@2@@std@@H@std@@@std@@@std@@@std@@QAE@XZ 00428300 f i frmSamusEditor.obj
 0001:00027340       ??1?$_Tree_iterator@V?$_Tree_val@U?$_Tree_simple_types@U?$pair@$$CBV?$basic_string@DU?$char_traits@D@std@@V?$allocator@D@2@@std@@H@std@@@std@@@std@@@std@@QAE@XZ 00428340 f i frmSamusEditor.obj
 0001:00027380       ??1?$_Tree_unchecked_const_iterator@V?$_Tree_val@U?$_Tree_simple_types@U?$pair@$$CBV?$basic_string@DU?$char_traits@D@std@@V?$allocator@D@2@@std@@H@std@@@std@@@std@@U_Iterator_base12@2@@std@@QAE@XZ 00428380 f i frmSamusEditor.obj
 0001:000273c0       ??1?$map@V?$basic_string@DU?$char_traits@D@std@@V?$allocator@D@2@@std@@HU?$less@V?$basic_string@DU?$char_traits@D@std@@V?$allocator@D@2@@std@@@2@V?$allocator@U?$pair@$$CBV?$basic_string@DU?$char_traits@D@std@@V?$allocator@D@2@@std@@H@std@@@2@@std@@QAE@XZ 004283c0 f i frmSamusEditor.obj
 0001:00027400       ??1?$pair@$$CBV?$basic_string@DU?$char_traits@D@std@@V?$allocator@D@2@@std@@H@std@@QAE@XZ 00428400 f i frmSamusEditor.obj
 0001:00027440       ??1?$pair@V?$_Tree_iterator@V?$_Tree_val@U?$_Tree_simple_types@U?$pair@$$CBV?$basic_string@DU?$char_traits@D@std@@V?$allocator@D@2@@std@@H@std@@@std@@@std@@@std@@_N@std@@QAE@XZ 00428440 f i frmSamusEditor.obj
 0001:00027480       ??4?$_Iterator012@Ubidirectional_iterator_tag@std@@U?$pair@$$CBV?$basic_string@DU?$char_traits@D@std@@V?$allocator@D@2@@std@@H@2@HPBU32@ABU32@U_Iterator_base12@2@@std@@QAEAAU01@ABU01@@Z 00428480 f i frmSamusEditor.obj
 0001:000274d0       ??4?$_Tree_const_iterator@V?$_Tree_val@U?$_Tree_simple_types@U?$pair@$$CBV?$basic_string@DU?$char_traits@D@std@@V?$allocator@D@2@@std@@H@std@@@std@@@std@@@std@@QAEAAV01@ABV01@@Z 004284d0 f i frmSamusEditor.obj
 0001:00027520       ??4?$_Tree_unchecked_const_iterator@V?$_Tree_val@U?$_Tree_simple_types@U?$pair@$$CBV?$basic_string@DU?$char_traits@D@std@@V?$allocator@D@2@@std@@H@std@@@std@@@std@@U_Iterator_base12@2@@std@@QAEAAV01@ABV01@@Z 00428520 f i frmSamusEditor.obj
 0001:00027580       ??8?$_Tree_const_iterator@V?$_Tree_val@U?$_Tree_simple_types@U?$pair@$$CBV?$basic_string@DU?$char_traits@D@std@@V?$allocator@D@2@@std@@H@std@@@std@@@std@@@std@@QBE_NABV01@@Z 00428580 f i frmSamusEditor.obj
 0001:00027690       ??9?$_Tree_const_iterator@V?$_Tree_val@U?$_Tree_simple_types@U?$pair@$$CBV?$basic_string@DU?$char_traits@D@std@@V?$allocator@D@2@@std@@H@std@@@std@@@std@@@std@@QBE_NABV01@@Z 00428690 f i frmSamusEditor.obj
 0001:00027700       ??A?$map@V?$basic_string@DU?$char_traits@D@std@@V?$allocator@D@2@@std@@HU?$less@V?$basic_string@DU?$char_traits@D@std@@V?$allocator@D@2@@std@@@2@V?$allocator@U?$pair@$$CBV?$basic_string@DU?$char_traits@D@std@@V?$allocator@D@2@@std@@H@std@@@2@@std@@QAEAAH$$QAV?$basic_string@DU?$char_traits@D@std@@V?$allocator@D@2@@1@@Z 00428700 f i frmSamusEditor.obj
 0001:000277d0       ??A?$map@V?$basic_string@DU?$char_traits@D@std@@V?$allocator@D@2@@std@@HU?$less@V?$basic_string@DU?$char_traits@D@std@@V?$allocator@D@2@@std@@@2@V?$allocator@U?$pair@$$CBV?$basic_string@DU?$char_traits@D@std@@V?$allocator@D@2@@std@@H@std@@@2@@std@@QAEAAHABV?$basic_string@DU?$char_traits@D@std@@V?$allocator@D@2@@1@@Z 004287d0 f i frmSamusEditor.obj
 0001:00027890       ??C?$_Tree_iterator@V?$_Tree_val@U?$_Tree_simple_types@U?$pair@$$CBV?$basic_string@DU?$char_traits@D@std@@V?$allocator@D@2@@std@@H@std@@@std@@@std@@@std@@QBEPAU?$pair@$$CBV?$basic_string@DU?$char_traits@D@std@@V?$allocator@D@2@@std@@H@1@XZ 00428890 f i frmSamusEditor.obj
 0001:000278e0       ??D?$_Tree_const_iterator@V?$_Tree_val@U?$_Tree_simple_types@U?$pair@$$CBV?$basic_string@DU?$char_traits@D@std@@V?$allocator@D@2@@std@@H@std@@@std@@@std@@@std@@QBEABU?$pair@$$CBV?$basic_string@DU?$char_traits@D@std@@V?$allocator@D@2@@std@@H@1@XZ 004288e0 f i frmSamusEditor.obj
 0001:000279e0       ??D?$_Tree_iterator@V?$_Tree_val@U?$_Tree_simple_types@U?$pair@$$CBV?$basic_string@DU?$char_traits@D@std@@V?$allocator@D@2@@std@@H@std@@@std@@@std@@@std@@QBEAAU?$pair@$$CBV?$basic_string@DU?$char_traits@D@std@@V?$allocator@D@2@@std@@H@1@XZ 004289e0 f i frmSamusEditor.obj
 0001:00027a20       ??E?$_Tree_const_iterator@V?$_Tree_val@U?$_Tree_simple_types@U?$pair@$$CBV?$basic_string@DU?$char_traits@D@std@@V?$allocator@D@2@@std@@H@std@@@std@@@std@@@std@@QAE?AV01@H@Z 00428a20 f i frmSamusEditor.obj
 0001:00027b10       ??E?$_Tree_const_iterator@V?$_Tree_val@U?$_Tree_simple_types@U?$pair@$$CBV?$basic_string@DU?$char_traits@D@std@@V?$allocator@D@2@@std@@H@std@@@std@@@std@@@std@@QAEAAV01@XZ 00428b10 f i frmSamusEditor.obj
 0001:00027c10       ??E?$_Tree_iterator@V?$_Tree_val@U?$_Tree_simple_types@U?$pair@$$CBV?$basic_string@DU?$char_traits@D@std@@V?$allocator@D@2@@std@@H@std@@@std@@@std@@@std@@QAEAAV01@XZ 00428c10 f i frmSamusEditor.obj
 0001:00027c60       ??E?$_Tree_unchecked_const_iterator@V?$_Tree_val@U?$_Tree_simple_types@U?$pair@$$CBV?$basic_string@DU?$char_traits@D@std@@V?$allocator@D@2@@std@@H@std@@@std@@@std@@U_Iterator_base12@2@@std@@QAEAAV01@XZ 00428c60 f i frmSamusEditor.obj
 0001:00027d50       ??F?$_Tree_const_iterator@V?$_Tree_val@U?$_Tree_simple_types@U?$pair@$$CBV?$basic_string@DU?$char_traits@D@std@@V?$allocator@D@2@@std@@H@std@@@std@@@std@@@std@@QAEAAV01@XZ 00428d50 f i frmSamusEditor.obj
 0001:00027ed0       ??F?$_Tree_iterator@V?$_Tree_val@U?$_Tree_simple_types@U?$pair@$$CBV?$basic_string@DU?$char_traits@D@std@@V?$allocator@D@2@@std@@H@std@@@std@@@std@@@std@@QAEAAV01@XZ 00428ed0 f i frmSamusEditor.obj
 0001:00027f20       ??F?$_Tree_unchecked_const_iterator@V?$_Tree_val@U?$_Tree_simple_types@U?$pair@$$CBV?$basic_string@DU?$char_traits@D@std@@V?$allocator@D@2@@std@@H@std@@@std@@@std@@U_Iterator_base12@2@@std@@QAEAAV01@XZ 00428f20 f i frmSamusEditor.obj
 0001:00028040       ??R?$less@V?$basic_string@DU?$char_traits@D@std@@V?$allocator@D@2@@std@@@std@@QBE_NABV?$basic_string@DU?$char_traits@D@std@@V?$allocator@D@2@@1@0@Z 00429040 f i frmSamusEditor.obj
 0001:00028090       ??_G?$pair@$$CBV?$basic_string@DU?$char_traits@D@std@@V?$allocator@D@2@@std@@H@std@@QAEPAXI@Z 00429090 f i frmSamusEditor.obj
 0001:000280f0       ??_GBackBuffer@@QAEPAXI@Z  004290f0 f i frmSamusEditor.obj
 0001:00028150       ?DrawSamus@@YAXXZ          00429150 f   frmSamusEditor.obj
 0001:00028440       ?InitUI@@YAXXZ             00429440 f   frmSamusEditor.obj
 0001:000296f0       ?Load@SamusBase@@QAEXXZ    0042a6f0 f i frmSamusEditor.obj
 0001:00029960       ?PackSamus@SamusBase@@QAEXXZ 0042a960 f i frmSamusEditor.obj
 0001:00029d10       ?SamusProc@@YGHPAUHWND__@@IIJ@Z 0042ad10 f   frmSamusEditor.obj
 0001:0002a150       ?_Assign_rv@?$basic_string@DU?$char_traits@D@std@@V?$allocator@D@2@@std@@QAEX$$QAV12@@Z 0042b150 f i frmSamusEditor.obj
 0001:0002a230       ?_Buynode0@?$_Tree_comp_alloc@V?$_Tmap_traits@V?$basic_string@DU?$char_traits@D@std@@V?$allocator@D@2@@std@@HU?$less@V?$basic_string@DU?$char_traits@D@std@@V?$allocator@D@2@@std@@@2@V?$allocator@U?$pair@$$CBV?$basic_string@DU?$char_traits@D@std@@V?$allocator@D@2@@std@@H@std@@@2@$0A@@std@@@std@@QAEPAU?$_Tree_node@U?$pair@$$CBV?$basic_string@DU?$char_traits@D@std@@V?$allocator@D@2@@std@@H@std@@PAX@2@XZ 0042b230 f i frmSamusEditor.obj
 0001:0002a3a0       ?_Compare@?$_Tree@V?$_Tmap_traits@V?$basic_string@DU?$char_traits@D@std@@V?$allocator@D@2@@std@@HU?$less@V?$basic_string@DU?$char_traits@D@std@@V?$allocator@D@2@@std@@@2@V?$allocator@U?$pair@$$CBV?$basic_string@DU?$char_traits@D@std@@V?$allocator@D@2@@std@@H@std@@@2@$0A@@std@@@std@@IBE_NABV?$basic_string@DU?$char_traits@D@std@@V?$allocator@D@2@@2@0@Z 0042b3a0 f i frmSamusEditor.obj
 0001:0002a400       ?_Destroy@?$vector@UOverAllOAM@@V?$allocator@UOverAllOAM@@@std@@@std@@IAEXPAUOverAllOAM@@0@Z 0042b400 f i frmSamusEditor.obj
 0001:0002a460       ?_Destroy_if_not_nil@?$_Tree@V?$_Tmap_traits@V?$basic_string@DU?$char_traits@D@std@@V?$allocator@D@2@@std@@HU?$less@V?$basic_string@DU?$char_traits@D@std@@V?$allocator@D@2@@std@@@2@V?$allocator@U?$pair@$$CBV?$basic_string@DU?$char_traits@D@std@@V?$allocator@D@2@@std@@H@std@@@2@$0A@@std@@@std@@IAEXPAU?$_Tree_node@U?$pair@$$CBV?$basic_string@DU?$char_traits@D@std@@V?$allocator@D@2@@std@@H@std@@PAX@2@@Z 0042b460 f i frmSamusEditor.obj
 0001:0002a4e0       ?_Erase@?$_Tree@V?$_Tmap_traits@V?$basic_string@DU?$char_traits@D@std@@V?$allocator@D@2@@std@@HU?$less@V?$basic_string@DU?$char_traits@D@std@@V?$allocator@D@2@@std@@@2@V?$allocator@U?$pair@$$CBV?$basic_string@DU?$char_traits@D@std@@V?$allocator@D@2@@std@@H@std@@@2@$0A@@std@@@std@@IAEXPAU?$_Tree_node@U?$pair@$$CBV?$basic_string@DU?$char_traits@D@std@@V?$allocator@D@2@@std@@H@std@@PAX@2@@Z 0042b4e0 f i frmSamusEditor.obj
 0001:0002a5a0       ?_Free_proxy@?$_Tree_comp_alloc@V?$_Tmap_traits@V?$basic_string@DU?$char_traits@D@std@@V?$allocator@D@2@@std@@HU?$less@V?$basic_string@DU?$char_traits@D@std@@V?$allocator@D@2@@std@@@2@V?$allocator@U?$pair@$$CBV?$basic_string@DU?$char_traits@D@std@@V?$allocator@D@2@@std@@H@std@@@2@$0A@@std@@@std@@QAEXXZ 0042b5a0 f i frmSamusEditor.obj
 0001:0002a660       ?_Freenode0@?$_Tree_comp_alloc@V?$_Tmap_traits@V?$basic_string@DU?$char_traits@D@std@@V?$allocator@D@2@@std@@HU?$less@V?$basic_string@DU?$char_traits@D@std@@V?$allocator@D@2@@std@@@2@V?$allocator@U?$pair@$$CBV?$basic_string@DU?$char_traits@D@std@@V?$allocator@D@2@@std@@H@std@@@2@$0A@@std@@@std@@QAEXPAU?$_Tree_node@U?$pair@$$CBV?$basic_string@DU?$char_traits@D@std@@V?$allocator@D@2@@std@@H@std@@PAX@2@@Z 0042b660 f i frmSamusEditor.obj
 0001:0002a720       ?_Get_data@?$_Tree_comp_alloc@V?$_Tmap_traits@V?$basic_string@DU?$char_traits@D@std@@V?$allocator@D@2@@std@@HU?$less@V?$basic_string@DU?$char_traits@D@std@@V?$allocator@D@2@@std@@@2@V?$allocator@U?$pair@$$CBV?$basic_string@DU?$char_traits@D@std@@V?$allocator@D@2@@std@@H@std@@@2@$0A@@std@@@std@@QBEABV?$_Tree_val@U?$_Tree_simple_types@U?$pair@$$CBV?$basic_string@DU?$char_traits@D@std@@V?$allocator@D@2@@std@@H@std@@@std@@@2@XZ 0042b720 f i frmSamusEditor.obj
 0001:0002a770       ?_Get_first@?$_Compressed_pair@U?$_Wrap_alloc@V?$allocator@U?$_Tree_node@U?$pair@$$CBV?$basic_string@DU?$char_traits@D@std@@V?$allocator@D@2@@std@@H@std@@PAX@std@@@std@@@std@@V?$_Tree_val@U?$_Tree_simple_types@U?$pair@$$CBV?$basic_string@DU?$char_traits@D@std@@V?$allocator@D@2@@std@@H@std@@@std@@@2@$00@std@@QBEABU?$_Wrap_alloc@V?$allocator@U?$_Tree_node@U?$pair@$$CBV?$basic_string@DU?$char_traits@D@std@@V?$allocator@D@2@@std@@H@std@@PAX@std@@@std@@@2@XZ 0042b770 f i frmSamusEditor.obj
 0001:0002a7a0       ?_Get_first@?$_Compressed_pair@U?$_Wrap_alloc@V?$allocator@UOverAllOAM@@@std@@@std@@V?$_Vector_val@U?$_Simple_types@UOverAllOAM@@@std@@@2@$00@std@@QAEAAU?$_Wrap_alloc@V?$allocator@UOverAllOAM@@@std@@@2@XZ 0042b7a0 f i frmSamusEditor.obj
 0001:0002a7d0       ?_Get_first@?$_Compressed_pair@U?$_Wrap_alloc@V?$allocator@UOverAllOAM@@@std@@@std@@V?$_Vector_val@U?$_Simple_types@UOverAllOAM@@@std@@@2@$00@std@@QBEABU?$_Wrap_alloc@V?$allocator@UOverAllOAM@@@std@@@2@XZ 0042b7d0 f i frmSamusEditor.obj
 0001:0002a800       ?_Get_first@?$_Compressed_pair@U?$less@V?$basic_string@DU?$char_traits@D@std@@V?$allocator@D@2@@std@@@std@@V?$_Compressed_pair@U?$_Wrap_alloc@V?$allocator@U?$_Tree_node@U?$pair@$$CBV?$basic_string@DU?$char_traits@D@std@@V?$allocator@D@2@@std@@H@std@@PAX@std@@@std@@@std@@V?$_Tree_val@U?$_Tree_simple_types@U?$pair@$$CBV?$basic_string@DU?$char_traits@D@std@@V?$allocator@D@2@@std@@H@std@@@std@@@2@$00@2@$00@std@@QAEAAU?$less@V?$basic_string@DU?$char_traits@D@std@@V?$allocator@D@2@@std@@@2@XZ 0042b800 f i frmSamusEditor.obj
 0001:0002a830       ?_Get_first@?$_Compressed_pair@U?$less@V?$basic_string@DU?$char_traits@D@std@@V?$allocator@D@2@@std@@@std@@V?$_Compressed_pair@U?$_Wrap_alloc@V?$allocator@U?$_Tree_node@U?$pair@$$CBV?$basic_string@DU?$char_traits@D@std@@V?$allocator@D@2@@std@@H@std@@PAX@std@@@std@@@std@@V?$_Tree_val@U?$_Tree_simple_types@U?$pair@$$CBV?$basic_string@DU?$char_traits@D@std@@V?$allocator@D@2@@std@@H@std@@@std@@@2@$00@2@$00@std@@QBEABU?$less@V?$basic_string@DU?$char_traits@D@std@@V?$allocator@D@2@@std@@@2@XZ 0042b830 f i frmSamusEditor.obj
 0001:0002a860       ?_Get_second@?$_Compressed_pair@U?$_Wrap_alloc@V?$allocator@U?$_Tree_node@U?$pair@$$CBV?$basic_string@DU?$char_traits@D@std@@V?$allocator@D@2@@std@@H@std@@PAX@std@@@std@@@std@@V?$_Tree_val@U?$_Tree_simple_types@U?$pair@$$CBV?$basic_string@DU?$char_traits@D@std@@V?$allocator@D@2@@std@@H@std@@@std@@@2@$00@std@@QBEABV?$_Tree_val@U?$_Tree_simple_types@U?$pair@$$CBV?$basic_string@DU?$char_traits@D@std@@V?$allocator@D@2@@std@@H@std@@@std@@@2@XZ 0042b860 f i frmSamusEditor.obj
 0001:0002a890       ?_Get_second@?$_Compressed_pair@U?$less@V?$basic_string@DU?$char_traits@D@std@@V?$allocator@D@2@@std@@@std@@V?$_Compressed_pair@U?$_Wrap_alloc@V?$allocator@U?$_Tree_node@U?$pair@$$CBV?$basic_string@DU?$char_traits@D@std@@V?$allocator@D@2@@std@@H@std@@PAX@std@@@std@@@std@@V?$_Tree_val@U?$_Tree_simple_types@U?$pair@$$CBV?$basic_string@DU?$char_traits@D@std@@V?$allocator@D@2@@std@@H@std@@@std@@@2@$00@2@$00@std@@QBEABV?$_Compressed_pair@U?$_Wrap_alloc@V?$allocator@U?$_Tree_node@U?$pair@$$CBV?$basic_string@DU?$char_traits@D@std@@V?$allocator@D@2@@std@@H@std@@PAX@std@@@std@@@std@@V?$_Tree_val@U?$_Tree_simple_types@U?$pair@$$CBV?$basic_string@DU?$char_traits@D@std@@V?$allocator@D@2@@std@@H@std@@@std@@@2@$00@2@XZ 0042b890 f i frmSamusEditor.obj
 0001:0002a8c0       ?_Getal@?$_Tree_comp_alloc@V?$_Tmap_traits@V?$basic_string@DU?$char_traits@D@std@@V?$allocator@D@2@@std@@HU?$less@V?$basic_string@DU?$char_traits@D@std@@V?$allocator@D@2@@std@@@2@V?$allocator@U?$pair@$$CBV?$basic_string@DU?$char_traits@D@std@@V?$allocator@D@2@@std@@H@std@@@2@$0A@@std@@@std@@QBEABU?$_Wrap_alloc@V?$allocator@U?$_Tree_node@U?$pair@$$CBV?$basic_string@DU?$char_traits@D@std@@V?$allocator@D@2@@std@@H@std@@PAX@std@@@std@@@2@XZ 0042b8c0 f i frmSamusEditor.obj
 0001:0002a910       ?_Getal@?$_Vector_alloc@U?$_Vec_base_types@UOverAllOAM@@V?$allocator@UOverAllOAM@@@std@@@std@@@std@@QAEAAU?$_Wrap_alloc@V?$allocator@UOverAllOAM@@@std@@@2@XZ 0042b910 f i frmSamusEditor.obj
 0001:0002a950       ?_Getal@?$_Vector_alloc@U?$_Vec_base_types@UOverAllOAM@@V?$allocator@UOverAllOAM@@@std@@@std@@@std@@QBEABU?$_Wrap_alloc@V?$allocator@UOverAllOAM@@@std@@@2@XZ 0042b950 f i frmSamusEditor.obj
 0001:0002a990       ?_Getcomp@?$_Tree_comp_alloc@V?$_Tmap_traits@V?$basic_string@DU?$char_traits@D@std@@V?$allocator@D@2@@std@@HU?$less@V?$basic_string@DU?$char_traits@D@std@@V?$allocator@D@2@@std@@@2@V?$allocator@U?$pair@$$CBV?$basic_string@DU?$char_traits@D@std@@V?$allocator@D@2@@std@@H@std@@@2@$0A@@std@@@std@@QAEAAU?$less@V?$basic_string@DU?$char_traits@D@std@@V?$allocator@D@2@@std@@@2@XZ 0042b990 f i frmSamusEditor.obj
 0001:0002a9d0       ?_Getcomp@?$_Tree_comp_alloc@V?$_Tmap_traits@V?$basic_string@DU?$char_traits@D@std@@V?$allocator@D@2@@std@@HU?$less@V?$basic_string@DU?$char_traits@D@std@@V?$allocator@D@2@@std@@@2@V?$allocator@U?$pair@$$CBV?$basic_string@DU?$char_traits@D@std@@V?$allocator@D@2@@std@@H@std@@@2@$0A@@std@@@std@@QBEABU?$less@V?$basic_string@DU?$char_traits@D@std@@V?$allocator@D@2@@std@@@2@XZ 0042b9d0 f i frmSamusEditor.obj
 0001:0002aa10       ?_Getpfirst@?$_Tree_comp_alloc@V?$_Tmap_traits@V?$basic_string@DU?$char_traits@D@std@@V?$allocator@D@2@@std@@HU?$less@V?$basic_string@DU?$char_traits@D@std@@V?$allocator@D@2@@std@@@2@V?$allocator@U?$pair@$$CBV?$basic_string@DU?$char_traits@D@std@@V?$allocator@D@2@@std@@H@std@@@2@$0A@@std@@@std@@QBEPAPAU_Iterator_base12@2@XZ 0042ba10 f i frmSamusEditor.obj
 0001:0002aa60       ?_Getpfirst@?$_Vector_alloc@U?$_Vec_base_types@UOverAllOAM@@V?$allocator@UOverAllOAM@@@std@@@std@@@std@@QBEPAPAU_Iterator_base12@2@XZ 0042ba60 f i frmSamusEditor.obj
 0001:0002aab0       ?_Grow_to@?$vector@UOverAllOAM@@V?$allocator@UOverAllOAM@@@std@@@std@@IBEII@Z 0042bab0 f i frmSamusEditor.obj
 0001:0002ab40       ?_Inside@?$vector@UOverAllOAM@@V?$allocator@UOverAllOAM@@@std@@@std@@IBE_NPBUOverAllOAM@@@Z 0042bb40 f i frmSamusEditor.obj
 0001:0002abd0       ?_Key@?$_Tree@V?$_Tmap_traits@V?$basic_string@DU?$char_traits@D@std@@V?$allocator@D@2@@std@@HU?$less@V?$basic_string@DU?$char_traits@D@std@@V?$allocator@D@2@@std@@@2@V?$allocator@U?$pair@$$CBV?$basic_string@DU?$char_traits@D@std@@V?$allocator@D@2@@std@@H@std@@@2@$0A@@std@@@std@@IBEABV?$basic_string@DU?$char_traits@D@std@@V?$allocator@D@2@@2@PAU?$_Tree_node@U?$pair@$$CBV?$basic_string@DU?$char_traits@D@std@@V?$allocator@D@2@@std@@H@std@@PAX@2@@Z 0042bbd0 f i frmSamusEditor.obj
 0001:0002ac20       ?_Kfn@?$_Tree@V?$_Tmap_traits@V?$basic_string@DU?$char_traits@D@std@@V?$allocator@D@2@@std@@HU?$less@V?$basic_string@DU?$char_traits@D@std@@V?$allocator@D@2@@std@@@2@V?$allocator@U?$pair@$$CBV?$basic_string@DU?$char_traits@D@std@@V?$allocator@D@2@@std@@H@std@@@2@$0A@@std@@@std@@IBEABV?$basic_string@DU?$char_traits@D@std@@V?$allocator@D@2@@2@ABU?$pair@$$CBV?$basic_string@DU?$char_traits@D@std@@V?$allocator@D@2@@std@@H@2@@Z 0042bc20 f i frmSamusEditor.obj
 0001:0002ac70       ?_Lmost@?$_Tree@V?$_Tmap_traits@V?$basic_string@DU?$char_traits@D@std@@V?$allocator@D@2@@std@@HU?$less@V?$basic_string@DU?$char_traits@D@std@@V?$allocator@D@2@@std@@@2@V?$allocator@U?$pair@$$CBV?$basic_string@DU?$char_traits@D@std@@V?$allocator@D@2@@std@@H@std@@@2@$0A@@std@@@std@@IBEAAPAU?$_Tree_node@U?$pair@$$CBV?$basic_string@DU?$char_traits@D@std@@V?$allocator@D@2@@std@@H@std@@PAX@2@XZ 0042bc70 f i frmSamusEditor.obj
 0001:0002acc0       ?_Lrotate@?$_Tree@V?$_Tmap_traits@V?$basic_string@DU?$char_traits@D@std@@V?$allocator@D@2@@std@@HU?$less@V?$basic_string@DU?$char_traits@D@std@@V?$allocator@D@2@@std@@@2@V?$allocator@U?$pair@$$CBV?$basic_string@DU?$char_traits@D@std@@V?$allocator@D@2@@std@@H@std@@@2@$0A@@std@@@std@@IAEXPAU?$_Tree_node@U?$pair@$$CBV?$basic_string@DU?$char_traits@D@std@@V?$allocator@D@2@@std@@H@std@@PAX@2@@Z 0042bcc0 f i frmSamusEditor.obj
 0001:0002ae20       ?_Max@?$_Tree_comp_alloc@V?$_Tmap_traits@V?$basic_string@DU?$char_traits@D@std@@V?$allocator@D@2@@std@@HU?$less@V?$basic_string@DU?$char_traits@D@std@@V?$allocator@D@2@@std@@@2@V?$allocator@U?$pair@$$CBV?$basic_string@DU?$char_traits@D@std@@V?$allocator@D@2@@std@@H@std@@@2@$0A@@std@@@std@@SAPAU?$_Tree_node@U?$pair@$$CBV?$basic_string@DU?$char_traits@D@std@@V?$allocator@D@2@@std@@H@std@@PAX@2@PAU32@@Z 0042be20 f i frmSamusEditor.obj
 0001:0002ae60       ?_Max@?$_Tree_val@U?$_Tree_simple_types@U?$pair@$$CBV?$basic_string@DU?$char_traits@D@std@@V?$allocator@D@2@@std@@H@std@@@std@@@std@@SAPAU?$_Tree_node@U?$pair@$$CBV?$basic_string@DU?$char_traits@D@std@@V?$allocator@D@2@@std@@H@std@@PAX@2@PAU32@@Z 0042be60 f i frmSamusEditor.obj
 0001:0002aed0       ?_Min@?$_Tree_comp_alloc@V?$_Tmap_traits@V?$basic_string@DU?$char_traits@D@std@@V?$allocator@D@2@@std@@HU?$less@V?$basic_string@DU?$char_traits@D@std@@V?$allocator@D@2@@std@@@2@V?$allocator@U?$pair@$$CBV?$basic_string@DU?$char_traits@D@std@@V?$allocator@D@2@@std@@H@std@@@2@$0A@@std@@@std@@SAPAU?$_Tree_node@U?$pair@$$CBV?$basic_string@DU?$char_traits@D@std@@V?$allocator@D@2@@std@@H@std@@PAX@2@PAU32@@Z 0042bed0 f i frmSamusEditor.obj
 0001:0002af10       ?_Min@?$_Tree_val@U?$_Tree_simple_types@U?$pair@$$CBV?$basic_string@DU?$char_traits@D@std@@V?$allocator@D@2@@std@@H@std@@@std@@@std@@SAPAU?$_Tree_node@U?$pair@$$CBV?$basic_string@DU?$char_traits@D@std@@V?$allocator@D@2@@std@@H@std@@PAX@2@PAU32@@Z 0042bf10 f i frmSamusEditor.obj
 0001:0002af80       ?_Myend@?$_Vector_alloc@U?$_Vec_base_types@UOverAllOAM@@V?$allocator@UOverAllOAM@@@std@@@std@@@std@@QAEAAPAUOverAllOAM@@XZ 0042bf80 f i frmSamusEditor.obj
 0001:0002afd0       ?_Myend@?$_Vector_alloc@U?$_Vec_base_types@UOverAllOAM@@V?$allocator@UOverAllOAM@@@std@@@std@@@std@@QBEABQAUOverAllOAM@@XZ 0042bfd0 f i frmSamusEditor.obj
 0001:0002b020       ?_Myhead@?$_Tree_comp_alloc@V?$_Tmap_traits@V?$basic_string@DU?$char_traits@D@std@@V?$allocator@D@2@@std@@HU?$less@V?$basic_string@DU?$char_traits@D@std@@V?$allocator@D@2@@std@@@2@V?$allocator@U?$pair@$$CBV?$basic_string@DU?$char_traits@D@std@@V?$allocator@D@2@@std@@H@std@@@2@$0A@@std@@@std@@QBEABQAU?$_Tree_node@U?$pair@$$CBV?$basic_string@DU?$char_traits@D@std@@V?$allocator@D@2@@std@@H@std@@PAX@2@XZ 0042c020 f i frmSamusEditor.obj
 0001:0002b070       ?_Mylast@?$_Vector_alloc@U?$_Vec_base_types@UOverAllOAM@@V?$allocator@UOverAllOAM@@@std@@@std@@@std@@QAEAAPAUOverAllOAM@@XZ 0042c070 f i frmSamusEditor.obj
 0001:0002b0c0       ?_Mynode@?$_Tree_unchecked_const_iterator@V?$_Tree_val@U?$_Tree_simple_types@U?$pair@$$CBV?$basic_string@DU?$char_traits@D@std@@V?$allocator@D@2@@std@@H@std@@@std@@@std@@U_Iterator_base12@2@@std@@QBEPAU?$_Tree_node@U?$pair@$$CBV?$basic_string@DU?$char_traits@D@std@@V?$allocator@D@2@@std@@H@std@@PAX@2@XZ 0042c0c0 f i frmSamusEditor.obj
 0001:0002b0f0       ?_Mysize@?$_Tree_comp_alloc@V?$_Tmap_traits@V?$basic_string@DU?$char_traits@D@std@@V?$allocator@D@2@@std@@HU?$less@V?$basic_string@DU?$char_traits@D@std@@V?$allocator@D@2@@std@@@2@V?$allocator@U?$pair@$$CBV?$basic_string@DU?$char_traits@D@std@@V?$allocator@D@2@@std@@H@std@@@2@$0A@@std@@@std@@QAEAAIXZ 0042c0f0 f i frmSamusEditor.obj
 0001:0002b140       ?_Mysize@?$_Tree_comp_alloc@V?$_Tmap_traits@V?$basic_string@DU?$char_traits@D@std@@V?$allocator@D@2@@std@@HU?$less@V?$basic_string@DU?$char_traits@D@std@@V?$allocator@D@2@@std@@@2@V?$allocator@U?$pair@$$CBV?$basic_string@DU?$char_traits@D@std@@V?$allocator@D@2@@std@@H@std@@@2@$0A@@std@@@std@@QBEABIXZ 0042c140 f i frmSamusEditor.obj
 0001:0002b190       ?_Myval@?$_Tree_comp_alloc@V?$_Tmap_traits@V?$basic_string@DU?$char_traits@D@std@@V?$allocator@D@2@@std@@HU?$less@V?$basic_string@DU?$char_traits@D@std@@V?$allocator@D@2@@std@@@2@V?$allocator@U?$pair@$$CBV?$basic_string@DU?$char_traits@D@std@@V?$allocator@D@2@@std@@H@std@@@2@$0A@@std@@@std@@SAAAU?$pair@$$CBV?$basic_string@DU?$char_traits@D@std@@V?$allocator@D@2@@std@@H@2@PAU?$_Tree_node@U?$pair@$$CBV?$basic_string@DU?$char_traits@D@std@@V?$allocator@D@2@@std@@H@std@@PAX@2@@Z 0042c190 f i frmSamusEditor.obj
 0001:0002b1d0       ?_Myval@?$_Tree_val@U?$_Tree_simple_types@U?$pair@$$CBV?$basic_string@DU?$char_traits@D@std@@V?$allocator@D@2@@std@@H@std@@@std@@@std@@SAAAU?$pair@$$CBV?$basic_string@DU?$char_traits@D@std@@V?$allocator@D@2@@std@@H@2@PAU?$_Tree_node@U?$pair@$$CBV?$basic_string@DU?$char_traits@D@std@@V?$allocator@D@2@@std@@H@std@@PAX@2@@Z 0042c1d0 f i frmSamusEditor.obj
 0001:0002b200       ?_Orphan_all@?$_Tree_comp_alloc@V?$_Tmap_traits@V?$basic_string@DU?$char_traits@D@std@@V?$allocator@D@2@@std@@HU?$less@V?$basic_string@DU?$char_traits@D@std@@V?$allocator@D@2@@std@@@2@V?$allocator@U?$pair@$$CBV?$basic_string@DU?$char_traits@D@std@@V?$allocator@D@2@@std@@H@std@@@2@$0A@@std@@@std@@QAEXXZ 0042c200 f i frmSamusEditor.obj
 0001:0002b250       ?_Orphan_all@?$_Vector_alloc@U?$_Vec_base_types@UOverAllOAM@@V?$allocator@UOverAllOAM@@@std@@@std@@@std@@QAEXXZ 0042c250 f i frmSamusEditor.obj
 0001:0002b2a0       ?_Orphan_ptr@?$_Tree@V?$_Tmap_traits@V?$basic_string@DU?$char_traits@D@std@@V?$allocator@D@2@@std@@HU?$less@V?$basic_string@DU?$char_traits@D@std@@V?$allocator@D@2@@std@@@2@V?$allocator@U?$pair@$$CBV?$basic_string@DU?$char_traits@D@std@@V?$allocator@D@2@@std@@H@std@@@2@$0A@@std@@@std@@IAEXPAU?$_Tree_node@U?$pair@$$CBV?$basic_string@DU?$char_traits@D@std@@V?$allocator@D@2@@std@@H@std@@PAX@2@@Z 0042c2a0 f i frmSamusEditor.obj
 0001:0002b3d0       ?_Orphan_range@?$vector@UOverAllOAM@@V?$allocator@UOverAllOAM@@@std@@@std@@IBEXPAUOverAllOAM@@0@Z 0042c3d0 f i frmSamusEditor.obj
 0001:0002b500       ?_Reallocate@?$vector@UOverAllOAM@@V?$allocator@UOverAllOAM@@@std@@@std@@IAEXI@Z 0042c500 f i frmSamusEditor.obj
 0001:0002b690       ?_Reserve@?$vector@UOverAllOAM@@V?$allocator@UOverAllOAM@@@std@@@std@@IAEXI@Z 0042c690 f i frmSamusEditor.obj
 0001:0002b720       ?_Rmost@?$_Tree@V?$_Tmap_traits@V?$basic_string@DU?$char_traits@D@std@@V?$allocator@D@2@@std@@HU?$less@V?$basic_string@DU?$char_traits@D@std@@V?$allocator@D@2@@std@@@2@V?$allocator@U?$pair@$$CBV?$basic_string@DU?$char_traits@D@std@@V?$allocator@D@2@@std@@H@std@@@2@$0A@@std@@@std@@IBEAAPAU?$_Tree_node@U?$pair@$$CBV?$basic_string@DU?$char_traits@D@std@@V?$allocator@D@2@@std@@H@std@@PAX@2@XZ 0042c720 f i frmSamusEditor.obj
 0001:0002b770       ?_Root@?$_Tree@V?$_Tmap_traits@V?$basic_string@DU?$char_traits@D@std@@V?$allocator@D@2@@std@@HU?$less@V?$basic_string@DU?$char_traits@D@std@@V?$allocator@D@2@@std@@@2@V?$allocator@U?$pair@$$CBV?$basic_string@DU?$char_traits@D@std@@V?$allocator@D@2@@std@@H@std@@@2@$0A@@std@@@std@@IBEAAPAU?$_Tree_node@U?$pair@$$CBV?$basic_string@DU?$char_traits@D@std@@V?$allocator@D@2@@std@@H@std@@PAX@2@XZ 0042c770 f i frmSamusEditor.obj
 0001:0002b7c0       ?_Rrotate@?$_Tree@V?$_Tmap_traits@V?$basic_string@DU?$char_traits@D@std@@V?$allocator@D@2@@std@@HU?$less@V?$basic_string@DU?$char_traits@D@std@@V?$allocator@D@2@@std@@@2@V?$allocator@U?$pair@$$CBV?$basic_string@DU?$char_traits@D@std@@V?$allocator@D@2@@std@@H@std@@@2@$0A@@std@@@std@@IAEXPAU?$_Tree_node@U?$pair@$$CBV?$basic_string@DU?$char_traits@D@std@@V?$allocator@D@2@@std@@H@std@@PAX@2@@Z 0042c7c0 f i frmSamusEditor.obj
 0001:0002b920       ?_Tidy@?$_Tree@V?$_Tmap_traits@V?$basic_string@DU?$char_traits@D@std@@V?$allocator@D@2@@std@@HU?$less@V?$basic_string@DU?$char_traits@D@std@@V?$allocator@D@2@@std@@@2@V?$allocator@U?$pair@$$CBV?$basic_string@DU?$char_traits@D@std@@V?$allocator@D@2@@std@@H@std@@@2@$0A@@std@@@std@@IAEXXZ 0042c920 f i frmSamusEditor.obj
 0001:0002ba60       ?_Unused_capacity@?$vector@UOverAllOAM@@V?$allocator@UOverAllOAM@@@std@@@std@@QBEIXZ 0042ca60 f i frmSamusEditor.obj
 0001:0002bac0       ?_Xlen@?$vector@UOverAllOAM@@V?$allocator@UOverAllOAM@@@std@@@std@@IBEXXZ 0042cac0 f i frmSamusEditor.obj
 0001:0002bb10       ?allocate@?$_Wrap_alloc@V?$allocator@UOverAllOAM@@@std@@@std@@QAEPAUOverAllOAM@@I@Z 0042cb10 f i frmSamusEditor.obj
 0001:0002bb60       ?allocate@?$allocator@UOverAllOAM@@@std@@QAEPAUOverAllOAM@@I@Z 0042cb60 f i frmSamusEditor.obj
 0001:0002bbb0       ?begin@?$_Tree@V?$_Tmap_traits@V?$basic_string@DU?$char_traits@D@std@@V?$allocator@D@2@@std@@HU?$less@V?$basic_string@DU?$char_traits@D@std@@V?$allocator@D@2@@std@@@2@V?$allocator@U?$pair@$$CBV?$basic_string@DU?$char_traits@D@std@@V?$allocator@D@2@@std@@H@std@@@2@$0A@@std@@@std@@QAE?AV?$_Tree_iterator@V?$_Tree_val@U?$_Tree_simple_types@U?$pair@$$CBV?$basic_string@DU?$char_traits@D@std@@V?$allocator@D@2@@std@@H@std@@@std@@@std@@@2@XZ 0042cbb0 f i frmSamusEditor.obj
 0001:0002bc40       ?capacity@?$vector@UOverAllOAM@@V?$allocator@UOverAllOAM@@@std@@@std@@QBEIXZ 0042cc40 f i frmSamusEditor.obj
 0001:0002bca0       ?clear@?$_Tree@V?$_Tmap_traits@V?$basic_string@DU?$char_traits@D@std@@V?$allocator@D@2@@std@@HU?$less@V?$basic_string@DU?$char_traits@D@std@@V?$allocator@D@2@@std@@@2@V?$allocator@U?$pair@$$CBV?$basic_string@DU?$char_traits@D@std@@V?$allocator@D@2@@std@@H@std@@@2@$0A@@std@@@std@@QAEXXZ 0042cca0 f i frmSamusEditor.obj
 0001:0002bd70       ?data@?$basic_string@DU?$char_traits@D@std@@V?$allocator@D@2@@std@@QBEPBDXZ 0042cd70 f i frmSamusEditor.obj
 0001:0002bde0       ?deallocate@?$_Wrap_alloc@V?$allocator@UOverAllOAM@@@std@@@std@@QAEXPAUOverAllOAM@@I@Z 0042cde0 f i frmSamusEditor.obj
 0001:0002be30       ?deallocate@?$allocator@UOverAllOAM@@@std@@QAEXPAUOverAllOAM@@I@Z 0042ce30 f i frmSamusEditor.obj
 0001:0002be80       ?end@?$_Tree@V?$_Tmap_traits@V?$basic_string@DU?$char_traits@D@std@@V?$allocator@D@2@@std@@HU?$less@V?$basic_string@DU?$char_traits@D@std@@V?$allocator@D@2@@std@@@2@V?$allocator@U?$pair@$$CBV?$basic_string@DU?$char_traits@D@std@@V?$allocator@D@2@@std@@H@std@@@2@$0A@@std@@@std@@QAE?AV?$_Tree_iterator@V?$_Tree_val@U?$_Tree_simple_types@U?$pair@$$CBV?$basic_string@DU?$char_traits@D@std@@V?$allocator@D@2@@std@@H@std@@@std@@@std@@@2@XZ 0042ce80 f i frmSamusEditor.obj
 0001:0002bf10       ?erase@?$_Tree@V?$_Tmap_traits@V?$basic_string@DU?$char_traits@D@std@@V?$allocator@D@2@@std@@HU?$less@V?$basic_string@DU?$char_traits@D@std@@V?$allocator@D@2@@std@@@2@V?$allocator@U?$pair@$$CBV?$basic_string@DU?$char_traits@D@std@@V?$allocator@D@2@@std@@H@std@@@2@$0A@@std@@@std@@QAE?AV?$_Tree_iterator@V?$_Tree_val@U?$_Tree_simple_types@U?$pair@$$CBV?$basic_string@DU?$char_traits@D@std@@V?$allocator@D@2@@std@@H@std@@@std@@@std@@@2@V?$_Tree_const_iterator@V?$_Tree_val@U?$_Tree_simple_types@U?$pair@$$CBV?$basic_string@DU?$char_traits@D@std@@V?$allocator@D@2@@std@@H@std@@@std@@@std@@@2@0@Z 0042cf10 f i frmSamusEditor.obj
 0001:0002c190       ?erase@?$_Tree@V?$_Tmap_traits@V?$basic_string@DU?$char_traits@D@std@@V?$allocator@D@2@@std@@HU?$less@V?$basic_string@DU?$char_traits@D@std@@V?$allocator@D@2@@std@@@2@V?$allocator@U?$pair@$$CBV?$basic_string@DU?$char_traits@D@std@@V?$allocator@D@2@@std@@H@std@@@2@$0A@@std@@@std@@QAE?AV?$_Tree_iterator@V?$_Tree_val@U?$_Tree_simple_types@U?$pair@$$CBV?$basic_string@DU?$char_traits@D@std@@V?$allocator@D@2@@std@@H@std@@@std@@@std@@@2@V?$_Tree_const_iterator@V?$_Tree_val@U?$_Tree_simple_types@U?$pair@$$CBV?$basic_string@DU?$char_traits@D@std@@V?$allocator@D@2@@std@@H@std@@@std@@@std@@@2@@Z 0042d190 f i frmSamusEditor.obj
 0001:0002ca10       ?lower_bound@?$_Tree@V?$_Tmap_traits@V?$basic_string@DU?$char_traits@D@std@@V?$allocator@D@2@@std@@HU?$less@V?$basic_string@DU?$char_traits@D@std@@V?$allocator@D@2@@std@@@2@V?$allocator@U?$pair@$$CBV?$basic_string@DU?$char_traits@D@std@@V?$allocator@D@2@@std@@H@std@@@2@$0A@@std@@@std@@QAE?AV?$_Tree_iterator@V?$_Tree_val@U?$_Tree_simple_types@U?$pair@$$CBV?$basic_string@DU?$char_traits@D@std@@V?$allocator@D@2@@std@@H@std@@@std@@@std@@@2@ABV?$basic_string@DU?$char_traits@D@std@@V?$allocator@D@2@@2@@Z 0042da10 f i frmSamusEditor.obj
 0001:0002ca90       ?max_size@?$_Tree@V?$_Tmap_traits@V?$basic_string@DU?$char_traits@D@std@@V?$allocator@D@2@@std@@HU?$less@V?$basic_string@DU?$char_traits@D@std@@V?$allocator@D@2@@std@@@2@V?$allocator@U?$pair@$$CBV?$basic_string@DU?$char_traits@D@std@@V?$allocator@D@2@@std@@H@std@@@2@$0A@@std@@@std@@QBEIXZ 0042da90 f i frmSamusEditor.obj
 0001:0002cae0       ?max_size@?$_Wrap_alloc@V?$allocator@U?$_Tree_node@U?$pair@$$CBV?$basic_string@DU?$char_traits@D@std@@V?$allocator@D@2@@std@@H@std@@PAX@std@@@std@@@std@@QBEIU_Nil@2@@Z 0042dae0 f i frmSamusEditor.obj
 0001:0002cb30       ?max_size@?$_Wrap_alloc@V?$allocator@UOverAllOAM@@@std@@@std@@QBEIU_Nil@2@@Z 0042db30 f i frmSamusEditor.obj
 0001:0002cb80       ?max_size@?$allocator@U?$_Tree_node@U?$pair@$$CBV?$basic_string@DU?$char_traits@D@std@@V?$allocator@D@2@@std@@H@std@@PAX@std@@@std@@QBEIXZ 0042db80 f i frmSamusEditor.obj
 0001:0002cbb0       ?max_size@?$allocator@UOverAllOAM@@@std@@QBEIXZ 0042dbb0 f i frmSamusEditor.obj
 0001:0002cbe0       ?max_size@?$allocator_traits@V?$allocator@U?$_Tree_node@U?$pair@$$CBV?$basic_string@DU?$char_traits@D@std@@V?$allocator@D@2@@std@@H@std@@PAX@std@@@std@@@std@@SAIABV?$allocator@U?$_Tree_node@U?$pair@$$CBV?$basic_string@DU?$char_traits@D@std@@V?$allocator@D@2@@std@@H@std@@PAX@std@@@2@@Z 0042dbe0 f i frmSamusEditor.obj
 0001:0002cc20       ?max_size@?$allocator_traits@V?$allocator@UOverAllOAM@@@std@@@std@@SAIABV?$allocator@UOverAllOAM@@@2@@Z 0042dc20 f i frmSamusEditor.obj
 0001:0002cc60       ?max_size@?$vector@UOverAllOAM@@V?$allocator@UOverAllOAM@@@std@@@std@@QBEIXZ 0042dc60 f i frmSamusEditor.obj
 0001:0002ccb0       ?pointer_to@?$pointer_traits@PAU?$pair@$$CBV?$basic_string@DU?$char_traits@D@std@@V?$allocator@D@2@@std@@H@std@@@std@@SAPAU?$pair@$$CBV?$basic_string@DU?$char_traits@D@std@@V?$allocator@D@2@@std@@H@2@AAU32@@Z 0042dcb0 f i frmSamusEditor.obj
 0001:0002ccf0       ?push_back@?$vector@UOverAllOAM@@V?$allocator@UOverAllOAM@@@std@@@std@@QAEXABUOverAllOAM@@@Z 0042dcf0 f i frmSamusEditor.obj
 0001:0002cea0       ?size@?$_Tree@V?$_Tmap_traits@V?$basic_string@DU?$char_traits@D@std@@V?$allocator@D@2@@std@@HU?$less@V?$basic_string@DU?$char_traits@D@std@@V?$allocator@D@2@@std@@@2@V?$allocator@U?$pair@$$CBV?$basic_string@DU?$char_traits@D@std@@V?$allocator@D@2@@std@@H@std@@@2@$0A@@std@@@std@@QBEIXZ 0042dea0 f i frmSamusEditor.obj
 0001:0002cef0       ??0GlobalVars@@QAE@XZ      0042def0 f   GlobalVars.obj
 0001:0002d2e0       ??1GlobalVars@@QAE@XZ      0042e2e0 f   GlobalVars.obj
 0001:0002d5d0       ??_GMetroidTextEditor@@QAEPAXI@Z 0042e5d0 f i GlobalVars.obj
 0001:0002d630       ??_GOamFrameTable@@QAEPAXI@Z 0042e630 f i GlobalVars.obj
 0001:0002d690       ??_GcStatEd@@QAEPAXI@Z     0042e690 f i GlobalVars.obj
 0001:0002d6f0       ??_GwndBGImport@@QAEPAXI@Z 0042e6f0 f i GlobalVars.obj
 0001:0002d750       ??A?$vector@UnEnemies@@V?$allocator@UnEnemies@@@std@@@std@@QAEAAUnEnemies@@I@Z 0042e750 f i HeaderEditor.obj
 0001:0002d830       ??A?$vector@UnEnemyList@@V?$allocator@UnEnemyList@@@std@@@std@@QAEAAUnEnemyList@@I@Z 0042e830 f i HeaderEditor.obj
 0001:0002d910       ?ChangeSprites@@YAHXZ      0042e910 f   HeaderEditor.obj
 0001:0002dbe0       ?HeaderProced@@YGHPAUHWND__@@IIJ@Z 0042ebe0 f   HeaderEditor.obj
 0001:0002e080       ?LoadHeaderControls@@YAHXZ 0042f080 f   HeaderEditor.obj
 0001:0002e820       ?Max@nEnemyList@@QAEEXZ    0042f820 f i HeaderEditor.obj
 0001:0002e870       ?SaveHeader@@YAHE@Z        0042f870 f   HeaderEditor.obj
 0001:0002f1f0       ?SetupHeaderControls@@YAHXZ 004301f0 f   HeaderEditor.obj
 0001:0002f790       ?_Get_data@?$_Vector_alloc@U?$_Vec_base_types@UnEnemies@@V?$allocator@UnEnemies@@@std@@@std@@@std@@QAEAAV?$_Vector_val@U?$_Simple_types@UnEnemies@@@std@@@2@XZ 00430790 f i HeaderEditor.obj
 0001:0002f7d0       ?_Get_data@?$_Vector_alloc@U?$_Vec_base_types@UnEnemies@@V?$allocator@UnEnemies@@@std@@@std@@@std@@QBEABV?$_Vector_val@U?$_Simple_types@UnEnemies@@@std@@@2@XZ 004307d0 f i HeaderEditor.obj
 0001:0002f810       ?_Get_data@?$_Vector_alloc@U?$_Vec_base_types@UnEnemyList@@V?$allocator@UnEnemyList@@@std@@@std@@@std@@QAEAAV?$_Vector_val@U?$_Simple_types@UnEnemyList@@@std@@@2@XZ 00430810 f i HeaderEditor.obj
 0001:0002f850       ?_Get_second@?$_Compressed_pair@U?$_Wrap_alloc@V?$allocator@UnEnemies@@@std@@@std@@V?$_Vector_val@U?$_Simple_types@UnEnemies@@@std@@@2@$00@std@@QAEAAV?$_Vector_val@U?$_Simple_types@UnEnemies@@@std@@@2@XZ 00430850 f i HeaderEditor.obj
 0001:0002f880       ?_Get_second@?$_Compressed_pair@U?$_Wrap_alloc@V?$allocator@UnEnemies@@@std@@@std@@V?$_Vector_val@U?$_Simple_types@UnEnemies@@@std@@@2@$00@std@@QBEABV?$_Vector_val@U?$_Simple_types@UnEnemies@@@std@@@2@XZ 00430880 f i HeaderEditor.obj
 0001:0002f8b0       ?_Get_second@?$_Compressed_pair@U?$_Wrap_alloc@V?$allocator@UnEnemyList@@@std@@@std@@V?$_Vector_val@U?$_Simple_types@UnEnemyList@@@std@@@2@$00@std@@QAEAAV?$_Vector_val@U?$_Simple_types@UnEnemyList@@@std@@@2@XZ 004308b0 f i HeaderEditor.obj
 0001:0002f8e0       ?_Myfirst@?$_Vector_alloc@U?$_Vec_base_types@UnEnemies@@V?$allocator@UnEnemies@@@std@@@std@@@std@@QAEAAPAUnEnemies@@XZ 004308e0 f i HeaderEditor.obj
 0001:0002f930       ?_Myfirst@?$_Vector_alloc@U?$_Vec_base_types@UnEnemies@@V?$allocator@UnEnemies@@@std@@@std@@@std@@QBEABQAUnEnemies@@XZ 00430930 f i HeaderEditor.obj
 0001:0002f980       ?_Myfirst@?$_Vector_alloc@U?$_Vec_base_types@UnEnemyList@@V?$allocator@UnEnemyList@@@std@@@std@@@std@@QAEAAPAUnEnemyList@@XZ 00430980 f i HeaderEditor.obj
 0001:0002f9d0       ?_Mylast@?$_Vector_alloc@U?$_Vec_base_types@UnEnemies@@V?$allocator@UnEnemies@@@std@@@std@@@std@@QBEABQAUnEnemies@@XZ 004309d0 f i HeaderEditor.obj
 0001:0002fa20       ?size@?$vector@UnEnemies@@V?$allocator@UnEnemies@@@std@@@std@@QBEIXZ 00430a20 f i HeaderEditor.obj
 0001:0002fa80       ?ApplyIPS@@YAHPAD0@Z       00430a80 f   IPSPatch.obj
 0001:0002fd30       ?GetIPSAddress@@YAJPAU_iobuf@@@Z 00430d30 f   IPSPatch.obj
 0001:0002fde0       ?GetIPSShort@@YAJPAU_iobuf@@@Z 00430de0 f   IPSPatch.obj
 0001:0002fe80       ??_GGBAGraphics@@QAEPAXI@Z 00430e80 f i main.obj
 0001:0002fee0       ??_GGameConfiguration@@QAEPAXI@Z 00430ee0 f i main.obj
 0001:0002ff40       ??_GGlobalVars@@QAEPAXI@Z  00430f40 f i main.obj
 0001:0002ffa0       ??_GMiniMapClass@@QAEPAXI@Z 00430fa0 f i main.obj
 0001:00030000       ??_GUiState@@QAEPAXI@Z     00431000 f i main.obj
 0001:00030060       ??_GcOAMEdit@@QAEPAXI@Z    00431060 f i main.obj
 0001:000300c0       ??_GcSpriteSetEditor@@QAEPAXI@Z 004310c0 f i main.obj
 0001:00030120       ?ClearGlobals@@YAHXZ       00431120 f   main.obj
 0001:00030290       ?DialogProc@@YGHPAUHWND__@@IIJ@Z 00431290 f   main.obj
 0001:00031020       ?ErrorMessage@@YAXPAD@Z    00432020 f   main.obj
 0001:00031080       ?HandleDetections@@YAHPAUHWND__@@IIJ@Z 00432080 f   main.obj
 0001:00031b40       ?LoadCombos@@YAXPAVsCombo@@PADH@Z 00432b40 f   main.obj
 0001:00031da0       ?LoadConfigFile@@YAHPAD@Z  00432da0 f   main.obj
 0001:000322e0       ?ProcessControls@@YA_NPAUHWND__@@IIJ@Z 004332e0 f   main.obj
 0001:00032620       ?SetUpCombos@@YAHXZ        00433620 f   main.obj
 0001:000328c0       ?TabResize@@YAXXZ          004338c0 f   main.obj
 0001:00032b30       ?_Get_data@?$_Vector_alloc@U?$_Vec_base_types@V?$basic_string@DU?$char_traits@D@std@@V?$allocator@D@2@@std@@V?$allocator@V?$basic_string@DU?$char_traits@D@std@@V?$allocator@D@2@@std@@@2@@std@@@std@@QAEAAV?$_Vector_val@U?$_Simple_types@V?$basic_string@DU?$char_traits@D@std@@V?$allocator@D@2@@std@@@std@@@2@XZ 00433b30 f i main.obj
 0001:00032b70       ?_Get_data@?$_Vector_alloc@U?$_Vec_base_types@V?$basic_string@DU?$char_traits@D@std@@V?$allocator@D@2@@std@@V?$allocator@V?$basic_string@DU?$char_traits@D@std@@V?$allocator@D@2@@std@@@2@@std@@@std@@QBEABV?$_Vector_val@U?$_Simple_types@V?$basic_string@DU?$char_traits@D@std@@V?$allocator@D@2@@std@@@std@@@2@XZ 00433b70 f i main.obj
 0001:00032bb0       ?_Get_second@?$_Compressed_pair@U?$_Wrap_alloc@V?$allocator@V?$basic_string@DU?$char_traits@D@std@@V?$allocator@D@2@@std@@@std@@@std@@V?$_Vector_val@U?$_Simple_types@V?$basic_string@DU?$char_traits@D@std@@V?$allocator@D@2@@std@@@std@@@2@$00@std@@QAEAAV?$_Vector_val@U?$_Simple_types@V?$basic_string@DU?$char_traits@D@std@@V?$allocator@D@2@@std@@@std@@@2@XZ 00433bb0 f i main.obj
 0001:00032be0       ?_Get_second@?$_Compressed_pair@U?$_Wrap_alloc@V?$allocator@V?$basic_string@DU?$char_traits@D@std@@V?$allocator@D@2@@std@@@std@@@std@@V?$_Vector_val@U?$_Simple_types@V?$basic_string@DU?$char_traits@D@std@@V?$allocator@D@2@@std@@@std@@@2@$00@std@@QBEABV?$_Vector_val@U?$_Simple_types@V?$basic_string@DU?$char_traits@D@std@@V?$allocator@D@2@@std@@@std@@@2@XZ 00433be0 f i main.obj
 0001:00032c10       ?_Myfirst@?$_Vector_alloc@U?$_Vec_base_types@V?$basic_string@DU?$char_traits@D@std@@V?$allocator@D@2@@std@@V?$allocator@V?$basic_string@DU?$char_traits@D@std@@V?$allocator@D@2@@std@@@2@@std@@@std@@QAEAAPAV?$basic_string@DU?$char_traits@D@std@@V?$allocator@D@2@@2@XZ 00433c10 f i main.obj
 0001:00032c60       ?_Myfirst@?$_Vector_alloc@U?$_Vec_base_types@V?$basic_string@DU?$char_traits@D@std@@V?$allocator@D@2@@std@@V?$allocator@V?$basic_string@DU?$char_traits@D@std@@V?$allocator@D@2@@std@@@2@@std@@@std@@QBEABQAV?$basic_string@DU?$char_traits@D@std@@V?$allocator@D@2@@2@XZ 00433c60 f i main.obj
 0001:00032cb0       ?_Mylast@?$_Vector_alloc@U?$_Vec_base_types@V?$basic_string@DU?$char_traits@D@std@@V?$allocator@D@2@@std@@V?$allocator@V?$basic_string@DU?$char_traits@D@std@@V?$allocator@D@2@@std@@@2@@std@@@std@@QBEABQAV?$basic_string@DU?$char_traits@D@std@@V?$allocator@D@2@@2@XZ 00433cb0 f i main.obj
 0001:00032d00       ?_Xran@?$vector@V?$basic_string@DU?$char_traits@D@std@@V?$allocator@D@2@@std@@V?$allocator@V?$basic_string@DU?$char_traits@D@std@@V?$allocator@D@2@@std@@@2@@std@@IBEXXZ 00433d00 f i main.obj
 0001:00032d50       ?at@?$vector@V?$basic_string@DU?$char_traits@D@std@@V?$allocator@D@2@@std@@V?$allocator@V?$basic_string@DU?$char_traits@D@std@@V?$allocator@D@2@@std@@@2@@std@@QAEAAV?$basic_string@DU?$char_traits@D@std@@V?$allocator@D@2@@2@I@Z 00433d50 f i main.obj
 0001:00032db0       ?hwndMain@@YAPAUHWND__@@XZ 00433db0 f   main.obj
 0001:00032df0       ?hwndMain@@YAXPAUHWND__@@@Z 00433df0 f   main.obj
 0001:00032e40       ?size@?$vector@V?$basic_string@DU?$char_traits@D@std@@V?$allocator@D@2@@std@@V?$allocator@V?$basic_string@DU?$char_traits@D@std@@V?$allocator@D@2@@std@@@2@@std@@QBEIXZ 00433e40 f i main.obj
 0001:00032ea0       _WinMain@16                00433ea0 f   main.obj
 0001:000334e0       ??0MapUtils@@QAE@PAVMapManager@@@Z 004344e0 f   MapUtils.obj
 0001:00033520       ?EditLayers@MapUtils@@QAEHIJ@Z 00434520 f   MapUtils.obj
 0001:00033740       ?EditThisLayer@MapUtils@@QAEHPAVnMapBuffer@@IJEG@Z 00434740 f   MapUtils.obj
 0001:00033b00       ?Gimmeasprite@MapUtils@@QAEHHHH@Z 00434b00 f   MapUtils.obj
 0001:00033cc0       ?HandleLeftClick@MapUtils@@QAEXW4editingStates@@HHHHH@Z 00434cc0 f   MapUtils.obj
 0001:00033e80       ?HandleRightClick@MapUtils@@QAEXW4editingStates@@HHH@Z 00434e80 f   MapUtils.obj
 0001:00034070       ?DC@BackBuffer@@QAEPAUHDC__@@XZ 00435070 f i MapWindow.obj
 0001:000340a0       ?Draw@@YAXPAUHDC__@@@Z     004350a0 f   MapWindow.obj
 0001:000342c0       ?GetActiveBuffer@@YAPAVnMapBuffer@@XZ 004352c0 f   MapWindow.obj
 0001:00034430       ?HandleCopyPasteMessages@@YAXPAUHWND__@@IIJ@Z 00435430 f   MapWindow.obj
 0001:000344a0       ?HandleMouseUpDown@@YAXHHPAUHWND__@@IIJ@Z 004354a0 f   MapWindow.obj
 0001:00034620       ?HandleScrolling@@YAXPAUHWND__@@IIJ@Z 00435620 f   MapWindow.obj
 0001:00034740       ?MapProc@@YGJPAUHWND__@@IIJ@Z 00435740 f   MapWindow.obj
 0001:000351f0       ?UpdateSprites@@YA_NXZ     004361f0 f   MapWindow.obj
 0001:000352d0       ?UpdateStatusText@@YAXHH@Z 004362d0 f   MapWindow.obj
 0001:00035530       ?_Get_data@?$_Vector_alloc@U?$_Vec_base_types@PAVFrameManager@@V?$allocator@PAVFrameManager@@@std@@@std@@@std@@QAEAAV?$_Vector_val@U?$_Simple_types@PAVFrameManager@@@std@@@2@XZ 00436530 f i MapWindow.obj
 0001:00035570       ?_Get_data@?$_Vector_alloc@U?$_Vec_base_types@PAVFrameManager@@V?$allocator@PAVFrameManager@@@std@@@std@@@std@@QBEABV?$_Vector_val@U?$_Simple_types@PAVFrameManager@@@std@@@2@XZ 00436570 f i MapWindow.obj
 0001:000355b0       ?_Get_second@?$_Compressed_pair@U?$_Wrap_alloc@V?$allocator@PAVFrameManager@@@std@@@std@@V?$_Vector_val@U?$_Simple_types@PAVFrameManager@@@std@@@2@$00@std@@QAEAAV?$_Vector_val@U?$_Simple_types@PAVFrameManager@@@std@@@2@XZ 004365b0 f i MapWindow.obj
 0001:000355e0       ?_Get_second@?$_Compressed_pair@U?$_Wrap_alloc@V?$allocator@PAVFrameManager@@@std@@@std@@V?$_Vector_val@U?$_Simple_types@PAVFrameManager@@@std@@@2@$00@std@@QBEABV?$_Vector_val@U?$_Simple_types@PAVFrameManager@@@std@@@2@XZ 004365e0 f i MapWindow.obj
 0001:00035610       ?_Myfirst@?$_Vector_alloc@U?$_Vec_base_types@PAVFrameManager@@V?$allocator@PAVFrameManager@@@std@@@std@@@std@@QAEAAPAPAVFrameManager@@XZ 00436610 f i MapWindow.obj
 0001:00035660       ?_Myfirst@?$_Vector_alloc@U?$_Vec_base_types@PAVFrameManager@@V?$allocator@PAVFrameManager@@@std@@@std@@@std@@QBEABQAPAVFrameManager@@XZ 00436660 f i MapWindow.obj
 0001:000356b0       ?_Mylast@?$_Vector_alloc@U?$_Vec_base_types@PAVFrameManager@@V?$allocator@PAVFrameManager@@@std@@@std@@@std@@QBEABQAPAVFrameManager@@XZ 004366b0 f i MapWindow.obj
 0001:00035700       ?_Xran@?$vector@PAVFrameManager@@V?$allocator@PAVFrameManager@@@std@@@std@@IBEXXZ 00436700 f i MapWindow.obj
 0001:00035750       ?at@?$vector@PAVFrameManager@@V?$allocator@PAVFrameManager@@@std@@@std@@QAEAAPAVFrameManager@@I@Z 00436750 f i MapWindow.obj
 0001:000357b0       ?size@?$vector@PAVFrameManager@@V?$allocator@PAVFrameManager@@@std@@@std@@QBEIXZ 004367b0 f i MapWindow.obj
 0001:00035810       ?Create@@YAXH@Z            00436810 f   MinimapEditor.obj
 0001:00035d10       ?CreateMiniMapImage@@YAHHH@Z 00436d10 f   MinimapEditor.obj
 0001:00035e60       ?CreateMiniMapTileImage@@YAHHH@Z 00436e60 f   MinimapEditor.obj
 0001:00035fa0       ?DecompressMap@MiniMapClass@@QAEHH@Z 00436fa0 f   MinimapEditor.obj
 0001:00036170       ?Destroy@MiniMapClass@@QAEHXZ 00437170 f   MinimapEditor.obj
 0001:000361d0       ?DrawMap@MiniMapClass@@QAEHPAVImage@@@Z 004371d0 f   MinimapEditor.obj
 0001:000362c0       ?DrawMapLoc@@YAHPAUHDC__@@@Z 004372c0 f   MinimapEditor.obj
 0001:000364c0       ?DrawTileset@MiniMapClass@@QAEHPAVImage@@H@Z 004374c0 f   MinimapEditor.obj
 0001:000365b0       ?MiniGraphicProc@@YGJPAUHWND__@@IIJ@Z 004375b0 f   MinimapEditor.obj
 0001:000368c0       ?MiniProc@@YGHPAUHWND__@@IIJ@Z 004378c0 f   MinimapEditor.obj
 0001:00036bd0       ?MiniTilesetProc@@YGJPAUHWND__@@IIJ@Z 00437bd0 f   MinimapEditor.obj
 0001:00036e40       ?SaveMap@MiniMapClass@@QAEHXZ 00437e40 f   MinimapEditor.obj
 0001:00036fb0       ??0MiniMapClass@@QAE@XZ    00437fb0 f   MinimapEditorClass.obj
 0001:00037090       ??1MiniMapClass@@QAE@XZ    00438090 f   MinimapEditorClass.obj
 0001:00037150       ?Create@MiniMapClass@@QAEHXZ 00438150 f   MinimapEditorClass.obj
 0001:00037420       ?Zero@MiniMapClass@@AAEHXZ 00438420 f   MinimapEditorClass.obj
 0001:000374e0       ?DrawTileRect@@YAHPAUHDC__@@JUMousePointer@@H@Z 004384e0 f   nFunctions.obj
 0001:000375d0       ?DrawTileRect@@YAHPAUHDC__@@UMousePointer@@H@Z 004385d0 f   nFunctions.obj
 0001:00037630       ?InputBoxProc@@YGJPAUHWND__@@IIJ@Z 00438630 f   nFunctions.obj
 0001:000377c0       ?LoadInput@@YAHJ@Z         004387c0 f   nFunctions.obj
 0001:00037830       ??$?0U?$_Wrap_alloc@V?$allocator@K@std@@@std@@$$V@?$_Compressed_pair@U?$_Wrap_alloc@V?$allocator@K@std@@@std@@V?$_Vector_val@U?$_Simple_types@K@std@@@2@$00@std@@QAE@U_One_then_variadic_args_t@1@$$QAU?$_Wrap_alloc@V?$allocator@K@std@@@1@@Z 00438830 f i frmOAM.obj
 0001:00037890       ??$?0U?$_Wrap_alloc@V?$allocator@K@std@@@std@@X@?$_Vector_alloc@U?$_Vec_base_types@KV?$allocator@K@std@@@std@@@std@@QAE@$$QAU?$_Wrap_alloc@V?$allocator@K@std@@@1@@Z 00438890 f i frmOAM.obj
 0001:00037930       ??$?0V?$allocator@K@std@@@?$_Wrap_alloc@V?$allocator@K@std@@@std@@QAE@$$QAV?$allocator@K@1@@Z 00438930 f i frmOAM.obj
 0001:00037990       ??$_Copy_memmove@PBKPAK@std@@YAPAKPBK0PAK@Z 00438990 f i frmOAM.obj
 0001:00037a10       ??$_Ptr_copy_cat@$$CBKK@std@@YA?AU_Really_trivial_ptr_iterator_tag@0@ABQBKABQAK@Z 00438a10 f i frmOAM.obj
 0001:00037a40       ??$_Rechecked@PAKPAK@std@@YAAAPAKAAPAKPAK@Z 00438a40 f i frmOAM.obj
 0001:00037a70       ??$_Ucopy@V?$_Vector_const_iterator@V?$_Vector_val@U?$_Simple_types@K@std@@@std@@@std@@@?$vector@KV?$allocator@K@std@@@std@@IAEPAKV?$_Vector_const_iterator@V?$_Vector_val@U?$_Simple_types@K@std@@@std@@@1@0PAK@Z 00438a70 f i frmOAM.obj
 0001:00037b70       ??$_Unchecked@PAK@std@@YAPAKPAK@Z 00438b70 f i frmOAM.obj
 0001:00037ba0       ??$_Unchecked@V?$_Vector_val@U?$_Simple_types@K@std@@@std@@@std@@YAPBKV?$_Vector_const_iterator@V?$_Vector_val@U?$_Simple_types@K@std@@@std@@@0@@Z 00438ba0 f i frmOAM.obj
 0001:00037c30       ??$_Uninitialized_copy@V?$_Vector_const_iterator@V?$_Vector_val@U?$_Simple_types@K@std@@@std@@@std@@PAKV?$allocator@K@2@@std@@YAPAKV?$_Vector_const_iterator@V?$_Vector_val@U?$_Simple_types@K@std@@@std@@@0@0PAKAAU?$_Wrap_alloc@V?$allocator@K@std@@@0@@Z 00438c30 f i frmOAM.obj
 0001:00037d50       ??$_Uninitialized_copy_al_unchecked1@$$CBKKV?$allocator@K@std@@@std@@YAPAKPBK0PAKAAU?$_Wrap_alloc@V?$allocator@K@std@@@0@U_Really_trivial_ptr_iterator_tag@0@U?$integral_constant@_N$00@0@@Z 00438d50 f i frmOAM.obj
 0001:00037da0       ??$_Uninitialized_copy_al_unchecked@PBKPAKV?$allocator@K@std@@@std@@YAPAKPBK0PAKAAU?$_Wrap_alloc@V?$allocator@K@std@@@0@@Z 00438da0 f i frmOAM.obj
 0001:00037e10       ??$forward@U?$_Wrap_alloc@V?$allocator@K@std@@@std@@@std@@YA$$QAU?$_Wrap_alloc@V?$allocator@K@std@@@0@AAU10@@Z 00438e10 f i frmOAM.obj
 0001:00037e40       ??$forward@V?$allocator@K@std@@@std@@YA$$QAV?$allocator@K@0@AAV10@@Z 00438e40 f i frmOAM.obj
 0001:00037e70       ??$move@AAU?$_Wrap_alloc@V?$allocator@K@std@@@std@@@std@@YA$$QAU?$_Wrap_alloc@V?$allocator@K@std@@@0@AAU10@@Z 00438e70 f i frmOAM.obj
 0001:00037ea0       ??0?$_Iterator012@Urandom_access_iterator_tag@std@@KHPBKABKU_Iterator_base12@2@@std@@QAE@ABU01@@Z 00438ea0 f i frmOAM.obj
 0001:00037ef0       ??0?$_Vector_const_iterator@V?$_Vector_val@U?$_Simple_types@K@std@@@std@@@std@@QAE@ABV01@@Z 00438ef0 f i frmOAM.obj
 0001:00037f50       ??0?$_Wrap_alloc@V?$allocator@K@std@@@std@@QAE@$$QAU01@@Z 00438f50 f i frmOAM.obj
 0001:00037fb0       ??0?$allocator@K@std@@QAE@ABV01@@Z 00438fb0 f i frmOAM.obj
 0001:00037fe0       ??0?$vector@KV?$allocator@K@std@@@std@@QAE@ABV01@@Z 00438fe0 f i frmOAM.obj
 0001:00038130       ??A?$vector@KV?$allocator@K@std@@@std@@QAEAAKI@Z 00439130 f i frmOAM.obj
 0001:00038210       ?AnimationProc@@YGJPAUHWND__@@IIJ@Z 00439210 f   frmOAM.obj
 0001:00038490       ?GetCurrentFrameTable@@YAKXZ 00439490 f   frmOAM.obj
 0001:00038580       ?LoadPartsControl@@YAXXZ   00439580 f   frmOAM.obj
 0001:00038670       ?OAMPalProc@@YGJPAUHWND__@@IIJ@Z 00439670 f   frmOAM.obj
 0001:00038a10       ?OAMPartProc@@YGJPAUHWND__@@IIJ@Z 00439a10 f   frmOAM.obj
 0001:00038af0       ?OAMProc@@YGHPAUHWND__@@IIJ@Z 00439af0 f   frmOAM.obj
 0001:00039a40       ?OAMSpriteProc@@YGJPAUHWND__@@IIJ@Z 0043aa40 f   frmOAM.obj
 0001:00039df0       ?OAMTileProc@@YGJPAUHWND__@@IIJ@Z 0043adf0 f   frmOAM.obj
 0001:0003a050       ?ReloadFramesControl@@YAXXZ 0043b050 f   frmOAM.obj
 0001:0003a160       ?SetCurrentFrameTable@@YAKK@Z 0043b160 f   frmOAM.obj
 0001:0003a230       ?SetSizeShapeRect@@YAXPAUtagRECT@@@Z 0043b230 f   frmOAM.obj
 0001:0003a380       ?SpecialKeyDownX@@YGJPAUHWND__@@IIJ@Z 0043b380 f   frmOAM.obj
 0001:0003a400       ?SpecialKeyDownY@@YGJPAUHWND__@@IIJ@Z 0043b400 f   frmOAM.obj
 0001:0003a480       ?UpdateStaticSprite@@YAXXZ 0043b480 f   frmOAM.obj
 0001:0003a600       ?_Buy@?$vector@KV?$allocator@K@std@@@std@@IAE_NI@Z 0043b600 f i frmOAM.obj
 0001:0003a6e0       ?_Get_data@?$_Vector_alloc@U?$_Vec_base_types@KV?$allocator@K@std@@@std@@@std@@QBEABV?$_Vector_val@U?$_Simple_types@K@std@@@2@XZ 0043b6e0 f i frmOAM.obj
 0001:0003a720       ?_Get_first@?$_Compressed_pair@U?$_Wrap_alloc@V?$allocator@K@std@@@std@@V?$_Vector_val@U?$_Simple_types@K@std@@@2@$00@std@@QBEABU?$_Wrap_alloc@V?$allocator@K@std@@@2@XZ 0043b720 f i frmOAM.obj
 0001:0003a750       ?_Get_second@?$_Compressed_pair@U?$_Wrap_alloc@V?$allocator@K@std@@@std@@V?$_Vector_val@U?$_Simple_types@K@std@@@2@$00@std@@QBEABV?$_Vector_val@U?$_Simple_types@K@std@@@2@XZ 0043b750 f i frmOAM.obj
 0001:0003a780       ?_Getal@?$_Vector_alloc@U?$_Vec_base_types@KV?$allocator@K@std@@@std@@@std@@QBEABU?$_Wrap_alloc@V?$allocator@K@std@@@2@XZ 0043b780 f i frmOAM.obj
 0001:0003a7c0       ?_Myfirst@?$_Vector_alloc@U?$_Vec_base_types@KV?$allocator@K@std@@@std@@@std@@QBEABQAKXZ 0043b7c0 f i frmOAM.obj
 0001:0003a810       ?_Mylast@?$_Vector_alloc@U?$_Vec_base_types@KV?$allocator@K@std@@@std@@@std@@QBEABQAKXZ 0043b810 f i frmOAM.obj
 0001:0003a860       ?_Unchecked@?$_Vector_const_iterator@V?$_Vector_val@U?$_Simple_types@K@std@@@std@@@std@@QBEPBKXZ 0043b860 f i frmOAM.obj
 0001:0003a890       ?_Xlen@?$vector@KV?$allocator@K@std@@@std@@IBEXXZ 0043b890 f i frmOAM.obj
 0001:0003a8e0       ?allocate@?$_Wrap_alloc@V?$allocator@K@std@@@std@@QAEPAKI@Z 0043b8e0 f i frmOAM.obj
 0001:0003a930       ?allocate@?$allocator@K@std@@QAEPAKI@Z 0043b930 f i frmOAM.obj
 0001:0003a980       ?begin@?$vector@KV?$allocator@K@std@@@std@@QBE?AV?$_Vector_const_iterator@V?$_Vector_val@U?$_Simple_types@K@std@@@std@@@2@XZ 0043b980 f i frmOAM.obj
 0001:0003aa10       ?end@?$vector@KV?$allocator@K@std@@@std@@QBE?AV?$_Vector_const_iterator@V?$_Vector_val@U?$_Simple_types@K@std@@@std@@@2@XZ 0043ba10 f i frmOAM.obj
 0001:0003aaa0       ?max_size@?$_Wrap_alloc@V?$allocator@K@std@@@std@@QBEIU_Nil@2@@Z 0043baa0 f i frmOAM.obj
 0001:0003aaf0       ?max_size@?$allocator@K@std@@QBEIXZ 0043baf0 f i frmOAM.obj
 0001:0003ab20       ?max_size@?$allocator_traits@V?$allocator@K@std@@@std@@SAIABV?$allocator@K@2@@Z 0043bb20 f i frmOAM.obj
 0001:0003ab60       ?max_size@?$vector@KV?$allocator@K@std@@@std@@QBEIXZ 0043bb60 f i frmOAM.obj
 0001:0003abb0       ?select_on_container_copy_construction@?$_Wrap_alloc@V?$allocator@K@std@@@std@@QBE?AU12@U_Nil@2@@Z 0043bbb0 f i frmOAM.obj
 0001:0003ac10       ?select_on_container_copy_construction@?$allocator_traits@V?$allocator@K@std@@@std@@SA?AV?$allocator@K@2@ABV32@@Z 0043bc10 f i frmOAM.obj
 0001:0003ac60       ?size@?$vector@KV?$allocator@K@std@@@std@@QBEIXZ 0043bc60 f i frmOAM.obj
 0001:0003acc0       ?CreatePalHWND@cOAMEdit@@QAEHXZ 0043bcc0 f   OAMWinProcedureInit.obj
 0001:0003ae10       ?CreatePartHWND@cOAMEdit@@QAEHXZ 0043be10 f   OAMWinProcedureInit.obj
 0001:0003af00       ?CreateSpriteAnimationHWND@cOAMEdit@@QAEHXZ 0043bf00 f   OAMWinProcedureInit.obj
 0001:0003b050       ?CreateSpriteHWND@cOAMEdit@@QAEHXZ 0043c050 f   OAMWinProcedureInit.obj
 0001:0003b1a0       ?CreateTileHWND@cOAMEdit@@QAEHXZ 0043c1a0 f   OAMWinProcedureInit.obj
 0001:0003b2f0       ?ChangeColor@@YAHXZ        0043c2f0 f   PaletteEditor.obj
 0001:0003b4e0       ?DrawPal@@YAHPAUHDC__@@PAJHHHH@Z 0043c4e0 f   PaletteEditor.obj
 0001:0003b6d0       ?LPProc@@YGHPAUHWND__@@IIJ@Z 0043c6d0 f   PaletteEditor.obj
 0001:0003bce0       ?LoadColor@@YAHJ@Z         0043cce0 f   PaletteEditor.obj
 0001:0003bfc0       ??_GMemFile@@QAEPAXI@Z     0043cfc0 f i ROMFile.obj
 0001:0003c020       ??_GRD1Engine@@QAEPAXI@Z   0043d020 f i ROMFile.obj
 0001:0003c080       ?CalculateMapScrolls@@YAXHH@Z 0043d080 f   ROMFile.obj
 0001:0003c1a0       ?DrawLevel@@YAHXZ          0043d1a0 f   ROMFile.obj
 0001:0003c2b0       ?LoadROM@@YAHXZ            0043d2b0 f   ROMFile.obj
 0001:0003c300       ?OpenRom@@YAXXZ            0043d300 f   ROMFile.obj
 0001:0003cbe0       ?ClearLayer@@YAXPAVnMapBuffer@@H@Z 0043dbe0 f   RoomOptions.obj
 0001:0003cc90       ?ExtendedProc@@YGHPAUHWND__@@IIJ@Z 0043dc90 f   RoomOptions.obj
 0001:0003d590       ?LoadExtensions@@YAHXZ     0043e590 f   RoomOptions.obj
 0001:0003d710       ?ResizeLayer@@YAXPAVnMapBuffer@@HH@Z 0043e710 f   RoomOptions.obj
 0001:0003d860       ??0SamusEditorClass@@QAE@XZ 0043e860 f   SamusEditorClass.obj
 0001:0003d960       ?SetupPreview@SamusEditorClass@@QAEHPAVSamusBase@@@Z 0043e960 f   SamusEditorClass.obj
 0001:0003dc40       ?DrawGraphicTiles@@YAHXZ   0043ec40 f   SceneryEditor.obj
 0001:0003dd50       ?DrawThisScene@@YAHE@Z     0043ed50 f   SceneryEditor.obj
 0001:0003e4b0       ?InitSceneryWindow@@YAHXZ  0043f4b0 f   SceneryEditor.obj
 0001:0003e5e0       ?InitTSWindow@@YAHXZ       0043f5e0 f   SceneryEditor.obj
 0001:0003e710       ?SWProc@@YGJPAUHWND__@@IIJ@Z 0043f710 f   SceneryEditor.obj
 0001:0003ee30       ?SaveCurScene@@YAHXZ       0043fe30 f   SceneryEditor.obj
 0001:0003f150       ?SceneProc@@YGHPAUHWND__@@IIJ@Z 00440150 f   SceneryEditor.obj
 0001:0003f5c0       ?TSWProc@@YGJPAUHWND__@@IIJ@Z 004405c0 f   SceneryEditor.obj
 0001:0003fa80       ?ChangeScrollbars@@YAXPAUHWND__@@HH@Z 00440a80 f   ScrollBarHandle.obj
 0001:0003fca0       ?UpdateScroll@@YAXPAUHWND__@@IHHH@Z 00440ca0 f   ScrollBarHandle.obj
 0001:0003ffd0       ??A?$vector@UscrollData@@V?$allocator@UscrollData@@@std@@@std@@QAEAAUscrollData@@I@Z 00440fd0 f i Scrolls.obj
 0001:000400c0       ?LoadScrollControls@@YAXPAVScroller@@@Z 004410c0 f   Scrolls.obj
 0001:000401c0       ?LoadScrollInfo@@YAXHPAVScroller@@@Z 004411c0 f   Scrolls.obj
 0001:00040440       ?_Get_data@?$_Vector_alloc@U?$_Vec_base_types@UscrollData@@V?$allocator@UscrollData@@@std@@@std@@@std@@QAEAAV?$_Vector_val@U?$_Simple_types@UscrollData@@@std@@@2@XZ 00441440 f i Scrolls.obj
 0001:00040480       ?_Get_data@?$_Vector_alloc@U?$_Vec_base_types@UscrollData@@V?$allocator@UscrollData@@@std@@@std@@@std@@QBEABV?$_Vector_val@U?$_Simple_types@UscrollData@@@std@@@2@XZ 00441480 f i Scrolls.obj
 0001:000404c0       ?_Get_second@?$_Compressed_pair@U?$_Wrap_alloc@V?$allocator@UscrollData@@@std@@@std@@V?$_Vector_val@U?$_Simple_types@UscrollData@@@std@@@2@$00@std@@QAEAAV?$_Vector_val@U?$_Simple_types@UscrollData@@@std@@@2@XZ 004414c0 f i Scrolls.obj
 0001:000404f0       ?_Get_second@?$_Compressed_pair@U?$_Wrap_alloc@V?$allocator@UscrollData@@@std@@@std@@V?$_Vector_val@U?$_Simple_types@UscrollData@@@std@@@2@$00@std@@QBEABV?$_Vector_val@U?$_Simple_types@UscrollData@@@std@@@2@XZ 004414f0 f i Scrolls.obj
 0001:00040520       ?_Myfirst@?$_Vector_alloc@U?$_Vec_base_types@UscrollData@@V?$allocator@UscrollData@@@std@@@std@@@std@@QAEAAPAUscrollData@@XZ 00441520 f i Scrolls.obj
 0001:00040570       ?_Myfirst@?$_Vector_alloc@U?$_Vec_base_types@UscrollData@@V?$allocator@UscrollData@@@std@@@std@@@std@@QBEABQAUscrollData@@XZ 00441570 f i Scrolls.obj
 0001:000405c0       ?_Mylast@?$_Vector_alloc@U?$_Vec_base_types@UscrollData@@V?$allocator@UscrollData@@@std@@@std@@@std@@QBEABQAUscrollData@@XZ 004415c0 f i Scrolls.obj
 0001:00040610       ?size@?$vector@UscrollData@@V?$allocator@UscrollData@@@std@@@std@@QBEIXZ 00441610 f i Scrolls.obj
 0001:00040670       ??$_Copy_memmove@PAUscrollData@@PAU1@@std@@YAPAUscrollData@@PAU1@00@Z 00441670 f i frmScrolls.obj
 0001:000406f0       ??$_Destroy_range1@V?$allocator@UscrollData@@@std@@PAUscrollData@@@std@@YAXPAUscrollData@@0AAU?$_Wrap_alloc@V?$allocator@UscrollData@@@std@@@0@U?$integral_constant@_N$00@0@@Z 004416f0 f i frmScrolls.obj
 0001:00040720       ??$_Destroy_range@V?$allocator@UscrollData@@@std@@PAUscrollData@@@std@@YAXPAUscrollData@@0AAU?$_Wrap_alloc@V?$allocator@UscrollData@@@std@@@0@@Z 00441720 f i frmScrolls.obj
 0001:00040770       ??$_Move_unchecked1@PAUscrollData@@PAU1@@std@@YAPAUscrollData@@PAU1@00U_Trivially_copyable_ptr_iterator_tag@0@@Z 00441770 f i frmScrolls.obj
 0001:000407c0       ??$_Move_unchecked@PAUscrollData@@PAU1@@std@@YAPAUscrollData@@PAU1@00@Z 004417c0 f i frmScrolls.obj
 0001:00040830       ??$_Ptr_move_cat@UscrollData@@U1@@std@@YA?AU_Really_trivial_ptr_iterator_tag@0@ABQAUscrollData@@0@Z 00441830 f i frmScrolls.obj
 0001:00040860       ??$_Rechecked@PAUscrollData@@PAU1@@std@@YAAAPAUscrollData@@AAPAU1@PAU1@@Z 00441860 f i frmScrolls.obj
 0001:00040890       ??$_Umove@PAUscrollData@@@?$vector@UscrollData@@V?$allocator@UscrollData@@@std@@@std@@IAEPAUscrollData@@PAU2@00@Z 00441890 f i frmScrolls.obj
 0001:000408f0       ??$_Unchecked@PAUscrollData@@@std@@YAPAUscrollData@@PAU1@@Z 004418f0 f i frmScrolls.obj
 0001:00040920       ??$_Unfancy@UscrollData@@@std@@YAPAUscrollData@@PAU1@@Z 00441920 f i frmScrolls.obj
 0001:00040950       ??$_Uninitialized_move@PAUscrollData@@PAU1@V?$allocator@UscrollData@@@std@@@std@@YAPAUscrollData@@PAU1@00AAU?$_Wrap_alloc@V?$allocator@UscrollData@@@std@@@0@@Z 00441950 f i frmScrolls.obj
 0001:000409d0       ??$_Uninitialized_move_al_unchecked1@UscrollData@@U1@V?$allocator@UscrollData@@@std@@@std@@YAPAUscrollData@@PAU1@00AAU?$_Wrap_alloc@V?$allocator@UscrollData@@@std@@@0@U_Really_trivial_ptr_iterator_tag@0@U?$integral_constant@_N$00@0@@Z 004419d0 f i frmScrolls.obj
 0001:00040a20       ??$_Uninitialized_move_al_unchecked@PAUscrollData@@PAU1@V?$allocator@UscrollData@@@std@@@std@@YAPAUscrollData@@PAU1@00AAU?$_Wrap_alloc@V?$allocator@UscrollData@@@std@@@0@@Z 00441a20 f i frmScrolls.obj
 0001:00040a90       ??$addressof@$$CBUscrollData@@@std@@YAPBUscrollData@@ABU1@@Z 00441a90 f i frmScrolls.obj
 0001:00040ac0       ??$construct@UscrollData@@AAU1@@?$_Wrap_alloc@V?$allocator@UscrollData@@@std@@@std@@QAEXPAUscrollData@@AAU2@@Z 00441ac0 f i frmScrolls.obj
 0001:00040b20       ??$construct@UscrollData@@AAU1@@?$allocator@UscrollData@@@std@@QAEXPAUscrollData@@AAU2@@Z 00441b20 f i frmScrolls.obj
 0001:00040bc0       ??$construct@UscrollData@@AAU1@@?$allocator_traits@V?$allocator@UscrollData@@@std@@@std@@SAXAAV?$allocator@UscrollData@@@1@PAUscrollData@@AAU3@@Z 00441bc0 f i frmScrolls.obj
 0001:00040c10       ??$construct@UscrollData@@ABU1@@?$_Wrap_alloc@V?$allocator@UscrollData@@@std@@@std@@QAEXPAUscrollData@@ABU2@@Z 00441c10 f i frmScrolls.obj
 0001:00040c70       ??$construct@UscrollData@@ABU1@@?$allocator@UscrollData@@@std@@QAEXPAUscrollData@@ABU2@@Z 00441c70 f i frmScrolls.obj
 0001:00040d10       ??$construct@UscrollData@@ABU1@@?$allocator_traits@V?$allocator@UscrollData@@@std@@@std@@SAXAAV?$allocator@UscrollData@@@1@PAUscrollData@@ABU3@@Z 00441d10 f i frmScrolls.obj
 0001:00040d60       ??$forward@AAUscrollData@@@std@@YAAAUscrollData@@AAU1@@Z 00441d60 f i frmScrolls.obj
 0001:00040d90       ??$forward@ABUscrollData@@@std@@YAABUscrollData@@ABU1@@Z 00441d90 f i frmScrolls.obj
 0001:00040dc0       ??0?$_Iterator012@Urandom_access_iterator_tag@std@@UscrollData@@HPBU3@ABU3@U_Iterator_base12@2@@std@@QAE@$$QAU01@@Z 00441dc0 f i frmScrolls.obj
 0001:00040e10       ??0?$_Iterator012@Urandom_access_iterator_tag@std@@UscrollData@@HPBU3@ABU3@U_Iterator_base12@2@@std@@QAE@ABU01@@Z 00441e10 f i frmScrolls.obj
 0001:00040e60       ??0?$_Iterator012@Urandom_access_iterator_tag@std@@UscrollData@@HPBU3@ABU3@U_Iterator_base12@2@@std@@QAE@XZ 00441e60 f i frmScrolls.obj
 0001:00040eb0       ??0?$_Vector_const_iterator@V?$_Vector_val@U?$_Simple_types@UscrollData@@@std@@@std@@@std@@QAE@$$QAV01@@Z 00441eb0 f i frmScrolls.obj
 0001:00040f10       ??0?$_Vector_const_iterator@V?$_Vector_val@U?$_Simple_types@UscrollData@@@std@@@std@@@std@@QAE@ABV01@@Z 00441f10 f i frmScrolls.obj
 0001:00040f70       ??0?$_Vector_const_iterator@V?$_Vector_val@U?$_Simple_types@UscrollData@@@std@@@std@@@std@@QAE@PAUscrollData@@PBU_Container_base12@1@@Z 00441f70 f i frmScrolls.obj
 0001:00041010       ??0?$_Vector_iterator@V?$_Vector_val@U?$_Simple_types@UscrollData@@@std@@@std@@@std@@QAE@ABV01@@Z 00442010 f i frmScrolls.obj
 0001:00041060       ??0?$_Vector_iterator@V?$_Vector_val@U?$_Simple_types@UscrollData@@@std@@@std@@@std@@QAE@PAUscrollData@@PBU_Container_base12@1@@Z 00442060 f i frmScrolls.obj
 0001:000410b0       ??1?$_Iterator012@Urandom_access_iterator_tag@std@@UscrollData@@HPBU3@ABU3@U_Iterator_base12@2@@std@@QAE@XZ 004420b0 f i frmScrolls.obj
 0001:000410f0       ??1?$_Vector_const_iterator@V?$_Vector_val@U?$_Simple_types@UscrollData@@@std@@@std@@@std@@QAE@XZ 004420f0 f i frmScrolls.obj
 0001:00041130       ??1?$_Vector_iterator@V?$_Vector_val@U?$_Simple_types@UscrollData@@@std@@@std@@@std@@QAE@XZ 00442130 f i frmScrolls.obj
 0001:00041170       ??H?$_Vector_iterator@V?$_Vector_val@U?$_Simple_types@UscrollData@@@std@@@std@@@std@@QBE?AV01@H@Z 00442170 f i frmScrolls.obj
 0001:00041260       ??Y?$_Vector_const_iterator@V?$_Vector_val@U?$_Simple_types@UscrollData@@@std@@@std@@@std@@QAEAAV01@H@Z 00442260 f i frmScrolls.obj
 0001:00041380       ??Y?$_Vector_iterator@V?$_Vector_val@U?$_Simple_types@UscrollData@@@std@@@std@@@std@@QAEAAV01@H@Z 00442380 f i frmScrolls.obj
 0001:000413d0       ?ScrollWndProc@@YGHPAUHWND__@@IIJ@Z 004423d0 f   frmScrolls.obj
 0001:000417b0       ?_Destroy@?$vector@UscrollData@@V?$allocator@UscrollData@@@std@@@std@@IAEXPAUscrollData@@0@Z 004427b0 f i frmScrolls.obj
 0001:00041810       ?_Get_first@?$_Compressed_pair@U?$_Wrap_alloc@V?$allocator@UscrollData@@@std@@@std@@V?$_Vector_val@U?$_Simple_types@UscrollData@@@std@@@2@$00@std@@QAEAAU?$_Wrap_alloc@V?$allocator@UscrollData@@@std@@@2@XZ 00442810 f i frmScrolls.obj
 0001:00041840       ?_Get_first@?$_Compressed_pair@U?$_Wrap_alloc@V?$allocator@UscrollData@@@std@@@std@@V?$_Vector_val@U?$_Simple_types@UscrollData@@@std@@@2@$00@std@@QBEABU?$_Wrap_alloc@V?$allocator@UscrollData@@@std@@@2@XZ 00442840 f i frmScrolls.obj
 0001:00041870       ?_Getal@?$_Vector_alloc@U?$_Vec_base_types@UscrollData@@V?$allocator@UscrollData@@@std@@@std@@@std@@QAEAAU?$_Wrap_alloc@V?$allocator@UscrollData@@@std@@@2@XZ 00442870 f i frmScrolls.obj
 0001:000418b0       ?_Getal@?$_Vector_alloc@U?$_Vec_base_types@UscrollData@@V?$allocator@UscrollData@@@std@@@std@@@std@@QBEABU?$_Wrap_alloc@V?$allocator@UscrollData@@@std@@@2@XZ 004428b0 f i frmScrolls.obj
 0001:000418f0       ?_Getpfirst@?$_Vector_alloc@U?$_Vec_base_types@UscrollData@@V?$allocator@UscrollData@@@std@@@std@@@std@@QBEPAPAU_Iterator_base12@2@XZ 004428f0 f i frmScrolls.obj
 0001:00041940       ?_Grow_to@?$vector@UscrollData@@V?$allocator@UscrollData@@@std@@@std@@IBEII@Z 00442940 f i frmScrolls.obj
 0001:000419d0       ?_Inside@?$vector@UscrollData@@V?$allocator@UscrollData@@@std@@@std@@IBE_NPBUscrollData@@@Z 004429d0 f i frmScrolls.obj
 0001:00041a60       ?_Make_iter@?$vector@UscrollData@@V?$allocator@UscrollData@@@std@@@std@@QBE?AV?$_Vector_iterator@V?$_Vector_val@U?$_Simple_types@UscrollData@@@std@@@std@@@2@V?$_Vector_const_iterator@V?$_Vector_val@U?$_Simple_types@UscrollData@@@std@@@std@@@2@@Z 00442a60 f i frmScrolls.obj
 0001:00041b10       ?_Myend@?$_Vector_alloc@U?$_Vec_base_types@UscrollData@@V?$allocator@UscrollData@@@std@@@std@@@std@@QAEAAPAUscrollData@@XZ 00442b10 f i frmScrolls.obj
 0001:00041b60       ?_Myend@?$_Vector_alloc@U?$_Vec_base_types@UscrollData@@V?$allocator@UscrollData@@@std@@@std@@@std@@QBEABQAUscrollData@@XZ 00442b60 f i frmScrolls.obj
 0001:00041bb0       ?_Mylast@?$_Vector_alloc@U?$_Vec_base_types@UscrollData@@V?$allocator@UscrollData@@@std@@@std@@@std@@QAEAAPAUscrollData@@XZ 00442bb0 f i frmScrolls.obj
 0001:00041c00       ?_Orphan_all@?$_Vector_alloc@U?$_Vec_base_types@UscrollData@@V?$allocator@UscrollData@@@std@@@std@@@std@@QAEXXZ 00442c00 f i frmScrolls.obj
 0001:00041c50       ?_Orphan_range@?$vector@UscrollData@@V?$allocator@UscrollData@@@std@@@std@@IBEXPAUscrollData@@0@Z 00442c50 f i frmScrolls.obj
 0001:00041d80       ?_Reallocate@?$vector@UscrollData@@V?$allocator@UscrollData@@@std@@@std@@IAEXI@Z 00442d80 f i frmScrolls.obj
 0001:00041f10       ?_Reserve@?$vector@UscrollData@@V?$allocator@UscrollData@@@std@@@std@@IAEXI@Z 00442f10 f i frmScrolls.obj
 0001:00041fa0       ?_Unused_capacity@?$vector@UscrollData@@V?$allocator@UscrollData@@@std@@@std@@QBEIXZ 00442fa0 f i frmScrolls.obj
 0001:00042000       ?_Xlen@?$vector@UscrollData@@V?$allocator@UscrollData@@@std@@@std@@IBEXXZ 00443000 f i frmScrolls.obj
 0001:00042050       ?allocate@?$_Wrap_alloc@V?$allocator@UscrollData@@@std@@@std@@QAEPAUscrollData@@I@Z 00443050 f i frmScrolls.obj
 0001:000420a0       ?allocate@?$allocator@UscrollData@@@std@@QAEPAUscrollData@@I@Z 004430a0 f i frmScrolls.obj
 0001:000420f0       ?begin@?$vector@UscrollData@@V?$allocator@UscrollData@@@std@@@std@@QAE?AV?$_Vector_iterator@V?$_Vector_val@U?$_Simple_types@UscrollData@@@std@@@std@@@2@XZ 004430f0 f i frmScrolls.obj
 0001:00042180       ?capacity@?$vector@UscrollData@@V?$allocator@UscrollData@@@std@@@std@@QBEIXZ 00443180 f i frmScrolls.obj
 0001:000421e0       ?deallocate@?$_Wrap_alloc@V?$allocator@UscrollData@@@std@@@std@@QAEXPAUscrollData@@I@Z 004431e0 f i frmScrolls.obj
 0001:00042230       ?deallocate@?$allocator@UscrollData@@@std@@QAEXPAUscrollData@@I@Z 00443230 f i frmScrolls.obj
 0001:00042280       ?erase@?$vector@UscrollData@@V?$allocator@UscrollData@@@std@@@std@@QAE?AV?$_Vector_iterator@V?$_Vector_val@U?$_Simple_types@UscrollData@@@std@@@std@@@2@V?$_Vector_const_iterator@V?$_Vector_val@U?$_Simple_types@UscrollData@@@std@@@std@@@2@@Z 00443280 f i frmScrolls.obj
 0001:00042410       ?max_size@?$_Wrap_alloc@V?$allocator@UscrollData@@@std@@@std@@QBEIU_Nil@2@@Z 00443410 f i frmScrolls.obj
 0001:00042460       ?max_size@?$allocator@UscrollData@@@std@@QBEIXZ 00443460 f i frmScrolls.obj
 0001:00042490       ?max_size@?$allocator_traits@V?$allocator@UscrollData@@@std@@@std@@SAIABV?$allocator@UscrollData@@@2@@Z 00443490 f i frmScrolls.obj
 0001:000424d0       ?max_size@?$vector@UscrollData@@V?$allocator@UscrollData@@@std@@@std@@QBEIXZ 004434d0 f i frmScrolls.obj
 0001:00042520       ?push_back@?$vector@UscrollData@@V?$allocator@UscrollData@@@std@@@std@@QAEXABUscrollData@@@Z 00443520 f i frmScrolls.obj
 0001:000426d0       ?LoadCurSprite@@YAHXZ      004436d0 f   SpriteSelector.obj
 0001:000427b0       ?SSProc@@YGHPAUHWND__@@IIJ@Z 004437b0 f   SpriteSelector.obj
 0001:00042cf0       ?SetCurSprite@@YAHXZ       00443cf0 f   SpriteSelector.obj
 0001:00042ed0       ?DrawSpritePAl@@YAHPAUHDC__@@PAJHHHH@Z 00443ed0 f   SpriteSetEditor.obj
 0001:000430d0       ?DrawSpritePAl@@YAXPAUHDC__@@PAJH@Z 004440d0 f   SpriteSetEditor.obj
 0001:00043120       ?SpriteSetEditorProc@@YGHPAUHWND__@@IIJ@Z 00444120 f   SpriteSetEditor.obj
 0001:00043940       ?cSSEPalProc@@YGJPAUHWND__@@IIJ@Z 00444940 f   SpriteSetEditor.obj
 0001:00043a70       ?cSSETileProc@@YGJPAUHWND__@@IIJ@Z 00444a70 f   SpriteSetEditor.obj
 0001:00043b80       ?StatEditorProc@@YGHPAUHWND__@@IIJ@Z 00444b80 f   StatEditor.obj
 0001:00043dd0       ?TextEditorProc@@YGHPAUHWND__@@IIJ@Z 00444dd0 f   TextEditor.obj
 0001:00044050       ?TextPicProc@@YGJPAUHWND__@@IIJ@Z 00445050 f   TextEditor.obj
 0001:00044160       ?RefreshTileset@@YA_NXZ    00445160 f   TilesetWindow.obj
 0001:00044220       ?TilesetProc@@YGJPAUHWND__@@IIJ@Z 00445220 f   TilesetWindow.obj
 0001:00044ab0       ?BlockPreviewProc@@YGJPAUHWND__@@IIJ@Z 00445ab0 f   TSAEditor.obj
 0001:00044c20       ?BlockTilesetProc@@YGJPAUHWND__@@IIJ@Z 00445c20 f   TSAEditor.obj
 0001:00044d70       ?TSAProc@@YGHPAUHWND__@@IIJ@Z 00445d70 f   TSAEditor.obj
 0001:00045210       ??0UiState@@QAE@W4WindowState@@@Z 00446210 f   UIState.obj
 0001:00045270       ??0UiState@@QAE@XZ         00446270 f   UIState.obj
 0001:000452d0       ??1UiState@@QAE@XZ         004462d0 f   UIState.obj
 0001:00045300       ?AutoRect@UiState@@SAXPAUHWND__@@PAUtagRECT@@_N@Z 00446300 f   UIState.obj
 0001:000453c0       ?GetMapWindow@UiState@@QAEPAUHWND__@@XZ 004463c0 f   UIState.obj
 0001:000453f0       ?GetTilesetWindow@UiState@@QAEPAUHWND__@@XZ 004463f0 f   UIState.obj
 0001:00045420       ?GetWindow@UiState@@QAEPAUHWND__@@XZ 00446420 f   UIState.obj
 0001:00045450       ?GetWindowState@UiState@@QAE?AW4WindowState@@XZ 00446450 f   UIState.obj
 0001:00045480       ?InitMap@UiState@@QAEHXZ   00446480 f   UIState.obj
 0001:00045620       ?InitTileset@UiState@@QAEHXZ 00446620 f   UIState.obj
 0001:000457c0       ?MakeWindow@UiState@@QAEXXZ 004467c0 f   UIState.obj
 0001:00045860       ?ResetCursor@UiState@@QAEXXZ 00446860 f   UIState.obj
 0001:000458b0       ?ResizeMap@UiState@@QAEXPAUHWND__@@@Z 004468b0 f   UIState.obj
 0001:00045df0       ?ResizeTileset@UiState@@QAEXPAUHWND__@@@Z 00446df0 f   UIState.obj
 0001:00045f80       ?SetWindow@UiState@@QAEXPAUHWND__@@@Z 00446f80 f   UIState.obj
 0001:00045fe0       ?SetWindowState@UiState@@QAE?AW4WindowState@@W42@@Z 00446fe0 f   UIState.obj
 0001:00046020       ?ShowObj@UiState@@QAEXXZ   00447020 f   UIState.obj
 0001:00046150       ?ShowObjWindow@UiState@@QAEXPAUHWND__@@HHHH@Z 00447150 f   UIState.obj
 0001:00046210       ?UpdateMapObjectWindow@UiState@@QAEXXZ 00447210 f   UIState.obj
 0001:000464d0       ?UpdateWindow@UiState@@QAEXXZ 004474d0 f   UIState.obj
 0001:00046540       ?abs@@YAJJ@Z               00447540 f i UIState.obj
 0001:00046580       ??0WindowScrollbar@@QAE@PAUHWND__@@_N@Z 00447580 f   WindowScrollbar.obj
 0001:000465e0       ?ChangeScrollbars@WindowScrollbar@@QAEXHH@Z 004475e0 f   WindowScrollbar.obj
 0001:00046710       ?GetIndex@WindowScrollbar@@QAEHXZ 00447710 f   WindowScrollbar.obj
 0001:00046740       ?GetMax@WindowScrollbar@@QAEHXZ 00447740 f   WindowScrollbar.obj
 0001:00046770       ?SetIndex@WindowScrollbar@@QAEXH@Z 00447770 f   WindowScrollbar.obj
 0001:000467b0       ?SetMax@WindowScrollbar@@QAEXH@Z 004477b0 f   WindowScrollbar.obj
 0001:000467f0       ?UpdateScroll@WindowScrollbar@@QAEXIHHH@Z 004477f0 f   WindowScrollbar.obj
 0001:00046950       ??0sChecks@@QAE@XZ         00447950 f   mRNA_UId:sChecks.obj
 0001:000469a0       ??1sChecks@@QAE@XZ         004479a0 f   mRNA_UId:sChecks.obj
 0001:00046a10       ?SetCnt@sChecks@@QAEHPAUHWND__@@@Z 00447a10 f   mRNA_UId:sChecks.obj
 0001:00046aa0       ?State@sChecks@@QAEH_N@Z   00447aa0 f   mRNA_UId:sChecks.obj
 0001:00046b00       ?cClear@sChecks@@QAEHXZ    00447b00 f   mRNA_UId:sChecks.obj
 0001:00046b40       ?value@sChecks@@QAEHE@Z    00447b40 f   mRNA_UId:sChecks.obj
 0001:00046bd0       ?value@sChecks@@QAEHXZ     00447bd0 f   mRNA_UId:sChecks.obj
 0001:00046c50       ??0sCombo@@QAE@XZ          00447c50 f   mRNA_UId:sCombo.obj
 0001:00046ca0       ??1sCombo@@QAE@XZ          00447ca0 f   mRNA_UId:sCombo.obj
 0001:00046d20       ?Additem@sCombo@@QAEHPAD@Z 00447d20 f   mRNA_UId:sCombo.obj
 0001:00046d80       ?Clear@sCombo@@QAEHXZ      00447d80 f   mRNA_UId:sCombo.obj
 0001:00046de0       ?Disable@sCombo@@QAEHXZ    00447de0 f   mRNA_UId:sCombo.obj
 0001:00046e40       ?Enable@sCombo@@QAEHXZ     00447e40 f   mRNA_UId:sCombo.obj
 0001:00046ea0       ?GetHwnd@sCombo@@QAEPAUHWND__@@XZ 00447ea0 f   mRNA_UId:sCombo.obj
 0001:00046ed0       ?GetListIndex@sCombo@@QAEJXZ 00447ed0 f   mRNA_UId:sCombo.obj
 0001:00046f50       ?GetText@sCombo@@QAE?AV?$basic_string@DU?$char_traits@D@std@@V?$allocator@D@2@@std@@H@Z 00447f50 f   mRNA_UId:sCombo.obj
 0001:00047040       ?Init@sCombo@@QAEHPAUHWND__@@@Z 00448040 f   mRNA_UId:sCombo.obj
 0001:000470d0       ?SetListIndex@sCombo@@QAEHH@Z 004480d0 f   mRNA_UId:sCombo.obj
 0001:00047140       ?cClear@sCombo@@QAEHXZ     00448140 f   mRNA_UId:sCombo.obj
 0001:00047180       ??0sMenuItem@@QAE@XZ       00448180 f   mRNA_UId:sMenuItem.obj
 0001:000471b0       ??1sMenuItem@@QAE@XZ       004481b0 f   mRNA_UId:sMenuItem.obj
 0001:000471f0       ?GetCheckState@sMenuItem@@QAE_NXZ 004481f0 f   mRNA_UId:sMenuItem.obj
 0001:00047260       ?Init@sMenuItem@@QAEHPAUHWND__@@H@Z 00448260 f   mRNA_UId:sMenuItem.obj
 0001:000472d0       ?SetCheckState@sMenuItem@@QAE_N_N@Z 004482d0 f   mRNA_UId:sMenuItem.obj
 0001:00047370       ??0sList@@QAE@XZ           00448370 f   mRNA_UId:sList.obj
 0001:000473c0       ??1sList@@QAE@XZ           004483c0 f   mRNA_UId:sList.obj
 0001:00047430       ?Additem@sList@@QAEHPAD@Z  00448430 f   mRNA_UId:sList.obj
 0001:00047490       ?Clear@sList@@QAEHXZ       00448490 f   mRNA_UId:sList.obj
 0001:000474f0       ?GetListIndex@sList@@QAEJXZ 004484f0 f   mRNA_UId:sList.obj
 0001:00047550       ?Init@sList@@QAEHPAUHWND__@@@Z 00448550 f   mRNA_UId:sList.obj
 0001:000475a0       ?SetListIndex@sList@@QAEHH@Z 004485a0 f   mRNA_UId:sList.obj
 0001:00047600       ?cClear@sList@@QAEHXZ      00448600 f   mRNA_UId:sList.obj
 0001:00047640       ?ComboProc@@YGJPAUHWND__@@IIJIK@Z 00448640 f   mRNA_UId:OwnerDrawnCombo.obj
 0001:00047770       @_RTC_CheckStackVars@8     00448770 f   RD1Engined:_stack_.obj
 0001:000477d0       __RTC_CheckEsp             004487d0 f   RD1Engined:_stack_.obj
 0001:00047810       @__security_check_cookie@4 00448810 f   RD1Engined:_secchk_.obj
 0001:00047830       ??2@YAPAXI@Z               00448830 f   RD1Engined:new_scalar.obj
 0001:00047880       ??3@YAXPAX@Z               00448880 f   RD1Engined:delete_scalar.obj
 0001:000478a0       ??3@YAXPAXI@Z              004488a0 f   RD1Engined:delete_scalar_size.obj
 0001:000478c0       ??0GBAMethods@@QAE@XZ      004488c0 f   RD1Engined:GBAMethods.obj
 0001:000478f0       ??1GBAMethods@@QAE@XZ      004488f0 f   RD1Engined:GBAMethods.obj
 0001:00047920       ?DecodePal@GBAMethods@@QAEPAXPAFPAJHD@Z 00448920 f   RD1Engined:GBAMethods.obj
 0001:00047a10       ?EncodePal@GBAMethods@@QAEPAXPAFPAJHD@Z 00448a10 f   RD1Engined:GBAMethods.obj
 0001:00047b40       ?FindFreeSpace@GBAMethods@@QAEJJE@Z 00448b40 f   RD1Engined:GBAMethods.obj
 0001:00047cb0       ?LZ77Comp@GBAMethods@@QAEKKPAEH0@Z 00448cb0 f   RD1Engined:GBAMethods.obj
 0001:00048020       ?LZ77UnComp@GBAMethods@@QAEJPAE0@Z 00449020 f   RD1Engined:GBAMethods.obj
 0001:00048200       ?Reopen@GBAMethods@@QAEXXZ 00449200 f   RD1Engined:GBAMethods.obj
 0001:00048270       ?ReturnEOF@GBAMethods@@SAHPAU_iobuf@@@Z 00449270 f   RD1Engined:GBAMethods.obj
 0001:00048310       ?ReturnFileName@GBAMethods@@QAEHPAD0H@Z 00449310 f   RD1Engined:GBAMethods.obj
 0001:00048370       ?ReturnFileName@GBAMethods@@SAHPAUHINSTANCE__@@PAUHWND__@@PAD2HE@Z 00449370 f   RD1Engined:GBAMethods.obj
 0001:00048470       ?UncompRle@GBAMethods@@QAEJGPAE0PAJ@Z 00449470 f   RD1Engined:GBAMethods.obj
 0001:00048730       ?compress@GBAMethods@@QAEJQAE0K@Z 00449730 f   RD1Engined:GBAMethods.obj
 0001:00048920       ??0BaseTitle@@QAE@PAVGBAMethods@@PAVMemFile@@PAD@Z 00449920 f   RD1Engined:BaseTitle.obj
 0001:00048980       ??1BaseTitle@@QAE@XZ       00449980 f   RD1Engined:BaseTitle.obj
 0001:000489c0       ?GetAreaNames@BaseTitle@@QAEPAV?$vector@V?$basic_string@DU?$char_traits@D@std@@V?$allocator@D@2@@std@@V?$allocator@V?$basic_string@DU?$char_traits@D@std@@V?$allocator@D@2@@std@@@2@@std@@XZ 004499c0 f   RD1Engined:BaseTitle.obj
 0001:00048a20       ?GetGFX@BaseTitle@@UAEHHPAE@Z 00449a20 f   RD1Engined:BaseTitle.obj
 0001:00048a50       ?GetPalSize@BaseTitle@@UAEHH@Z 00449a50 f   RD1Engined:BaseTitle.obj
 0001:00048a80       ?GetPoseFile@BaseTitle@@UAEPBDXZ 00449a80 f   RD1Engined:BaseTitle.obj
 0001:00048ab0       ?GetRoomCount@BaseTitle@@QAEHH@Z 00449ab0 f   RD1Engined:BaseTitle.obj
 0001:00048b10       ?SeekSpriteGFX@BaseTitle@@QAEXKH@Z 00449b10 f   RD1Engined:BaseTitle.obj
 0001:00048be0       ?SeekSpriteTable@BaseTitle@@QAEXH@Z 00449be0 f   RD1Engined:BaseTitle.obj
 0001:00048cb0       ??0MapEditingState@@QAE@XZ 00449cb0 f   RD1Engined:MapEditingState.obj
 0001:00048d20       ??1MapEditingState@@QAE@XZ 00449d20 f   RD1Engined:MapEditingState.obj
 0001:00048d50       ?GetAction@MapEditingState@@QAE?AW4editingActions@@XZ 00449d50 f   RD1Engined:MapEditingState.obj
 0001:00048d80       ?GetObjId@MapEditingState@@QAEHXZ 00449d80 f   RD1Engined:MapEditingState.obj
 0001:00048db0       ?GetState@MapEditingState@@QAE?AW4editingStates@@XZ 00449db0 f   RD1Engined:MapEditingState.obj
 0001:00048de0       ?SetAction@MapEditingState@@QAE_NW4editingActions@@@Z 00449de0 f   RD1Engined:MapEditingState.obj
 0001:00048e50       ?SetObjId@MapEditingState@@QAE_NH@Z 00449e50 f   RD1Engined:MapEditingState.obj
 0001:00048ed0       ?SetState@MapEditingState@@QAE_NW4editingStates@@@Z 00449ed0 f   RD1Engined:MapEditingState.obj
 0001:00048f40       ??0RoomClass@@QAE@HPAVImage@@PAUSpritesetData@@PAVGBAMethods@@PAV?$map@HV?$vector@KV?$allocator@K@std@@@std@@U?$less@H@2@V?$allocator@U?$pair@$$CBHV?$vector@KV?$allocator@K@std@@@std@@@std@@@2@@std@@PAVFrameManager@@@Z 00449f40 f   RD1Engined:RoomClass.obj
 0001:00049130       ??0RoomClass@@QAE@HPAVImage@@PAUSpritesetData@@PAVGBAMethods@@PAV?$map@HV?$vector@KV?$allocator@K@std@@@std@@U?$less@H@2@V?$allocator@U?$pair@$$CBHV?$vector@KV?$allocator@K@std@@@std@@@std@@@2@@std@@PAVFrameManager@@HHPAURHeader@@@Z 0044a130 f   RD1Engined:RoomClass.obj
 0001:00049340       ??1RoomClass@@QAE@XZ       0044a340 f   RD1Engined:RoomClass.obj
 0001:00049440       ??_GMapManager@@QAEPAXI@Z  0044a440 f i RD1Engined:RoomClass.obj
 0001:000494a0       ??_GSpriteObjectManager@@QAEPAXI@Z 0044a4a0 f i RD1Engined:RoomClass.obj
 0001:00049500       ??_GcEntityManager@@QAEPAXI@Z 0044a500 f i RD1Engined:RoomClass.obj
 0001:00049560       ?GetLayerData@RoomClass@@QAEHEEK@Z 0044a560 f   RD1Engined:RoomClass.obj
 0001:00049bf0       ?Load@RoomClass@@QAEXPAVImage@@HHPAURHeader@@@Z 0044abf0 f   RD1Engined:RoomClass.obj
 0001:00049c50       ?LoadData@RoomClass@@QAEHXZ 0044ac50 f   RD1Engined:RoomClass.obj
 0001:00049d80       ?LoadHeader@RoomClass@@QAEHJ@Z 0044ad80 f   RD1Engined:RoomClass.obj
 0001:0004a0d0       ?LoadUpSprites@RoomClass@@QAEXHPAVTileBuffer@@@Z 0044b0d0 f   RD1Engined:RoomClass.obj
 0001:0004a3e0       ?SaveHeader@RoomClass@@QAEXK@Z 0044b3e0 f   RD1Engined:RoomClass.obj
 0001:0004a720       ?Setup@RoomClass@@QAEXPAVImage@@HH@Z 0044b720 f   RD1Engined:RoomClass.obj
 0001:0004a7f0       ?__autoclassinit2@Image@@QAEXI@Z 0044b7f0 f i RD1Engined:RoomClass.obj
 0001:0004a840       ?__autoclassinit2@MapManager@@QAEXI@Z 0044b840 f i RD1Engined:RoomClass.obj
 0001:0004a890       ?__autoclassinit2@SpriteObjectManager@@QAEXI@Z 0044b890 f i RD1Engined:RoomClass.obj
 0001:0004a8e0       ?__autoclassinit2@cEntityManager@@QAEXI@Z 0044b8e0 f i RD1Engined:RoomClass.obj
 0001:0004a930       ??$?0$$V@?$_Compressed_pair@U?$_Wrap_alloc@V?$allocator@UscrollData@@@std@@@std@@V?$_Vector_val@U?$_Simple_types@UscrollData@@@std@@@2@$00@std@@QAE@U_Zero_then_variadic_args_t@1@@Z 0044b930 f i RD1Engined:clsRoomScrolls.obj
 0001:0004a980       ??$?0AAU?$_Wrap_alloc@V?$allocator@UscrollData@@@std@@@std@@@?$_Wrap_alloc@V?$allocator@U_Container_proxy@std@@@std@@@std@@QAE@AAU?$_Wrap_alloc@V?$allocator@UscrollData@@@std@@@1@@Z 0044b980 f i RD1Engined:clsRoomScrolls.obj
 0001:0004a9e0       ??$?0UscrollData@@@?$allocator@U_Container_proxy@std@@@std@@QAE@ABV?$allocator@UscrollData@@@1@@Z 0044b9e0 f i RD1Engined:clsRoomScrolls.obj
 0001:0004aa10       ??$forward@AAU?$_Wrap_alloc@V?$allocator@UscrollData@@@std@@@std@@@std@@YAAAU?$_Wrap_alloc@V?$allocator@UscrollData@@@std@@@0@AAU10@@Z 0044ba10 f i RD1Engined:clsRoomScrolls.obj
 0001:0004aa40       ??0?$_Vector_alloc@U?$_Vec_base_types@UscrollData@@V?$allocator@UscrollData@@@std@@@std@@@std@@QAE@XZ 0044ba40 f i RD1Engined:clsRoomScrolls.obj
 0001:0004aad0       ??0?$_Vector_val@U?$_Simple_types@UscrollData@@@std@@@std@@QAE@XZ 0044bad0 f i RD1Engined:clsRoomScrolls.obj
 0001:0004ab30       ??0?$_Wrap_alloc@V?$allocator@UscrollData@@@std@@@std@@QAE@XZ 0044bb30 f i RD1Engined:clsRoomScrolls.obj
 0001:0004ab80       ??0?$allocator@UscrollData@@@std@@QAE@XZ 0044bb80 f i RD1Engined:clsRoomScrolls.obj
 0001:0004abb0       ??0?$vector@UscrollData@@V?$allocator@UscrollData@@@std@@@std@@QAE@XZ 0044bbb0 f i RD1Engined:clsRoomScrolls.obj
 0001:0004ac20       ??0Scroller@@QAE@XZ        0044bc20 f i RD1Engined:clsRoomScrolls.obj
 0001:0004ac70       ??0clsRoomScrolls@@QAE@XZ  0044bc70 f   RD1Engined:clsRoomScrolls.obj
 0001:0004acf0       ??1?$_Compressed_pair@U?$_Wrap_alloc@V?$allocator@UscrollData@@@std@@@std@@V?$_Vector_val@U?$_Simple_types@UscrollData@@@std@@@2@$00@std@@QAE@XZ 0044bcf0 f i RD1Engined:clsRoomScrolls.obj
 0001:0004ad30       ??1?$_Vector_alloc@U?$_Vec_base_types@UscrollData@@V?$allocator@UscrollData@@@std@@@std@@@std@@QAE@XZ 0044bd30 f i RD1Engined:clsRoomScrolls.obj
 0001:0004adb0       ??1?$_Vector_val@U?$_Simple_types@UscrollData@@@std@@@std@@QAE@XZ 0044bdb0 f i RD1Engined:clsRoomScrolls.obj
 0001:0004adf0       ??1?$vector@UscrollData@@V?$allocator@UscrollData@@@std@@@std@@QAE@XZ 0044bdf0 f i RD1Engined:clsRoomScrolls.obj
 0001:0004ae70       ??1Scroller@@QAE@XZ        0044be70 f i RD1Engined:clsRoomScrolls.obj
 0001:0004aec0       ??1clsRoomScrolls@@QAE@XZ  0044bec0 f   RD1Engined:clsRoomScrolls.obj
 0001:0004af00       ?Findmeascroll@clsRoomScrolls@@QAEHHHH@Z 0044bf00 f   RD1Engined:clsRoomScrolls.obj
 0001:0004b070       ?GetScroll@clsRoomScrolls@@QAEHXZ 0044c070 f   RD1Engined:clsRoomScrolls.obj
 0001:0004b260       ?GetScrollArray@clsRoomScrolls@@QAEXPAU_iobuf@@@Z 0044c260 f   RD1Engined:clsRoomScrolls.obj
 0001:0004b310       ?GetScrollInfo@clsRoomScrolls@@QAEPAVScroller@@XZ 0044c310 f   RD1Engined:clsRoomScrolls.obj
 0001:0004b340       ?SaveScroll@clsRoomScrolls@@QAEHPAVGBAMethods@@@Z 0044c340 f   RD1Engined:clsRoomScrolls.obj
 0001:0004b5c0       ?_Alloc_proxy@?$_Vector_alloc@U?$_Vec_base_types@UscrollData@@V?$allocator@UscrollData@@@std@@@std@@@std@@QAEXXZ 0044c5c0 f i RD1Engined:clsRoomScrolls.obj
 0001:0004b6b0       ?_Free_proxy@?$_Vector_alloc@U?$_Vec_base_types@UscrollData@@V?$allocator@UscrollData@@@std@@@std@@@std@@QAEXXZ 0044c6b0 f i RD1Engined:clsRoomScrolls.obj
 0001:0004b790       ?_Myproxy@?$_Vector_alloc@U?$_Vec_base_types@UscrollData@@V?$allocator@UscrollData@@@std@@@std@@@std@@QAEAAPAU_Container_proxy@2@XZ 0044c790 f i RD1Engined:clsRoomScrolls.obj
 0001:0004b7d0       ?_Tidy@?$vector@UscrollData@@V?$allocator@UscrollData@@@std@@@std@@IAEXXZ 0044c7d0 f i RD1Engined:clsRoomScrolls.obj
 0001:0004b8a0       ?clear@?$vector@UscrollData@@V?$allocator@UscrollData@@@std@@@std@@QAEXXZ 0044c8a0 f i RD1Engined:clsRoomScrolls.obj
 0001:0004b940       ?initScroll@clsRoomScrolls@@QAEHHH@Z 0044c940 f   RD1Engined:clsRoomScrolls.obj
 0001:0004bc50       ??$?0$$V@?$_Compressed_pair@U?$_Wrap_alloc@V?$allocator@URHeader@@@std@@@std@@V?$_Vector_val@U?$_Simple_types@URHeader@@@std@@@2@$00@std@@QAE@U_Zero_then_variadic_args_t@1@@Z 0044cc50 f i RD1Engined:GameArea.obj
 0001:0004bca0       ??$?0AAU?$_Wrap_alloc@V?$allocator@URHeader@@@std@@@std@@@?$_Wrap_alloc@V?$allocator@U_Container_proxy@std@@@std@@@std@@QAE@AAU?$_Wrap_alloc@V?$allocator@URHeader@@@std@@@1@@Z 0044cca0 f i RD1Engined:GameArea.obj
 0001:0004bd00       ??$?0URHeader@@@?$allocator@U_Container_proxy@std@@@std@@QAE@ABV?$allocator@URHeader@@@1@@Z 0044cd00 f i RD1Engined:GameArea.obj
 0001:0004bd30       ??$_Copy_memmove@PAURHeader@@PAU1@@std@@YAPAURHeader@@PAU1@00@Z 0044cd30 f i RD1Engined:GameArea.obj
 0001:0004bdb0       ??$_Destroy_range1@V?$allocator@URHeader@@@std@@PAURHeader@@@std@@YAXPAURHeader@@0AAU?$_Wrap_alloc@V?$allocator@URHeader@@@std@@@0@U?$integral_constant@_N$00@0@@Z 0044cdb0 f i RD1Engined:GameArea.obj
 0001:0004bde0       ??$_Destroy_range@V?$allocator@URHeader@@@std@@PAURHeader@@@std@@YAXPAURHeader@@0AAU?$_Wrap_alloc@V?$allocator@URHeader@@@std@@@0@@Z 0044cde0 f i RD1Engined:GameArea.obj
 0001:0004be30       ??$_Ptr_move_cat@URHeader@@U1@@std@@YA?AU_Really_trivial_ptr_iterator_tag@0@ABQAURHeader@@0@Z 0044ce30 f i RD1Engined:GameArea.obj
 0001:0004be60       ??$_Rechecked@PAURHeader@@PAU1@@std@@YAAAPAURHeader@@AAPAU1@PAU1@@Z 0044ce60 f i RD1Engined:GameArea.obj
 0001:0004be90       ??$_Umove@PAURHeader@@@?$vector@URHeader@@V?$allocator@URHeader@@@std@@@std@@IAEPAURHeader@@PAU2@00@Z 0044ce90 f i RD1Engined:GameArea.obj
 0001:0004bef0       ??$_Unchecked@PAURHeader@@@std@@YAPAURHeader@@PAU1@@Z 0044cef0 f i RD1Engined:GameArea.obj
 0001:0004bf20       ??$_Unfancy@URHeader@@@std@@YAPAURHeader@@PAU1@@Z 0044cf20 f i RD1Engined:GameArea.obj
 0001:0004bf50       ??$_Uninitialized_move@PAURHeader@@PAU1@V?$allocator@URHeader@@@std@@@std@@YAPAURHeader@@PAU1@00AAU?$_Wrap_alloc@V?$allocator@URHeader@@@std@@@0@@Z 0044cf50 f i RD1Engined:GameArea.obj
 0001:0004bfd0       ??$_Uninitialized_move_al_unchecked1@URHeader@@U1@V?$allocator@URHeader@@@std@@@std@@YAPAURHeader@@PAU1@00AAU?$_Wrap_alloc@V?$allocator@URHeader@@@std@@@0@U_Really_trivial_ptr_iterator_tag@0@U?$integral_constant@_N$00@0@@Z 0044cfd0 f i RD1Engined:GameArea.obj
 0001:0004c020       ??$_Uninitialized_move_al_unchecked@PAURHeader@@PAU1@V?$allocator@URHeader@@@std@@@std@@YAPAURHeader@@PAU1@00AAU?$_Wrap_alloc@V?$allocator@URHeader@@@std@@@0@@Z 0044d020 f i RD1Engined:GameArea.obj
 0001:0004c090       ??$addressof@$$CBURHeader@@@std@@YAPBURHeader@@ABU1@@Z 0044d090 f i RD1Engined:GameArea.obj
 0001:0004c0c0       ??$construct@URHeader@@AAU1@@?$_Wrap_alloc@V?$allocator@URHeader@@@std@@@std@@QAEXPAURHeader@@AAU2@@Z 0044d0c0 f i RD1Engined:GameArea.obj
 0001:0004c120       ??$construct@URHeader@@AAU1@@?$allocator@URHeader@@@std@@QAEXPAURHeader@@AAU2@@Z 0044d120 f i RD1Engined:GameArea.obj
 0001:0004c1b0       ??$construct@URHeader@@AAU1@@?$allocator_traits@V?$allocator@URHeader@@@std@@@std@@SAXAAV?$allocator@URHeader@@@1@PAURHeader@@AAU3@@Z 0044d1b0 f i RD1Engined:GameArea.obj
 0001:0004c200       ??$construct@URHeader@@ABU1@@?$_Wrap_alloc@V?$allocator@URHeader@@@std@@@std@@QAEXPAURHeader@@ABU2@@Z 0044d200 f i RD1Engined:GameArea.obj
 0001:0004c260       ??$construct@URHeader@@ABU1@@?$allocator@URHeader@@@std@@QAEXPAURHeader@@ABU2@@Z 0044d260 f i RD1Engined:GameArea.obj
 0001:0004c2f0       ??$construct@URHeader@@ABU1@@?$allocator_traits@V?$allocator@URHeader@@@std@@@std@@SAXAAV?$allocator@URHeader@@@1@PAURHeader@@ABU3@@Z 0044d2f0 f i RD1Engined:GameArea.obj
 0001:0004c340       ??$forward@AAU?$_Wrap_alloc@V?$allocator@URHeader@@@std@@@std@@@std@@YAAAU?$_Wrap_alloc@V?$allocator@URHeader@@@std@@@0@AAU10@@Z 0044d340 f i RD1Engined:GameArea.obj
 0001:0004c370       ??$forward@AAURHeader@@@std@@YAAAURHeader@@AAU1@@Z 0044d370 f i RD1Engined:GameArea.obj
 0001:0004c3a0       ??$forward@ABURHeader@@@std@@YAABURHeader@@ABU1@@Z 0044d3a0 f i RD1Engined:GameArea.obj
 0001:0004c3d0       ??0?$_Vector_alloc@U?$_Vec_base_types@URHeader@@V?$allocator@URHeader@@@std@@@std@@@std@@QAE@XZ 0044d3d0 f i RD1Engined:GameArea.obj
 0001:0004c460       ??0?$_Vector_val@U?$_Simple_types@URHeader@@@std@@@std@@QAE@XZ 0044d460 f i RD1Engined:GameArea.obj
 0001:0004c4c0       ??0?$_Wrap_alloc@V?$allocator@URHeader@@@std@@@std@@QAE@XZ 0044d4c0 f i RD1Engined:GameArea.obj
 0001:0004c510       ??0?$allocator@URHeader@@@std@@QAE@XZ 0044d510 f i RD1Engined:GameArea.obj
 0001:0004c540       ??0?$vector@URHeader@@V?$allocator@URHeader@@@std@@@std@@QAE@XZ 0044d540 f i RD1Engined:GameArea.obj
 0001:0004c5b0       ??0GameArea@@QAE@KH@Z      0044d5b0 f   RD1Engined:GameArea.obj
 0001:0004c6d0       ??1?$_Compressed_pair@U?$_Wrap_alloc@V?$allocator@URHeader@@@std@@@std@@V?$_Vector_val@U?$_Simple_types@URHeader@@@std@@@2@$00@std@@QAE@XZ 0044d6d0 f i RD1Engined:GameArea.obj
 0001:0004c710       ??1?$_Vector_alloc@U?$_Vec_base_types@URHeader@@V?$allocator@URHeader@@@std@@@std@@@std@@QAE@XZ 0044d710 f i RD1Engined:GameArea.obj
 0001:0004c790       ??1?$_Vector_val@U?$_Simple_types@URHeader@@@std@@@std@@QAE@XZ 0044d790 f i RD1Engined:GameArea.obj
 0001:0004c7d0       ??1?$vector@URHeader@@V?$allocator@URHeader@@@std@@@std@@QAE@XZ 0044d7d0 f i RD1Engined:GameArea.obj
 0001:0004c850       ??1GameArea@@QAE@XZ        0044d850 f   RD1Engined:GameArea.obj
 0001:0004c890       ??A?$vector@URHeader@@V?$allocator@URHeader@@@std@@@std@@QAEAAURHeader@@I@Z 0044d890 f i RD1Engined:GameArea.obj
 0001:0004c970       ?GetCurrentRoom@GameArea@@QAEPAURHeader@@XZ 0044d970 f   RD1Engined:GameArea.obj
 0001:0004c9c0       ?GetRoomCount@GameArea@@QAEHXZ 0044d9c0 f   RD1Engined:GameArea.obj
 0001:0004ca00       ?SetCurrentRoom@GameArea@@QAEHH@Z 0044da00 f   RD1Engined:GameArea.obj
 0001:0004ca40       ?_Alloc_proxy@?$_Vector_alloc@U?$_Vec_base_types@URHeader@@V?$allocator@URHeader@@@std@@@std@@@std@@QAEXXZ 0044da40 f i RD1Engined:GameArea.obj
 0001:0004cb30       ?_Destroy@?$vector@URHeader@@V?$allocator@URHeader@@@std@@@std@@IAEXPAURHeader@@0@Z 0044db30 f i RD1Engined:GameArea.obj
 0001:0004cb90       ?_Free_proxy@?$_Vector_alloc@U?$_Vec_base_types@URHeader@@V?$allocator@URHeader@@@std@@@std@@@std@@QAEXXZ 0044db90 f i RD1Engined:GameArea.obj
 0001:0004cc70       ?_Get_data@?$_Vector_alloc@U?$_Vec_base_types@URHeader@@V?$allocator@URHeader@@@std@@@std@@@std@@QAEAAV?$_Vector_val@U?$_Simple_types@URHeader@@@std@@@2@XZ 0044dc70 f i RD1Engined:GameArea.obj
 0001:0004ccb0       ?_Get_data@?$_Vector_alloc@U?$_Vec_base_types@URHeader@@V?$allocator@URHeader@@@std@@@std@@@std@@QBEABV?$_Vector_val@U?$_Simple_types@URHeader@@@std@@@2@XZ 0044dcb0 f i RD1Engined:GameArea.obj
 0001:0004ccf0       ?_Get_first@?$_Compressed_pair@U?$_Wrap_alloc@V?$allocator@URHeader@@@std@@@std@@V?$_Vector_val@U?$_Simple_types@URHeader@@@std@@@2@$00@std@@QAEAAU?$_Wrap_alloc@V?$allocator@URHeader@@@std@@@2@XZ 0044dcf0 f i RD1Engined:GameArea.obj
 0001:0004cd20       ?_Get_first@?$_Compressed_pair@U?$_Wrap_alloc@V?$allocator@URHeader@@@std@@@std@@V?$_Vector_val@U?$_Simple_types@URHeader@@@std@@@2@$00@std@@QBEABU?$_Wrap_alloc@V?$allocator@URHeader@@@std@@@2@XZ 0044dd20 f i RD1Engined:GameArea.obj
 0001:0004cd50       ?_Get_second@?$_Compressed_pair@U?$_Wrap_alloc@V?$allocator@URHeader@@@std@@@std@@V?$_Vector_val@U?$_Simple_types@URHeader@@@std@@@2@$00@std@@QAEAAV?$_Vector_val@U?$_Simple_types@URHeader@@@std@@@2@XZ 0044dd50 f i RD1Engined:GameArea.obj
 0001:0004cd80       ?_Get_second@?$_Compressed_pair@U?$_Wrap_alloc@V?$allocator@URHeader@@@std@@@std@@V?$_Vector_val@U?$_Simple_types@URHeader@@@std@@@2@$00@std@@QBEABV?$_Vector_val@U?$_Simple_types@URHeader@@@std@@@2@XZ 0044dd80 f i RD1Engined:GameArea.obj
 0001:0004cdb0       ?_Getal@?$_Vector_alloc@U?$_Vec_base_types@URHeader@@V?$allocator@URHeader@@@std@@@std@@@std@@QAEAAU?$_Wrap_alloc@V?$allocator@URHeader@@@std@@@2@XZ 0044ddb0 f i RD1Engined:GameArea.obj
 0001:0004cdf0       ?_Getal@?$_Vector_alloc@U?$_Vec_base_types@URHeader@@V?$allocator@URHeader@@@std@@@std@@@std@@QBEABU?$_Wrap_alloc@V?$allocator@URHeader@@@std@@@2@XZ 0044ddf0 f i RD1Engined:GameArea.obj
 0001:0004ce30       ?_Getpfirst@?$_Vector_alloc@U?$_Vec_base_types@URHeader@@V?$allocator@URHeader@@@std@@@std@@@std@@QBEPAPAU_Iterator_base12@2@XZ 0044de30 f i RD1Engined:GameArea.obj
 0001:0004ce80       ?_Grow_to@?$vector@URHeader@@V?$allocator@URHeader@@@std@@@std@@IBEII@Z 0044de80 f i RD1Engined:GameArea.obj
 0001:0004cf10       ?_Inside@?$vector@URHeader@@V?$allocator@URHeader@@@std@@@std@@IBE_NPBURHeader@@@Z 0044df10 f i RD1Engined:GameArea.obj
 0001:0004cfa0       ?_Myend@?$_Vector_alloc@U?$_Vec_base_types@URHeader@@V?$allocator@URHeader@@@std@@@std@@@std@@QAEAAPAURHeader@@XZ 0044dfa0 f i RD1Engined:GameArea.obj
 0001:0004cff0       ?_Myend@?$_Vector_alloc@U?$_Vec_base_types@URHeader@@V?$allocator@URHeader@@@std@@@std@@@std@@QBEABQAURHeader@@XZ 0044dff0 f i RD1Engined:GameArea.obj
 0001:0004d040       ?_Myfirst@?$_Vector_alloc@U?$_Vec_base_types@URHeader@@V?$allocator@URHeader@@@std@@@std@@@std@@QAEAAPAURHeader@@XZ 0044e040 f i RD1Engined:GameArea.obj
 0001:0004d090       ?_Myfirst@?$_Vector_alloc@U?$_Vec_base_types@URHeader@@V?$allocator@URHeader@@@std@@@std@@@std@@QBEABQAURHeader@@XZ 0044e090 f i RD1Engined:GameArea.obj
 0001:0004d0e0       ?_Mylast@?$_Vector_alloc@U?$_Vec_base_types@URHeader@@V?$allocator@URHeader@@@std@@@std@@@std@@QAEAAPAURHeader@@XZ 0044e0e0 f i RD1Engined:GameArea.obj
 0001:0004d130       ?_Mylast@?$_Vector_alloc@U?$_Vec_base_types@URHeader@@V?$allocator@URHeader@@@std@@@std@@@std@@QBEABQAURHeader@@XZ 0044e130 f i RD1Engined:GameArea.obj
 0001:0004d180       ?_Myproxy@?$_Vector_alloc@U?$_Vec_base_types@URHeader@@V?$allocator@URHeader@@@std@@@std@@@std@@QAEAAPAU_Container_proxy@2@XZ 0044e180 f i RD1Engined:GameArea.obj
 0001:0004d1c0       ?_Orphan_all@?$_Vector_alloc@U?$_Vec_base_types@URHeader@@V?$allocator@URHeader@@@std@@@std@@@std@@QAEXXZ 0044e1c0 f i RD1Engined:GameArea.obj
 0001:0004d210       ?_Orphan_range@?$vector@URHeader@@V?$allocator@URHeader@@@std@@@std@@IBEXPAURHeader@@0@Z 0044e210 f i RD1Engined:GameArea.obj
 0001:0004d340       ?_Reallocate@?$vector@URHeader@@V?$allocator@URHeader@@@std@@@std@@IAEXI@Z 0044e340 f i RD1Engined:GameArea.obj
 0001:0004d4d0       ?_Reserve@?$vector@URHeader@@V?$allocator@URHeader@@@std@@@std@@IAEXI@Z 0044e4d0 f i RD1Engined:GameArea.obj
 0001:0004d560       ?_Tidy@?$vector@URHeader@@V?$allocator@URHeader@@@std@@@std@@IAEXXZ 0044e560 f i RD1Engined:GameArea.obj
 0001:0004d640       ?_Unused_capacity@?$vector@URHeader@@V?$allocator@URHeader@@@std@@@std@@QBEIXZ 0044e640 f i RD1Engined:GameArea.obj
 0001:0004d6a0       ?_Xlen@?$vector@URHeader@@V?$allocator@URHeader@@@std@@@std@@IBEXXZ 0044e6a0 f i RD1Engined:GameArea.obj
 0001:0004d6f0       ?allocate@?$_Wrap_alloc@V?$allocator@URHeader@@@std@@@std@@QAEPAURHeader@@I@Z 0044e6f0 f i RD1Engined:GameArea.obj
 0001:0004d740       ?allocate@?$allocator@URHeader@@@std@@QAEPAURHeader@@I@Z 0044e740 f i RD1Engined:GameArea.obj
 0001:0004d790       ?capacity@?$vector@URHeader@@V?$allocator@URHeader@@@std@@@std@@QBEIXZ 0044e790 f i RD1Engined:GameArea.obj
 0001:0004d7f0       ?deallocate@?$_Wrap_alloc@V?$allocator@URHeader@@@std@@@std@@QAEXPAURHeader@@I@Z 0044e7f0 f i RD1Engined:GameArea.obj
 0001:0004d840       ?deallocate@?$allocator@URHeader@@@std@@QAEXPAURHeader@@I@Z 0044e840 f i RD1Engined:GameArea.obj
 0001:0004d890       ?max_size@?$_Wrap_alloc@V?$allocator@URHeader@@@std@@@std@@QBEIU_Nil@2@@Z 0044e890 f i RD1Engined:GameArea.obj
 0001:0004d8e0       ?max_size@?$allocator@URHeader@@@std@@QBEIXZ 0044e8e0 f i RD1Engined:GameArea.obj
 0001:0004d910       ?max_size@?$allocator_traits@V?$allocator@URHeader@@@std@@@std@@SAIABV?$allocator@URHeader@@@2@@Z 0044e910 f i RD1Engined:GameArea.obj
 0001:0004d950       ?max_size@?$vector@URHeader@@V?$allocator@URHeader@@@std@@@std@@QBEIXZ 0044e950 f i RD1Engined:GameArea.obj
 0001:0004d9a0       ?push_back@?$vector@URHeader@@V?$allocator@URHeader@@@std@@@std@@QAEXABURHeader@@@Z 0044e9a0 f i RD1Engined:GameArea.obj
 0001:0004db50       ?size@?$vector@URHeader@@V?$allocator@URHeader@@@std@@@std@@QBEIXZ 0044eb50 f i RD1Engined:GameArea.obj
 0001:0004dbb0       ??$?0$$V@?$_Compressed_pair@U?$_Wrap_alloc@V?$allocator@V?$basic_string@DU?$char_traits@D@std@@V?$allocator@D@2@@std@@@std@@@std@@V?$_Vector_val@U?$_Simple_types@V?$basic_string@DU?$char_traits@D@std@@V?$allocator@D@2@@std@@@std@@@2@$00@std@@QAE@U_Zero_then_variadic_args_t@1@@Z 0044ebb0 f i RD1Engined:AreasManager.obj
 0001:0004dc00       ??$?0$$V@?$_Compressed_pair@U?$_Wrap_alloc@V?$allocator@VGameArea@@@std@@@std@@V?$_Vector_val@U?$_Simple_types@VGameArea@@@std@@@2@$00@std@@QAE@U_Zero_then_variadic_args_t@1@@Z 0044ec00 f i RD1Engined:AreasManager.obj
 0001:0004dc50       ??$?0AAU?$_Wrap_alloc@V?$allocator@V?$basic_string@DU?$char_traits@D@std@@V?$allocator@D@2@@std@@@std@@@std@@@?$_Wrap_alloc@V?$allocator@U_Container_proxy@std@@@std@@@std@@QAE@AAU?$_Wrap_alloc@V?$allocator@V?$basic_string@DU?$char_traits@D@std@@V?$allocator@D@2@@std@@@std@@@1@@Z 0044ec50 f i RD1Engined:AreasManager.obj
 0001:0004dcb0       ??$?0AAU?$_Wrap_alloc@V?$allocator@VGameArea@@@std@@@std@@@?$_Wrap_alloc@V?$allocator@U_Container_proxy@std@@@std@@@std@@QAE@AAU?$_Wrap_alloc@V?$allocator@VGameArea@@@std@@@1@@Z 0044ecb0 f i RD1Engined:AreasManager.obj
 0001:0004dd10       ??$?0U?$_Wrap_alloc@V?$allocator@URHeader@@@std@@@std@@$$V@?$_Compressed_pair@U?$_Wrap_alloc@V?$allocator@URHeader@@@std@@@std@@V?$_Vector_val@U?$_Simple_types@URHeader@@@std@@@2@$00@std@@QAE@U_One_then_variadic_args_t@1@$$QAU?$_Wrap_alloc@V?$allocator@URHeader@@@std@@@1@@Z 0044ed10 f i RD1Engined:AreasManager.obj
 0001:0004dd70       ??$?0U?$_Wrap_alloc@V?$allocator@URHeader@@@std@@@std@@X@?$_Vector_alloc@U?$_Vec_base_types@URHeader@@V?$allocator@URHeader@@@std@@@std@@@std@@QAE@$$QAU?$_Wrap_alloc@V?$allocator@URHeader@@@std@@@1@@Z 0044ed70 f i RD1Engined:AreasManager.obj
 0001:0004de10       ??$?0U?$integral_constant@_N$00@std@@@_Any_tag@std@@QAE@$$QAU?$integral_constant@_N$00@1@@Z 0044ee10 f i RD1Engined:AreasManager.obj
 0001:0004de40       ??$?0V?$allocator@URHeader@@@std@@@?$_Wrap_alloc@V?$allocator@URHeader@@@std@@@std@@QAE@$$QAV?$allocator@URHeader@@@1@@Z 0044ee40 f i RD1Engined:AreasManager.obj
 0001:0004dea0       ??$?0V?$basic_string@DU?$char_traits@D@std@@V?$allocator@D@2@@std@@@?$allocator@U_Container_proxy@std@@@std@@QAE@ABV?$allocator@V?$basic_string@DU?$char_traits@D@std@@V?$allocator@D@2@@std@@@1@@Z 0044eea0 f i RD1Engined:AreasManager.obj
 0001:0004ded0       ??$?0VGameArea@@@?$allocator@U_Container_proxy@std@@@std@@QAE@ABV?$allocator@VGameArea@@@1@@Z 0044eed0 f i RD1Engined:AreasManager.obj
 0001:0004df00       ??$_Copy_memmove@PBURHeader@@PAU1@@std@@YAPAURHeader@@PBU1@0PAU1@@Z 0044ef00 f i RD1Engined:AreasManager.obj
 0001:0004df80       ??$_Destroy_range1@V?$allocator@V?$basic_string@DU?$char_traits@D@std@@V?$allocator@D@2@@std@@@std@@PAV?$basic_string@DU?$char_traits@D@std@@V?$allocator@D@2@@2@@std@@YAXPAV?$basic_string@DU?$char_traits@D@std@@V?$allocator@D@2@@0@0AAU?$_Wrap_alloc@V?$allocator@V?$basic_string@DU?$char_traits@D@std@@V?$allocator@D@2@@std@@@std@@@0@U?$integral_constant@_N$0A@@0@@Z 0044ef80 f i RD1Engined:AreasManager.obj
 0001:0004dfe0       ??$_Destroy_range1@V?$allocator@VGameArea@@@std@@PAVGameArea@@@std@@YAXPAVGameArea@@0AAU?$_Wrap_alloc@V?$allocator@VGameArea@@@std@@@0@U?$integral_constant@_N$0A@@0@@Z 0044efe0 f i RD1Engined:AreasManager.obj
 0001:0004e040       ??$_Destroy_range@V?$allocator@V?$basic_string@DU?$char_traits@D@std@@V?$allocator@D@2@@std@@@std@@PAV?$basic_string@DU?$char_traits@D@std@@V?$allocator@D@2@@2@@std@@YAXPAV?$basic_string@DU?$char_traits@D@std@@V?$allocator@D@2@@0@0AAU?$_Wrap_alloc@V?$allocator@V?$basic_string@DU?$char_traits@D@std@@V?$allocator@D@2@@std@@@std@@@0@@Z 0044f040 f i RD1Engined:AreasManager.obj
 0001:0004e090       ??$_Destroy_range@V?$allocator@VGameArea@@@std@@PAVGameArea@@@std@@YAXPAVGameArea@@0AAU?$_Wrap_alloc@V?$allocator@VGameArea@@@std@@@0@@Z 0044f090 f i RD1Engined:AreasManager.obj
 0001:0004e0e0       ??$_Ptr_copy_cat@$$CBURHeader@@U1@@std@@YA?AU_Really_trivial_ptr_iterator_tag@0@ABQBURHeader@@ABQAU2@@Z 0044f0e0 f i RD1Engined:AreasManager.obj
 0001:0004e110       ??$_Ptr_move_cat@V?$basic_string@DU?$char_traits@D@std@@V?$allocator@D@2@@std@@V12@@std@@YA?AU_General_ptr_iterator_tag@0@ABQAV?$basic_string@DU?$char_traits@D@std@@V?$allocator@D@2@@0@0@Z 0044f110 f i RD1Engined:AreasManager.obj
 0001:0004e150       ??$_Ptr_move_cat@VGameArea@@V1@@std@@YA?AU_General_ptr_iterator_tag@0@ABQAVGameArea@@0@Z 0044f150 f i RD1Engined:AreasManager.obj
 0001:0004e190       ??$_Rechecked@PAV?$basic_string@DU?$char_traits@D@std@@V?$allocator@D@2@@std@@PAV12@@std@@YAAAPAV?$basic_string@DU?$char_traits@D@std@@V?$allocator@D@2@@0@AAPAV10@PAV10@@Z 0044f190 f i RD1Engined:AreasManager.obj
 0001:0004e1c0       ??$_Rechecked@PAVGameArea@@PAV1@@std@@YAAAPAVGameArea@@AAPAV1@PAV1@@Z 0044f1c0 f i RD1Engined:AreasManager.obj
 0001:0004e1f0       ??$_Ucopy@V?$_Vector_const_iterator@V?$_Vector_val@U?$_Simple_types@URHeader@@@std@@@std@@@std@@@?$vector@URHeader@@V?$allocator@URHeader@@@std@@@std@@IAEPAURHeader@@V?$_Vector_const_iterator@V?$_Vector_val@U?$_Simple_types@URHeader@@@std@@@std@@@1@0PAU2@@Z 0044f1f0 f i RD1Engined:AreasManager.obj
 0001:0004e2f0       ??$_Umove@PAV?$basic_string@DU?$char_traits@D@std@@V?$allocator@D@2@@std@@@?$vector@V?$basic_string@DU?$char_traits@D@std@@V?$allocator@D@2@@std@@V?$allocator@V?$basic_string@DU?$char_traits@D@std@@V?$allocator@D@2@@std@@@2@@std@@IAEPAV?$basic_string@DU?$char_traits@D@std@@V?$allocator@D@2@@1@PAV21@00@Z 0044f2f0 f i RD1Engined:AreasManager.obj
 0001:0004e350       ??$_Umove@PAVGameArea@@@?$vector@VGameArea@@V?$allocator@VGameArea@@@std@@@std@@IAEPAVGameArea@@PAV2@00@Z 0044f350 f i RD1Engined:AreasManager.obj
 0001:0004e3b0       ??$_Unchecked@PAV?$basic_string@DU?$char_traits@D@std@@V?$allocator@D@2@@std@@@std@@YAPAV?$basic_string@DU?$char_traits@D@std@@V?$allocator@D@2@@0@PAV10@@Z 0044f3b0 f i RD1Engined:AreasManager.obj
 0001:0004e3e0       ??$_Unchecked@PAVGameArea@@@std@@YAPAVGameArea@@PAV1@@Z 0044f3e0 f i RD1Engined:AreasManager.obj
 0001:0004e410       ??$_Unchecked@V?$_Vector_val@U?$_Simple_types@URHeader@@@std@@@std@@@std@@YAPBURHeader@@V?$_Vector_const_iterator@V?$_Vector_val@U?$_Simple_types@URHeader@@@std@@@std@@@0@@Z 0044f410 f i RD1Engined:AreasManager.obj
 0001:0004e4a0       ??$_Unfancy@V?$basic_string@DU?$char_traits@D@std@@V?$allocator@D@2@@std@@@std@@YAPAV?$basic_string@DU?$char_traits@D@std@@V?$allocator@D@2@@0@PAV10@@Z 0044f4a0 f i RD1Engined:AreasManager.obj
 0001:0004e4d0       ??$_Unfancy@VGameArea@@@std@@YAPAVGameArea@@PAV1@@Z 0044f4d0 f i RD1Engined:AreasManager.obj
 0001:0004e500       ??$_Uninitialized_copy@V?$_Vector_const_iterator@V?$_Vector_val@U?$_Simple_types@URHeader@@@std@@@std@@@std@@PAURHeader@@V?$allocator@URHeader@@@2@@std@@YAPAURHeader@@V?$_Vector_const_iterator@V?$_Vector_val@U?$_Simple_types@URHeader@@@std@@@std@@@0@0PAU1@AAU?$_Wrap_alloc@V?$allocator@URHeader@@@std@@@0@@Z 0044f500 f i RD1Engined:AreasManager.obj
 0001:0004e620       ??$_Uninitialized_copy_al_unchecked1@$$CBURHeader@@U1@V?$allocator@URHeader@@@std@@@std@@YAPAURHeader@@PBU1@0PAU1@AAU?$_Wrap_alloc@V?$allocator@URHeader@@@std@@@0@U_Really_trivial_ptr_iterator_tag@0@U?$integral_constant@_N$00@0@@Z 0044f620 f i RD1Engined:AreasManager.obj
 0001:0004e670       ??$_Uninitialized_copy_al_unchecked@PBURHeader@@PAU1@V?$allocator@URHeader@@@std@@@std@@YAPAURHeader@@PBU1@0PAU1@AAU?$_Wrap_alloc@V?$allocator@URHeader@@@std@@@0@@Z 0044f670 f i RD1Engined:AreasManager.obj
 0001:0004e6e0       ??$_Uninitialized_move@PAV?$basic_string@DU?$char_traits@D@std@@V?$allocator@D@2@@std@@PAV12@V?$allocator@V?$basic_string@DU?$char_traits@D@std@@V?$allocator@D@2@@std@@@2@@std@@YAPAV?$basic_string@DU?$char_traits@D@std@@V?$allocator@D@2@@0@PAV10@00AAU?$_Wrap_alloc@V?$allocator@V?$basic_string@DU?$char_traits@D@std@@V?$allocator@D@2@@std@@@std@@@0@@Z 0044f6e0 f i RD1Engined:AreasManager.obj
 0001:0004e760       ??$_Uninitialized_move@PAVGameArea@@PAV1@V?$allocator@VGameArea@@@std@@@std@@YAPAVGameArea@@PAV1@00AAU?$_Wrap_alloc@V?$allocator@VGameArea@@@std@@@0@@Z 0044f760 f i RD1Engined:AreasManager.obj
 0001:0004e7e0       ??$_Uninitialized_move_al_unchecked1@PAV?$basic_string@DU?$char_traits@D@std@@V?$allocator@D@2@@std@@PAV12@V?$allocator@V?$basic_string@DU?$char_traits@D@std@@V?$allocator@D@2@@std@@@2@@std@@YAPAV?$basic_string@DU?$char_traits@D@std@@V?$allocator@D@2@@0@PAV10@00AAU?$_Wrap_alloc@V?$allocator@V?$basic_string@DU?$char_traits@D@std@@V?$allocator@D@2@@std@@@std@@@0@U_General_ptr_iterator_tag@0@U_Any_tag@0@@Z 0044f7e0 f i RD1Engined:AreasManager.obj
 0001:0004e8e0       ??$_Uninitialized_move_al_unchecked1@PAVGameArea@@PAV1@V?$allocator@VGameArea@@@std@@@std@@YAPAVGameArea@@PAV1@00AAU?$_Wrap_alloc@V?$allocator@VGameArea@@@std@@@0@U_General_ptr_iterator_tag@0@U_Any_tag@0@@Z 0044f8e0 f i RD1Engined:AreasManager.obj
 0001:0004e9e0       ??$_Uninitialized_move_al_unchecked@PAV?$basic_string@DU?$char_traits@D@std@@V?$allocator@D@2@@std@@PAV12@V?$allocator@V?$basic_string@DU?$char_traits@D@std@@V?$allocator@D@2@@std@@@2@@std@@YAPAV?$basic_string@DU?$char_traits@D@std@@V?$allocator@D@2@@0@PAV10@00AAU?$_Wrap_alloc@V?$allocator@V?$basic_string@DU?$char_traits@D@std@@V?$allocator@D@2@@std@@@std@@@0@@Z 0044f9e0 f i RD1Engined:AreasManager.obj
 0001:0004ea60       ??$_Uninitialized_move_al_unchecked@PAVGameArea@@PAV1@V?$allocator@VGameArea@@@std@@@std@@YAPAVGameArea@@PAV1@00AAU?$_Wrap_alloc@V?$allocator@VGameArea@@@std@@@0@@Z 0044fa60 f i RD1Engined:AreasManager.obj
 0001:0004eae0       ??$addressof@$$CBV?$basic_string@DU?$char_traits@D@std@@V?$allocator@D@2@@std@@@std@@YAPBV?$basic_string@DU?$char_traits@D@std@@V?$allocator@D@2@@0@ABV10@@Z 0044fae0 f i RD1Engined:AreasManager.obj
 0001:0004eb10       ??$addressof@$$CBVGameArea@@@std@@YAPBVGameArea@@ABV1@@Z 0044fb10 f i RD1Engined:AreasManager.obj
 0001:0004eb40       ??$construct@V?$basic_string@DU?$char_traits@D@std@@V?$allocator@D@2@@std@@AAV12@@?$_Wrap_alloc@V?$allocator@V?$basic_string@DU?$char_traits@D@std@@V?$allocator@D@2@@std@@@std@@@std@@QAEXPAV?$basic_string@DU?$char_traits@D@std@@V?$allocator@D@2@@1@AAV21@@Z 0044fb40 f i RD1Engined:AreasManager.obj
 0001:0004eba0       ??$construct@V?$basic_string@DU?$char_traits@D@std@@V?$allocator@D@2@@std@@AAV12@@?$allocator@V?$basic_string@DU?$char_traits@D@std@@V?$allocator@D@2@@std@@@std@@QAEXPAV?$basic_string@DU?$char_traits@D@std@@V?$allocator@D@2@@1@AAV21@@Z 0044fba0 f i RD1Engined:AreasManager.obj
 0001:0004ec70       ??$construct@V?$basic_string@DU?$char_traits@D@std@@V?$allocator@D@2@@std@@AAV12@@?$allocator_traits@V?$allocator@V?$basic_string@DU?$char_traits@D@std@@V?$allocator@D@2@@std@@@std@@@std@@SAXAAV?$allocator@V?$basic_string@DU?$char_traits@D@std@@V?$allocator@D@2@@std@@@1@PAV?$basic_string@DU?$char_traits@D@std@@V?$allocator@D@2@@1@AAV31@@Z 0044fc70 f i RD1Engined:AreasManager.obj
 0001:0004ecc0       ??$construct@V?$basic_string@DU?$char_traits@D@std@@V?$allocator@D@2@@std@@ABV12@@?$_Wrap_alloc@V?$allocator@V?$basic_string@DU?$char_traits@D@std@@V?$allocator@D@2@@std@@@std@@@std@@QAEXPAV?$basic_string@DU?$char_traits@D@std@@V?$allocator@D@2@@1@ABV21@@Z 0044fcc0 f i RD1Engined:AreasManager.obj
 0001:0004ed20       ??$construct@V?$basic_string@DU?$char_traits@D@std@@V?$allocator@D@2@@std@@ABV12@@?$allocator@V?$basic_string@DU?$char_traits@D@std@@V?$allocator@D@2@@std@@@std@@QAEXPAV?$basic_string@DU?$char_traits@D@std@@V?$allocator@D@2@@1@ABV21@@Z 0044fd20 f i RD1Engined:AreasManager.obj
 0001:0004edf0       ??$construct@V?$basic_string@DU?$char_traits@D@std@@V?$allocator@D@2@@std@@ABV12@@?$allocator_traits@V?$allocator@V?$basic_string@DU?$char_traits@D@std@@V?$allocator@D@2@@std@@@std@@@std@@SAXAAV?$allocator@V?$basic_string@DU?$char_traits@D@std@@V?$allocator@D@2@@std@@@1@PAV?$basic_string@DU?$char_traits@D@std@@V?$allocator@D@2@@1@ABV31@@Z 0044fdf0 f i RD1Engined:AreasManager.obj
 0001:0004ee40       ??$construct@V?$basic_string@DU?$char_traits@D@std@@V?$allocator@D@2@@std@@V12@@?$_Wrap_alloc@V?$allocator@V?$basic_string@DU?$char_traits@D@std@@V?$allocator@D@2@@std@@@std@@@std@@QAEXPAV?$basic_string@DU?$char_traits@D@std@@V?$allocator@D@2@@1@$$QAV21@@Z 0044fe40 f i RD1Engined:AreasManager.obj
 0001:0004eea0       ??$construct@V?$basic_string@DU?$char_traits@D@std@@V?$allocator@D@2@@std@@V12@@?$allocator@V?$basic_string@DU?$char_traits@D@std@@V?$allocator@D@2@@std@@@std@@QAEXPAV?$basic_string@DU?$char_traits@D@std@@V?$allocator@D@2@@1@$$QAV21@@Z 0044fea0 f i RD1Engined:AreasManager.obj
 0001:0004ef20       ??$construct@V?$basic_string@DU?$char_traits@D@std@@V?$allocator@D@2@@std@@V12@@?$allocator_traits@V?$allocator@V?$basic_string@DU?$char_traits@D@std@@V?$allocator@D@2@@std@@@std@@@std@@SAXAAV?$allocator@V?$basic_string@DU?$char_traits@D@std@@V?$allocator@D@2@@std@@@1@PAV?$basic_string@DU?$char_traits@D@std@@V?$allocator@D@2@@1@$$QAV31@@Z 0044ff20 f i RD1Engined:AreasManager.obj
 0001:0004ef70       ??$construct@VGameArea@@AAV1@@?$_Wrap_alloc@V?$allocator@VGameArea@@@std@@@std@@QAEXPAVGameArea@@AAV2@@Z 0044ff70 f i RD1Engined:AreasManager.obj
 0001:0004efe0       ??$construct@VGameArea@@AAV1@@?$allocator@VGameArea@@@std@@QAEXPAVGameArea@@AAV2@@Z 0044ffe0 f i RD1Engined:AreasManager.obj
 0001:0004f0b0       ??$construct@VGameArea@@AAV1@@?$allocator_traits@V?$allocator@VGameArea@@@std@@@std@@SAXAAV?$allocator@VGameArea@@@1@PAVGameArea@@AAV3@@Z 004500b0 f i RD1Engined:AreasManager.obj
 0001:0004f100       ??$construct@VGameArea@@ABV1@@?$_Wrap_alloc@V?$allocator@VGameArea@@@std@@@std@@QAEXPAVGameArea@@ABV2@@Z 00450100 f i RD1Engined:AreasManager.obj
 0001:0004f160       ??$construct@VGameArea@@ABV1@@?$allocator@VGameArea@@@std@@QAEXPAVGameArea@@ABV2@@Z 00450160 f i RD1Engined:AreasManager.obj
 0001:0004f230       ??$construct@VGameArea@@ABV1@@?$allocator_traits@V?$allocator@VGameArea@@@std@@@std@@SAXAAV?$allocator@VGameArea@@@1@PAVGameArea@@ABV3@@Z 00450230 f i RD1Engined:AreasManager.obj
 0001:0004f280       ??$construct@VGameArea@@V1@@?$_Wrap_alloc@V?$allocator@VGameArea@@@std@@@std@@QAEXPAVGameArea@@$$QAV2@@Z 00450280 f i RD1Engined:AreasManager.obj
 0001:0004f2e0       ??$construct@VGameArea@@V1@@?$allocator@VGameArea@@@std@@QAEXPAVGameArea@@$$QAV2@@Z 004502e0 f i RD1Engined:AreasManager.obj
 0001:0004f3b0       ??$construct@VGameArea@@V1@@?$allocator_traits@V?$allocator@VGameArea@@@std@@@std@@SAXAAV?$allocator@VGameArea@@@1@PAVGameArea@@$$QAV3@@Z 004503b0 f i RD1Engined:AreasManager.obj
 0001:0004f400       ??$destroy@V?$basic_string@DU?$char_traits@D@std@@V?$allocator@D@2@@std@@@?$_Wrap_alloc@V?$allocator@V?$basic_string@DU?$char_traits@D@std@@V?$allocator@D@2@@std@@@std@@@std@@QAEXPAV?$basic_string@DU?$char_traits@D@std@@V?$allocator@D@2@@1@@Z 00450400 f i RD1Engined:AreasManager.obj
 0001:0004f450       ??$destroy@V?$basic_string@DU?$char_traits@D@std@@V?$allocator@D@2@@std@@@?$allocator@V?$basic_string@DU?$char_traits@D@std@@V?$allocator@D@2@@std@@@std@@QAEXPAV?$basic_string@DU?$char_traits@D@std@@V?$allocator@D@2@@1@@Z 00450450 f i RD1Engined:AreasManager.obj
 0001:0004f4a0       ??$destroy@V?$basic_string@DU?$char_traits@D@std@@V?$allocator@D@2@@std@@@?$allocator_traits@V?$allocator@V?$basic_string@DU?$char_traits@D@std@@V?$allocator@D@2@@std@@@std@@@std@@SAXAAV?$allocator@V?$basic_string@DU?$char_traits@D@std@@V?$allocator@D@2@@std@@@1@PAV?$basic_string@DU?$char_traits@D@std@@V?$allocator@D@2@@1@@Z 004504a0 f i RD1Engined:AreasManager.obj
 0001:0004f4e0       ??$destroy@VGameArea@@@?$_Wrap_alloc@V?$allocator@VGameArea@@@std@@@std@@QAEXPAVGameArea@@@Z 004504e0 f i RD1Engined:AreasManager.obj
 0001:0004f530       ??$destroy@VGameArea@@@?$allocator@VGameArea@@@std@@QAEXPAVGameArea@@@Z 00450530 f i RD1Engined:AreasManager.obj
 0001:0004f580       ??$destroy@VGameArea@@@?$allocator_traits@V?$allocator@VGameArea@@@std@@@std@@SAXAAV?$allocator@VGameArea@@@1@PAVGameArea@@@Z 00450580 f i RD1Engined:AreasManager.obj
 0001:0004f5c0       ??$forward@AAU?$_Wrap_alloc@V?$allocator@V?$basic_string@DU?$char_traits@D@std@@V?$allocator@D@2@@std@@@std@@@std@@@std@@YAAAU?$_Wrap_alloc@V?$allocator@V?$basic_string@DU?$char_traits@D@std@@V?$allocator@D@2@@std@@@std@@@0@AAU10@@Z 004505c0 f i RD1Engined:AreasManager.obj
 0001:0004f5f0       ??$forward@AAU?$_Wrap_alloc@V?$allocator@VGameArea@@@std@@@std@@@std@@YAAAU?$_Wrap_alloc@V?$allocator@VGameArea@@@std@@@0@AAU10@@Z 004505f0 f i RD1Engined:AreasManager.obj
 0001:0004f620       ??$forward@AAV?$basic_string@DU?$char_traits@D@std@@V?$allocator@D@2@@std@@@std@@YAAAV?$basic_string@DU?$char_traits@D@std@@V?$allocator@D@2@@0@AAV10@@Z 00450620 f i RD1Engined:AreasManager.obj
 0001:0004f650       ??$forward@AAVGameArea@@@std@@YAAAVGameArea@@AAV1@@Z 00450650 f i RD1Engined:AreasManager.obj
 0001:0004f680       ??$forward@ABVGameArea@@@std@@YAABVGameArea@@ABV1@@Z 00450680 f i RD1Engined:AreasManager.obj
 0001:0004f6b0       ??$forward@U?$_Wrap_alloc@V?$allocator@URHeader@@@std@@@std@@@std@@YA$$QAU?$_Wrap_alloc@V?$allocator@URHeader@@@std@@@0@AAU10@@Z 004506b0 f i RD1Engined:AreasManager.obj
 0001:0004f6e0       ??$forward@V?$allocator@URHeader@@@std@@@std@@YA$$QAV?$allocator@URHeader@@@0@AAV10@@Z 004506e0 f i RD1Engined:AreasManager.obj
 0001:0004f710       ??$forward@VGameArea@@@std@@YA$$QAVGameArea@@AAV1@@Z 00450710 f i RD1Engined:AreasManager.obj
 0001:0004f740       ??$move@AAU?$_Wrap_alloc@V?$allocator@URHeader@@@std@@@std@@@std@@YA$$QAU?$_Wrap_alloc@V?$allocator@URHeader@@@std@@@0@AAU10@@Z 00450740 f i RD1Engined:AreasManager.obj
 0001:0004f770       ??$move@AAVGameArea@@@std@@YA$$QAVGameArea@@AAV1@@Z 00450770 f i RD1Engined:AreasManager.obj
 0001:0004f7a0       ??0?$_Iterator012@Urandom_access_iterator_tag@std@@URHeader@@HPBU3@ABU3@U_Iterator_base12@2@@std@@QAE@ABU01@@Z 004507a0 f i RD1Engined:AreasManager.obj
 0001:0004f7f0       ??0?$_Iterator012@Urandom_access_iterator_tag@std@@URHeader@@HPBU3@ABU3@U_Iterator_base12@2@@std@@QAE@XZ 004507f0 f i RD1Engined:AreasManager.obj
 0001:0004f840       ??0?$_Vector_alloc@U?$_Vec_base_types@V?$basic_string@DU?$char_traits@D@std@@V?$allocator@D@2@@std@@V?$allocator@V?$basic_string@DU?$char_traits@D@std@@V?$allocator@D@2@@std@@@2@@std@@@std@@QAE@XZ 00450840 f i RD1Engined:AreasManager.obj
 0001:0004f8d0       ??0?$_Vector_alloc@U?$_Vec_base_types@VGameArea@@V?$allocator@VGameArea@@@std@@@std@@@std@@QAE@XZ 004508d0 f i RD1Engined:AreasManager.obj
 0001:0004f960       ??0?$_Vector_const_iterator@V?$_Vector_val@U?$_Simple_types@URHeader@@@std@@@std@@@std@@QAE@ABV01@@Z 00450960 f i RD1Engined:AreasManager.obj
 0001:0004f9c0       ??0?$_Vector_const_iterator@V?$_Vector_val@U?$_Simple_types@URHeader@@@std@@@std@@@std@@QAE@PAURHeader@@PBU_Container_base12@1@@Z 004509c0 f i RD1Engined:AreasManager.obj
 0001:0004fa60       ??0?$_Vector_val@U?$_Simple_types@V?$basic_string@DU?$char_traits@D@std@@V?$allocator@D@2@@std@@@std@@@std@@QAE@XZ 00450a60 f i RD1Engined:AreasManager.obj
 0001:0004fac0       ??0?$_Vector_val@U?$_Simple_types@VGameArea@@@std@@@std@@QAE@XZ 00450ac0 f i RD1Engined:AreasManager.obj
 0001:0004fb20       ??0?$_Wrap_alloc@V?$allocator@URHeader@@@std@@@std@@QAE@$$QAU01@@Z 00450b20 f i RD1Engined:AreasManager.obj
 0001:0004fb80       ??0?$_Wrap_alloc@V?$allocator@V?$basic_string@DU?$char_traits@D@std@@V?$allocator@D@2@@std@@@std@@@std@@QAE@XZ 00450b80 f i RD1Engined:AreasManager.obj
 0001:0004fbd0       ??0?$_Wrap_alloc@V?$allocator@VGameArea@@@std@@@std@@QAE@XZ 00450bd0 f i RD1Engined:AreasManager.obj
 0001:0004fc20       ??0?$allocator@URHeader@@@std@@QAE@ABV01@@Z 00450c20 f i RD1Engined:AreasManager.obj
 0001:0004fc50       ??0?$allocator@V?$basic_string@DU?$char_traits@D@std@@V?$allocator@D@2@@std@@@std@@QAE@XZ 00450c50 f i RD1Engined:AreasManager.obj
 0001:0004fc80       ??0?$allocator@VGameArea@@@std@@QAE@XZ 00450c80 f i RD1Engined:AreasManager.obj
 0001:0004fcb0       ??0?$vector@URHeader@@V?$allocator@URHeader@@@std@@@std@@QAE@ABV01@@Z 00450cb0 f i RD1Engined:AreasManager.obj
 0001:0004fe00       ??0?$vector@V?$basic_string@DU?$char_traits@D@std@@V?$allocator@D@2@@std@@V?$allocator@V?$basic_string@DU?$char_traits@D@std@@V?$allocator@D@2@@std@@@2@@std@@QAE@XZ 00450e00 f i RD1Engined:AreasManager.obj
 0001:0004fe70       ??0?$vector@VGameArea@@V?$allocator@VGameArea@@@std@@@std@@QAE@XZ 00450e70 f i RD1Engined:AreasManager.obj
 0001:0004fee0       ??0AreasManager@@QAE@PAVMemFile@@PAV?$vector@V?$basic_string@DU?$char_traits@D@std@@V?$allocator@D@2@@std@@V?$allocator@V?$basic_string@DU?$char_traits@D@std@@V?$allocator@D@2@@std@@@2@@std@@HW4SupportedTitles@@@Z 00450ee0 f   RD1Engined:AreasManager.obj
 0001:0004ffd0       ??0GameArea@@QAE@ABV0@@Z   00450fd0 f i RD1Engined:AreasManager.obj
 0001:00050030       ??1?$_Compressed_pair@U?$_Wrap_alloc@V?$allocator@V?$basic_string@DU?$char_traits@D@std@@V?$allocator@D@2@@std@@@std@@@std@@V?$_Vector_val@U?$_Simple_types@V?$basic_string@DU?$char_traits@D@std@@V?$allocator@D@2@@std@@@std@@@2@$00@std@@QAE@XZ 00451030 f i RD1Engined:AreasManager.obj
 0001:00050070       ??1?$_Compressed_pair@U?$_Wrap_alloc@V?$allocator@VGameArea@@@std@@@std@@V?$_Vector_val@U?$_Simple_types@VGameArea@@@std@@@2@$00@std@@QAE@XZ 00451070 f i RD1Engined:AreasManager.obj
 0001:000500b0       ??1?$_Iterator012@Urandom_access_iterator_tag@std@@URHeader@@HPBU3@ABU3@U_Iterator_base12@2@@std@@QAE@XZ 004510b0 f i RD1Engined:AreasManager.obj
 0001:000500f0       ??1?$_Vector_alloc@U?$_Vec_base_types@V?$basic_string@DU?$char_traits@D@std@@V?$allocator@D@2@@std@@V?$allocator@V?$basic_string@DU?$char_traits@D@std@@V?$allocator@D@2@@std@@@2@@std@@@std@@QAE@XZ 004510f0 f i RD1Engined:AreasManager.obj
 0001:00050170       ??1?$_Vector_alloc@U?$_Vec_base_types@VGameArea@@V?$allocator@VGameArea@@@std@@@std@@@std@@QAE@XZ 00451170 f i RD1Engined:AreasManager.obj
 0001:000501f0       ??1?$_Vector_const_iterator@V?$_Vector_val@U?$_Simple_types@URHeader@@@std@@@std@@@std@@QAE@XZ 004511f0 f i RD1Engined:AreasManager.obj
 0001:00050230       ??1?$_Vector_val@U?$_Simple_types@V?$basic_string@DU?$char_traits@D@std@@V?$allocator@D@2@@std@@@std@@@std@@QAE@XZ 00451230 f i RD1Engined:AreasManager.obj
 0001:00050270       ??1?$_Vector_val@U?$_Simple_types@VGameArea@@@std@@@std@@QAE@XZ 00451270 f i RD1Engined:AreasManager.obj
 0001:000502b0       ??1?$vector@V?$basic_string@DU?$char_traits@D@std@@V?$allocator@D@2@@std@@V?$allocator@V?$basic_string@DU?$char_traits@D@std@@V?$allocator@D@2@@std@@@2@@std@@QAE@XZ 004512b0 f i RD1Engined:AreasManager.obj
 0001:00050330       ??1?$vector@VGameArea@@V?$allocator@VGameArea@@@std@@@std@@QAE@XZ 00451330 f i RD1Engined:AreasManager.obj
 0001:000503b0       ??A?$vector@VGameArea@@V?$allocator@VGameArea@@@std@@@std@@QAEAAVGameArea@@I@Z 004513b0 f i RD1Engined:AreasManager.obj
 0001:00050490       ??_G?$basic_string@DU?$char_traits@D@std@@V?$allocator@D@2@@std@@QAEPAXI@Z 00451490 f i RD1Engined:AreasManager.obj
 0001:000504f0       ??_GGameArea@@QAEPAXI@Z    004514f0 f i RD1Engined:AreasManager.obj
 0001:00050550       ?GetCurrentArea@AreasManager@@QAEPAVGameArea@@XZ 00451550 f   RD1Engined:AreasManager.obj
 0001:000505a0       ?Load@AreasManager@@QAEXK@Z 004515a0 f   RD1Engined:AreasManager.obj
 0001:000507a0       ?SetCurrentArea@AreasManager@@QAEHH@Z 004517a0 f   RD1Engined:AreasManager.obj
 0001:000507e0       ?_Alloc_proxy@?$_Vector_alloc@U?$_Vec_base_types@V?$basic_string@DU?$char_traits@D@std@@V?$allocator@D@2@@std@@V?$allocator@V?$basic_string@DU?$char_traits@D@std@@V?$allocator@D@2@@std@@@2@@std@@@std@@QAEXXZ 004517e0 f i RD1Engined:AreasManager.obj
 0001:000508d0       ?_Alloc_proxy@?$_Vector_alloc@U?$_Vec_base_types@VGameArea@@V?$allocator@VGameArea@@@std@@@std@@@std@@QAEXXZ 004518d0 f i RD1Engined:AreasManager.obj
 0001:000509c0       ?_Buy@?$vector@URHeader@@V?$allocator@URHeader@@@std@@@std@@IAE_NI@Z 004519c0 f i RD1Engined:AreasManager.obj
 0001:00050aa0       ?_Destroy@?$vector@V?$basic_string@DU?$char_traits@D@std@@V?$allocator@D@2@@std@@V?$allocator@V?$basic_string@DU?$char_traits@D@std@@V?$allocator@D@2@@std@@@2@@std@@IAEXPAV?$basic_string@DU?$char_traits@D@std@@V?$allocator@D@2@@2@0@Z 00451aa0 f i RD1Engined:AreasManager.obj
 0001:00050b00       ?_Destroy@?$vector@VGameArea@@V?$allocator@VGameArea@@@std@@@std@@IAEXPAVGameArea@@0@Z 00451b00 f i RD1Engined:AreasManager.obj
 0001:00050b60       ?_Free_proxy@?$_Vector_alloc@U?$_Vec_base_types@V?$basic_string@DU?$char_traits@D@std@@V?$allocator@D@2@@std@@V?$allocator@V?$basic_string@DU?$char_traits@D@std@@V?$allocator@D@2@@std@@@2@@std@@@std@@QAEXXZ 00451b60 f i RD1Engined:AreasManager.obj
 0001:00050c40       ?_Free_proxy@?$_Vector_alloc@U?$_Vec_base_types@VGameArea@@V?$allocator@VGameArea@@@std@@@std@@@std@@QAEXXZ 00451c40 f i RD1Engined:AreasManager.obj
 0001:00050d20       ?_Get_data@?$_Vector_alloc@U?$_Vec_base_types@VGameArea@@V?$allocator@VGameArea@@@std@@@std@@@std@@QAEAAV?$_Vector_val@U?$_Simple_types@VGameArea@@@std@@@2@XZ 00451d20 f i RD1Engined:AreasManager.obj
 0001:00050d60       ?_Get_data@?$_Vector_alloc@U?$_Vec_base_types@VGameArea@@V?$allocator@VGameArea@@@std@@@std@@@std@@QBEABV?$_Vector_val@U?$_Simple_types@VGameArea@@@std@@@2@XZ 00451d60 f i RD1Engined:AreasManager.obj
 0001:00050da0       ?_Get_first@?$_Compressed_pair@U?$_Wrap_alloc@V?$allocator@V?$basic_string@DU?$char_traits@D@std@@V?$allocator@D@2@@std@@@std@@@std@@V?$_Vector_val@U?$_Simple_types@V?$basic_string@DU?$char_traits@D@std@@V?$allocator@D@2@@std@@@std@@@2@$00@std@@QAEAAU?$_Wrap_alloc@V?$allocator@V?$basic_string@DU?$char_traits@D@std@@V?$allocator@D@2@@std@@@std@@@2@XZ 00451da0 f i RD1Engined:AreasManager.obj
 0001:00050dd0       ?_Get_first@?$_Compressed_pair@U?$_Wrap_alloc@V?$allocator@V?$basic_string@DU?$char_traits@D@std@@V?$allocator@D@2@@std@@@std@@@std@@V?$_Vector_val@U?$_Simple_types@V?$basic_string@DU?$char_traits@D@std@@V?$allocator@D@2@@std@@@std@@@2@$00@std@@QBEABU?$_Wrap_alloc@V?$allocator@V?$basic_string@DU?$char_traits@D@std@@V?$allocator@D@2@@std@@@std@@@2@XZ 00451dd0 f i RD1Engined:AreasManager.obj
 0001:00050e00       ?_Get_first@?$_Compressed_pair@U?$_Wrap_alloc@V?$allocator@VGameArea@@@std@@@std@@V?$_Vector_val@U?$_Simple_types@VGameArea@@@std@@@2@$00@std@@QAEAAU?$_Wrap_alloc@V?$allocator@VGameArea@@@std@@@2@XZ 00451e00 f i RD1Engined:AreasManager.obj
 0001:00050e30       ?_Get_first@?$_Compressed_pair@U?$_Wrap_alloc@V?$allocator@VGameArea@@@std@@@std@@V?$_Vector_val@U?$_Simple_types@VGameArea@@@std@@@2@$00@std@@QBEABU?$_Wrap_alloc@V?$allocator@VGameArea@@@std@@@2@XZ 00451e30 f i RD1Engined:AreasManager.obj
 0001:00050e60       ?_Get_second@?$_Compressed_pair@U?$_Wrap_alloc@V?$allocator@VGameArea@@@std@@@std@@V?$_Vector_val@U?$_Simple_types@VGameArea@@@std@@@2@$00@std@@QAEAAV?$_Vector_val@U?$_Simple_types@VGameArea@@@std@@@2@XZ 00451e60 f i RD1Engined:AreasManager.obj
 0001:00050e90       ?_Get_second@?$_Compressed_pair@U?$_Wrap_alloc@V?$allocator@VGameArea@@@std@@@std@@V?$_Vector_val@U?$_Simple_types@VGameArea@@@std@@@2@$00@std@@QBEABV?$_Vector_val@U?$_Simple_types@VGameArea@@@std@@@2@XZ 00451e90 f i RD1Engined:AreasManager.obj
 0001:00050ec0       ?_Getal@?$_Vector_alloc@U?$_Vec_base_types@V?$basic_string@DU?$char_traits@D@std@@V?$allocator@D@2@@std@@V?$allocator@V?$basic_string@DU?$char_traits@D@std@@V?$allocator@D@2@@std@@@2@@std@@@std@@QAEAAU?$_Wrap_alloc@V?$allocator@V?$basic_string@DU?$char_traits@D@std@@V?$allocator@D@2@@std@@@std@@@2@XZ 00451ec0 f i RD1Engined:AreasManager.obj
 0001:00050f00       ?_Getal@?$_Vector_alloc@U?$_Vec_base_types@V?$basic_string@DU?$char_traits@D@std@@V?$allocator@D@2@@std@@V?$allocator@V?$basic_string@DU?$char_traits@D@std@@V?$allocator@D@2@@std@@@2@@std@@@std@@QBEABU?$_Wrap_alloc@V?$allocator@V?$basic_string@DU?$char_traits@D@std@@V?$allocator@D@2@@std@@@std@@@2@XZ 00451f00 f i RD1Engined:AreasManager.obj
 0001:00050f40       ?_Getal@?$_Vector_alloc@U?$_Vec_base_types@VGameArea@@V?$allocator@VGameArea@@@std@@@std@@@std@@QAEAAU?$_Wrap_alloc@V?$allocator@VGameArea@@@std@@@2@XZ 00451f40 f i RD1Engined:AreasManager.obj
 0001:00050f80       ?_Getal@?$_Vector_alloc@U?$_Vec_base_types@VGameArea@@V?$allocator@VGameArea@@@std@@@std@@@std@@QBEABU?$_Wrap_alloc@V?$allocator@VGameArea@@@std@@@2@XZ 00451f80 f i RD1Engined:AreasManager.obj
 0001:00050fc0       ?_Getpfirst@?$_Vector_alloc@U?$_Vec_base_types@V?$basic_string@DU?$char_traits@D@std@@V?$allocator@D@2@@std@@V?$allocator@V?$basic_string@DU?$char_traits@D@std@@V?$allocator@D@2@@std@@@2@@std@@@std@@QBEPAPAU_Iterator_base12@2@XZ 00451fc0 f i RD1Engined:AreasManager.obj
 0001:00051010       ?_Getpfirst@?$_Vector_alloc@U?$_Vec_base_types@VGameArea@@V?$allocator@VGameArea@@@std@@@std@@@std@@QBEPAPAU_Iterator_base12@2@XZ 00452010 f i RD1Engined:AreasManager.obj
 0001:00051060       ?_Grow_to@?$vector@V?$basic_string@DU?$char_traits@D@std@@V?$allocator@D@2@@std@@V?$allocator@V?$basic_string@DU?$char_traits@D@std@@V?$allocator@D@2@@std@@@2@@std@@IBEII@Z 00452060 f i RD1Engined:AreasManager.obj
 0001:000510f0       ?_Grow_to@?$vector@VGameArea@@V?$allocator@VGameArea@@@std@@@std@@IBEII@Z 004520f0 f i RD1Engined:AreasManager.obj
 0001:00051180       ?_Inside@?$vector@V?$basic_string@DU?$char_traits@D@std@@V?$allocator@D@2@@std@@V?$allocator@V?$basic_string@DU?$char_traits@D@std@@V?$allocator@D@2@@std@@@2@@std@@IBE_NPBV?$basic_string@DU?$char_traits@D@std@@V?$allocator@D@2@@2@@Z 00452180 f i RD1Engined:AreasManager.obj
 0001:00051210       ?_Inside@?$vector@VGameArea@@V?$allocator@VGameArea@@@std@@@std@@IBE_NPBVGameArea@@@Z 00452210 f i RD1Engined:AreasManager.obj
 0001:000512a0       ?_Myend@?$_Vector_alloc@U?$_Vec_base_types@V?$basic_string@DU?$char_traits@D@std@@V?$allocator@D@2@@std@@V?$allocator@V?$basic_string@DU?$char_traits@D@std@@V?$allocator@D@2@@std@@@2@@std@@@std@@QAEAAPAV?$basic_string@DU?$char_traits@D@std@@V?$allocator@D@2@@2@XZ 004522a0 f i RD1Engined:AreasManager.obj
 0001:000512f0       ?_Myend@?$_Vector_alloc@U?$_Vec_base_types@V?$basic_string@DU?$char_traits@D@std@@V?$allocator@D@2@@std@@V?$allocator@V?$basic_string@DU?$char_traits@D@std@@V?$allocator@D@2@@std@@@2@@std@@@std@@QBEABQAV?$basic_string@DU?$char_traits@D@std@@V?$allocator@D@2@@2@XZ 004522f0 f i RD1Engined:AreasManager.obj
 0001:00051340       ?_Myend@?$_Vector_alloc@U?$_Vec_base_types@VGameArea@@V?$allocator@VGameArea@@@std@@@std@@@std@@QAEAAPAVGameArea@@XZ 00452340 f i RD1Engined:AreasManager.obj
 0001:00051390       ?_Myend@?$_Vector_alloc@U?$_Vec_base_types@VGameArea@@V?$allocator@VGameArea@@@std@@@std@@@std@@QBEABQAVGameArea@@XZ 00452390 f i RD1Engined:AreasManager.obj
 0001:000513e0       ?_Myfirst@?$_Vector_alloc@U?$_Vec_base_types@VGameArea@@V?$allocator@VGameArea@@@std@@@std@@@std@@QAEAAPAVGameArea@@XZ 004523e0 f i RD1Engined:AreasManager.obj
 0001:00051430       ?_Myfirst@?$_Vector_alloc@U?$_Vec_base_types@VGameArea@@V?$allocator@VGameArea@@@std@@@std@@@std@@QBEABQAVGameArea@@XZ 00452430 f i RD1Engined:AreasManager.obj
 0001:00051480       ?_Mylast@?$_Vector_alloc@U?$_Vec_base_types@V?$basic_string@DU?$char_traits@D@std@@V?$allocator@D@2@@std@@V?$allocator@V?$basic_string@DU?$char_traits@D@std@@V?$allocator@D@2@@std@@@2@@std@@@std@@QAEAAPAV?$basic_string@DU?$char_traits@D@std@@V?$allocator@D@2@@2@XZ 00452480 f i RD1Engined:AreasManager.obj
 0001:000514d0       ?_Mylast@?$_Vector_alloc@U?$_Vec_base_types@VGameArea@@V?$allocator@VGameArea@@@std@@@std@@@std@@QAEAAPAVGameArea@@XZ 004524d0 f i RD1Engined:AreasManager.obj
 0001:00051520       ?_Mylast@?$_Vector_alloc@U?$_Vec_base_types@VGameArea@@V?$allocator@VGameArea@@@std@@@std@@@std@@QBEABQAVGameArea@@XZ 00452520 f i RD1Engined:AreasManager.obj
 0001:00051570       ?_Myproxy@?$_Vector_alloc@U?$_Vec_base_types@V?$basic_string@DU?$char_traits@D@std@@V?$allocator@D@2@@std@@V?$allocator@V?$basic_string@DU?$char_traits@D@std@@V?$allocator@D@2@@std@@@2@@std@@@std@@QAEAAPAU_Container_proxy@2@XZ 00452570 f i RD1Engined:AreasManager.obj
 0001:000515b0       ?_Myproxy@?$_Vector_alloc@U?$_Vec_base_types@VGameArea@@V?$allocator@VGameArea@@@std@@@std@@@std@@QAEAAPAU_Container_proxy@2@XZ 004525b0 f i RD1Engined:AreasManager.obj
 0001:000515f0       ?_Orphan_all@?$_Vector_alloc@U?$_Vec_base_types@V?$basic_string@DU?$char_traits@D@std@@V?$allocator@D@2@@std@@V?$allocator@V?$basic_string@DU?$char_traits@D@std@@V?$allocator@D@2@@std@@@2@@std@@@std@@QAEXXZ 004525f0 f i RD1Engined:AreasManager.obj
 0001:00051640       ?_Orphan_all@?$_Vector_alloc@U?$_Vec_base_types@VGameArea@@V?$allocator@VGameArea@@@std@@@std@@@std@@QAEXXZ 00452640 f i RD1Engined:AreasManager.obj
 0001:00051690       ?_Orphan_range@?$vector@V?$basic_string@DU?$char_traits@D@std@@V?$allocator@D@2@@std@@V?$allocator@V?$basic_string@DU?$char_traits@D@std@@V?$allocator@D@2@@std@@@2@@std@@IBEXPAV?$basic_string@DU?$char_traits@D@std@@V?$allocator@D@2@@2@0@Z 00452690 f i RD1Engined:AreasManager.obj
 0001:000517c0       ?_Orphan_range@?$vector@VGameArea@@V?$allocator@VGameArea@@@std@@@std@@IBEXPAVGameArea@@0@Z 004527c0 f i RD1Engined:AreasManager.obj
 0001:000518f0       ?_Reallocate@?$vector@V?$basic_string@DU?$char_traits@D@std@@V?$allocator@D@2@@std@@V?$allocator@V?$basic_string@DU?$char_traits@D@std@@V?$allocator@D@2@@std@@@2@@std@@IAEXI@Z 004528f0 f i RD1Engined:AreasManager.obj
 0001:00051a80       ?_Reallocate@?$vector@VGameArea@@V?$allocator@VGameArea@@@std@@@std@@IAEXI@Z 00452a80 f i RD1Engined:AreasManager.obj
 0001:00051c10       ?_Reserve@?$vector@V?$basic_string@DU?$char_traits@D@std@@V?$allocator@D@2@@std@@V?$allocator@V?$basic_string@DU?$char_traits@D@std@@V?$allocator@D@2@@std@@@2@@std@@IAEXI@Z 00452c10 f i RD1Engined:AreasManager.obj
 0001:00051ca0       ?_Reserve@?$vector@VGameArea@@V?$allocator@VGameArea@@@std@@@std@@IAEXI@Z 00452ca0 f i RD1Engined:AreasManager.obj
 0001:00051d30       ?_Tidy@?$vector@V?$basic_string@DU?$char_traits@D@std@@V?$allocator@D@2@@std@@V?$allocator@V?$basic_string@DU?$char_traits@D@std@@V?$allocator@D@2@@std@@@2@@std@@IAEXXZ 00452d30 f i RD1Engined:AreasManager.obj
 0001:00051e10       ?_Tidy@?$vector@VGameArea@@V?$allocator@VGameArea@@@std@@@std@@IAEXXZ 00452e10 f i RD1Engined:AreasManager.obj
 0001:00051ef0       ?_Unchecked@?$_Vector_const_iterator@V?$_Vector_val@U?$_Simple_types@URHeader@@@std@@@std@@@std@@QBEPBURHeader@@XZ 00452ef0 f i RD1Engined:AreasManager.obj
 0001:00051f20       ?_Unused_capacity@?$vector@V?$basic_string@DU?$char_traits@D@std@@V?$allocator@D@2@@std@@V?$allocator@V?$basic_string@DU?$char_traits@D@std@@V?$allocator@D@2@@std@@@2@@std@@QBEIXZ 00452f20 f i RD1Engined:AreasManager.obj
 0001:00051f80       ?_Unused_capacity@?$vector@VGameArea@@V?$allocator@VGameArea@@@std@@@std@@QBEIXZ 00452f80 f i RD1Engined:AreasManager.obj
 0001:00051fe0       ?_Xlen@?$vector@V?$basic_string@DU?$char_traits@D@std@@V?$allocator@D@2@@std@@V?$allocator@V?$basic_string@DU?$char_traits@D@std@@V?$allocator@D@2@@std@@@2@@std@@IBEXXZ 00452fe0 f i RD1Engined:AreasManager.obj
 0001:00052030       ?_Xlen@?$vector@VGameArea@@V?$allocator@VGameArea@@@std@@@std@@IBEXXZ 00453030 f i RD1Engined:AreasManager.obj
 0001:00052080       ?__autoclassinit2@GameArea@@QAEXI@Z 00453080 f i RD1Engined:AreasManager.obj
 0001:000520d0       ?allocate@?$_Wrap_alloc@V?$allocator@V?$basic_string@DU?$char_traits@D@std@@V?$allocator@D@2@@std@@@std@@@std@@QAEPAV?$basic_string@DU?$char_traits@D@std@@V?$allocator@D@2@@2@I@Z 004530d0 f i RD1Engined:AreasManager.obj
 0001:00052120       ?allocate@?$_Wrap_alloc@V?$allocator@VGameArea@@@std@@@std@@QAEPAVGameArea@@I@Z 00453120 f i RD1Engined:AreasManager.obj
 0001:00052170       ?allocate@?$allocator@V?$basic_string@DU?$char_traits@D@std@@V?$allocator@D@2@@std@@@std@@QAEPAV?$basic_string@DU?$char_traits@D@std@@V?$allocator@D@2@@2@I@Z 00453170 f i RD1Engined:AreasManager.obj
 0001:000521c0       ?allocate@?$allocator@VGameArea@@@std@@QAEPAVGameArea@@I@Z 004531c0 f i RD1Engined:AreasManager.obj
 0001:00052210       ?begin@?$vector@URHeader@@V?$allocator@URHeader@@@std@@@std@@QBE?AV?$_Vector_const_iterator@V?$_Vector_val@U?$_Simple_types@URHeader@@@std@@@std@@@2@XZ 00453210 f i RD1Engined:AreasManager.obj
 0001:000522a0       ?capacity@?$vector@V?$basic_string@DU?$char_traits@D@std@@V?$allocator@D@2@@std@@V?$allocator@V?$basic_string@DU?$char_traits@D@std@@V?$allocator@D@2@@std@@@2@@std@@QBEIXZ 004532a0 f i RD1Engined:AreasManager.obj
 0001:00052300       ?capacity@?$vector@VGameArea@@V?$allocator@VGameArea@@@std@@@std@@QBEIXZ 00453300 f i RD1Engined:AreasManager.obj
 0001:00052360       ?deallocate@?$_Wrap_alloc@V?$allocator@V?$basic_string@DU?$char_traits@D@std@@V?$allocator@D@2@@std@@@std@@@std@@QAEXPAV?$basic_string@DU?$char_traits@D@std@@V?$allocator@D@2@@2@I@Z 00453360 f i RD1Engined:AreasManager.obj
 0001:000523b0       ?deallocate@?$_Wrap_alloc@V?$allocator@VGameArea@@@std@@@std@@QAEXPAVGameArea@@I@Z 004533b0 f i RD1Engined:AreasManager.obj
 0001:00052400       ?deallocate@?$allocator@V?$basic_string@DU?$char_traits@D@std@@V?$allocator@D@2@@std@@@std@@QAEXPAV?$basic_string@DU?$char_traits@D@std@@V?$allocator@D@2@@2@I@Z 00453400 f i RD1Engined:AreasManager.obj
 0001:00052450       ?deallocate@?$allocator@VGameArea@@@std@@QAEXPAVGameArea@@I@Z 00453450 f i RD1Engined:AreasManager.obj
 0001:000524a0       ?end@?$vector@URHeader@@V?$allocator@URHeader@@@std@@@std@@QBE?AV?$_Vector_const_iterator@V?$_Vector_val@U?$_Simple_types@URHeader@@@std@@@std@@@2@XZ 004534a0 f i RD1Engined:AreasManager.obj
 0001:00052530       ?max_size@?$_Wrap_alloc@V?$allocator@V?$basic_string@DU?$char_traits@D@std@@V?$allocator@D@2@@std@@@std@@@std@@QBEIU_Nil@2@@Z 00453530 f i RD1Engined:AreasManager.obj
 0001:00052580       ?max_size@?$_Wrap_alloc@V?$allocator@VGameArea@@@std@@@std@@QBEIU_Nil@2@@Z 00453580 f i RD1Engined:AreasManager.obj
 0001:000525d0       ?max_size@?$allocator@V?$basic_string@DU?$char_traits@D@std@@V?$allocator@D@2@@std@@@std@@QBEIXZ 004535d0 f i RD1Engined:AreasManager.obj
 0001:00052600       ?max_size@?$allocator@VGameArea@@@std@@QBEIXZ 00453600 f i RD1Engined:AreasManager.obj
 0001:00052630       ?max_size@?$allocator_traits@V?$allocator@V?$basic_string@DU?$char_traits@D@std@@V?$allocator@D@2@@std@@@std@@@std@@SAIABV?$allocator@V?$basic_string@DU?$char_traits@D@std@@V?$allocator@D@2@@std@@@2@@Z 00453630 f i RD1Engined:AreasManager.obj
 0001:00052670       ?max_size@?$allocator_traits@V?$allocator@VGameArea@@@std@@@std@@SAIABV?$allocator@VGameArea@@@2@@Z 00453670 f i RD1Engined:AreasManager.obj
 0001:000526b0       ?max_size@?$vector@V?$basic_string@DU?$char_traits@D@std@@V?$allocator@D@2@@std@@V?$allocator@V?$basic_string@DU?$char_traits@D@std@@V?$allocator@D@2@@std@@@2@@std@@QBEIXZ 004536b0 f i RD1Engined:AreasManager.obj
 0001:00052700       ?max_size@?$vector@VGameArea@@V?$allocator@VGameArea@@@std@@@std@@QBEIXZ 00453700 f i RD1Engined:AreasManager.obj
 0001:00052750       ?push_back@?$vector@V?$basic_string@DU?$char_traits@D@std@@V?$allocator@D@2@@std@@V?$allocator@V?$basic_string@DU?$char_traits@D@std@@V?$allocator@D@2@@std@@@2@@std@@QAEXABV?$basic_string@DU?$char_traits@D@std@@V?$allocator@D@2@@2@@Z 00453750 f i RD1Engined:AreasManager.obj
 0001:00052900       ?push_back@?$vector@VGameArea@@V?$allocator@VGameArea@@@std@@@std@@QAEXABVGameArea@@@Z 00453900 f i RD1Engined:AreasManager.obj
 0001:00052ab0       ?select_on_container_copy_construction@?$_Wrap_alloc@V?$allocator@URHeader@@@std@@@std@@QBE?AU12@U_Nil@2@@Z 00453ab0 f i RD1Engined:AreasManager.obj
 0001:00052b10       ?select_on_container_copy_construction@?$allocator_traits@V?$allocator@URHeader@@@std@@@std@@SA?AV?$allocator@URHeader@@@2@ABV32@@Z 00453b10 f i RD1Engined:AreasManager.obj
 0001:00052b60       ?size@?$vector@VGameArea@@V?$allocator@VGameArea@@@std@@@std@@QBEIXZ 00453b60 f i RD1Engined:AreasManager.obj
 0001:00052bc0       ??$?0$$V@?$_Compressed_pair@U?$_Wrap_alloc@V?$allocator@U?$_Tree_node@U?$pair@$$CBHUPosModify@@@std@@PAX@std@@@std@@@std@@V?$_Tree_val@U?$_Tree_simple_types@U?$pair@$$CBHUPosModify@@@std@@@std@@@2@$00@std@@QAE@U_Zero_then_variadic_args_t@1@@Z 00453bc0 f i RD1Engined:RD1Engine.obj
 0001:00052c10       ??$?0$$V@?$_Compressed_pair@U?$_Wrap_alloc@V?$allocator@UtagRECT@@@std@@@std@@V?$_Vector_val@U?$_Simple_types@UtagRECT@@@std@@@2@$00@std@@QAE@U_Zero_then_variadic_args_t@1@@Z 00453c10 f i RD1Engined:RD1Engine.obj
 0001:00052c60       ??$?0AAU?$_Wrap_alloc@V?$allocator@PAVFrameManager@@@std@@@std@@@?$_Wrap_alloc@V?$allocator@U_Container_proxy@std@@@std@@@std@@QAE@AAU?$_Wrap_alloc@V?$allocator@PAVFrameManager@@@std@@@1@@Z 00453c60 f i RD1Engined:RD1Engine.obj
 0001:00052cc0       ??$?0AAU?$_Wrap_alloc@V?$allocator@U?$_Tree_node@U?$pair@$$CBHUPosModify@@@std@@PAX@std@@@std@@@std@@@?$_Wrap_alloc@V?$allocator@U_Container_proxy@std@@@std@@@std@@QAE@AAU?$_Wrap_alloc@V?$allocator@U?$_Tree_node@U?$pair@$$CBHUPosModify@@@std@@PAX@std@@@std@@@1@@Z 00453cc0 f i RD1Engined:RD1Engine.obj
 0001:00052d20       ??$?0AAU?$_Wrap_alloc@V?$allocator@UtagRECT@@@std@@@std@@@?$_Wrap_alloc@V?$allocator@U_Container_proxy@std@@@std@@@std@@QAE@AAU?$_Wrap_alloc@V?$allocator@UtagRECT@@@std@@@1@@Z 00453d20 f i RD1Engined:RD1Engine.obj
 0001:00052d80       ??$?0AAV?$_Tree_iterator@V?$_Tree_val@U?$_Tree_simple_types@U?$pair@$$CBHUPosModify@@@std@@@std@@@std@@@std@@_NX$0A@@?$pair@V?$_Tree_iterator@V?$_Tree_val@U?$_Tree_simple_types@U?$pair@$$CBHUPosModify@@@std@@@std@@@std@@@std@@_N@std@@QAE@AAV?$_Tree_iterator@V?$_Tree_val@U?$_Tree_simple_types@U?$pair@$$CBHUPosModify@@@std@@@std@@@std@@@1@$$QA_N@Z 00453d80 f i RD1Engined:RD1Engine.obj
 0001:00052df0       ??$?0ABH$$Z$$V@?$pair@$$CBHUPosModify@@@std@@QAE@Upiecewise_construct_t@1@V?$tuple@ABH@1@V?$tuple@$$V@1@@Z 00453df0 f i RD1Engined:RD1Engine.obj
 0001:00052e50       ??$?0ABU?$less@H@std@@U_Zero_then_variadic_args_t@1@@?$_Compressed_pair@U?$less@H@std@@V?$_Compressed_pair@U?$_Wrap_alloc@V?$allocator@U?$_Tree_node@U?$pair@$$CBHUPosModify@@@std@@PAX@std@@@std@@@std@@V?$_Tree_val@U?$_Tree_simple_types@U?$pair@$$CBHUPosModify@@@std@@@std@@@2@$00@2@$00@std@@QAE@U_One_then_variadic_args_t@1@ABU?$less@H@1@$$QAU_Zero_then_variadic_args_t@1@@Z 00453e50 f i RD1Engined:RD1Engine.obj
 0001:00052ec0       ??$?0PAVFrameManager@@@?$allocator@U_Container_proxy@std@@@std@@QAE@ABV?$allocator@PAVFrameManager@@@1@@Z 00453ec0 f i RD1Engined:RD1Engine.obj
 0001:00052ef0       ??$?0U?$_Tree_node@U?$pair@$$CBHUPosModify@@@std@@PAX@std@@@?$allocator@U_Container_proxy@std@@@std@@QAE@ABV?$allocator@U?$_Tree_node@U?$pair@$$CBHUPosModify@@@std@@PAX@std@@@1@@Z 00453ef0 f i RD1Engined:RD1Engine.obj
 0001:00052f20       ??$?0U?$_Wrap_alloc@V?$allocator@PAVFrameManager@@@std@@@std@@$$V@?$_Compressed_pair@U?$_Wrap_alloc@V?$allocator@PAVFrameManager@@@std@@@std@@V?$_Vector_val@U?$_Simple_types@PAVFrameManager@@@std@@@2@$00@std@@QAE@U_One_then_variadic_args_t@1@$$QAU?$_Wrap_alloc@V?$allocator@PAVFrameManager@@@std@@@1@@Z 00453f20 f i RD1Engined:RD1Engine.obj
 0001:00052f80       ??$?0U?$_Wrap_alloc@V?$allocator@PAVFrameManager@@@std@@@std@@X@?$_Vector_alloc@U?$_Vec_base_types@PAVFrameManager@@V?$allocator@PAVFrameManager@@@std@@@std@@@std@@QAE@$$QAU?$_Wrap_alloc@V?$allocator@PAVFrameManager@@@std@@@1@@Z 00453f80 f i RD1Engined:RD1Engine.obj
 0001:00053020       ??$?0UtagRECT@@@?$allocator@U_Container_proxy@std@@@std@@QAE@ABV?$allocator@UtagRECT@@@1@@Z 00454020 f i RD1Engined:RD1Engine.obj
 0001:00053050       ??$?0V?$_Tree_iterator@V?$_Tree_val@U?$_Tree_simple_types@U?$pair@$$CBHUPosModify@@@std@@@std@@@std@@@std@@_NX$0A@@?$pair@V?$_Tree_iterator@V?$_Tree_val@U?$_Tree_simple_types@U?$pair@$$CBHUPosModify@@@std@@@std@@@std@@@std@@_N@std@@QAE@$$QAV?$_Tree_iterator@V?$_Tree_val@U?$_Tree_simple_types@U?$pair@$$CBHUPosModify@@@std@@@std@@@std@@@1@$$QA_N@Z 00454050 f i RD1Engined:RD1Engine.obj
 0001:000530c0       ??$?0V?$allocator@PAVFrameManager@@@std@@@?$_Wrap_alloc@V?$allocator@PAVFrameManager@@@std@@@std@@QAE@$$QAV?$allocator@PAVFrameManager@@@1@@Z 004540c0 f i RD1Engined:RD1Engine.obj
 0001:00053120       ??$?0V?$tuple@ABH@std@@V?$tuple@$$V@1@$0A@$$Z$S@?$pair@$$CBHUPosModify@@@std@@QAE@AAV?$tuple@ABH@1@AAV?$tuple@$$V@1@U?$integer_sequence@I$0A@@1@U?$integer_sequence@I$S@1@@Z 00454120 f i RD1Engined:RD1Engine.obj
 0001:00053190       ??$_Buynode@ABUpiecewise_construct_t@std@@V?$tuple@ABH@2@V?$tuple@$$V@2@@?$_Tree_comp_alloc@V?$_Tmap_traits@HUPosModify@@U?$less@H@std@@V?$allocator@U?$pair@$$CBHUPosModify@@@std@@@3@$0A@@std@@@std@@QAEPAU?$_Tree_node@U?$pair@$$CBHUPosModify@@@std@@PAX@1@ABUpiecewise_construct_t@1@$$QAV?$tuple@ABH@1@$$QAV?$tuple@$$V@1@@Z 00454190 f i RD1Engined:RD1Engine.obj
 0001:000532b0       ??$_Buynode_if_nil@AAU?$pair@$$CBHUPosModify@@@std@@@?$_Tree@V?$_Tmap_traits@HUPosModify@@U?$less@H@std@@V?$allocator@U?$pair@$$CBHUPosModify@@@std@@@3@$0A@@std@@@std@@IAEPAU?$_Tree_node@U?$pair@$$CBHUPosModify@@@std@@PAX@1@PAU21@AAU?$pair@$$CBHUPosModify@@@1@@Z 004542b0 f i RD1Engined:RD1Engine.obj
 0001:000532e0       ??$_Copy_memmove@PBQAVFrameManager@@PAPAV1@@std@@YAPAPAVFrameManager@@PBQAV1@0PAPAV1@@Z 004542e0 f i RD1Engined:RD1Engine.obj
 0001:00053360       ??$_Destroy_range1@V?$allocator@PAVFrameManager@@@std@@PAPAVFrameManager@@@std@@YAXPAPAVFrameManager@@0AAU?$_Wrap_alloc@V?$allocator@PAVFrameManager@@@std@@@0@U?$integral_constant@_N$00@0@@Z 00454360 f i RD1Engined:RD1Engine.obj
 0001:00053390       ??$_Destroy_range1@V?$allocator@UtagRECT@@@std@@PAUtagRECT@@@std@@YAXPAUtagRECT@@0AAU?$_Wrap_alloc@V?$allocator@UtagRECT@@@std@@@0@U?$integral_constant@_N$00@0@@Z 00454390 f i RD1Engined:RD1Engine.obj
 0001:000533c0       ??$_Destroy_range@V?$allocator@PAVFrameManager@@@std@@PAPAVFrameManager@@@std@@YAXPAPAVFrameManager@@0AAU?$_Wrap_alloc@V?$allocator@PAVFrameManager@@@std@@@0@@Z 004543c0 f i RD1Engined:RD1Engine.obj
 0001:00053410       ??$_Destroy_range@V?$allocator@UtagRECT@@@std@@PAUtagRECT@@@std@@YAXPAUtagRECT@@0AAU?$_Wrap_alloc@V?$allocator@UtagRECT@@@std@@@0@@Z 00454410 f i RD1Engined:RD1Engine.obj
 0001:00053460       ??$_Insert_at@AAU?$pair@$$CBHUPosModify@@@std@@PAU?$_Tree_node@U?$pair@$$CBHUPosModify@@@std@@PAX@2@@?$_Tree@V?$_Tmap_traits@HUPosModify@@U?$less@H@std@@V?$allocator@U?$pair@$$CBHUPosModify@@@std@@@3@$0A@@std@@@std@@IAE?AV?$_Tree_iterator@V?$_Tree_val@U?$_Tree_simple_types@U?$pair@$$CBHUPosModify@@@std@@@std@@@std@@@1@_NPAU?$_Tree_node@U?$pair@$$CBHUPosModify@@@std@@PAX@1@AAU?$pair@$$CBHUPosModify@@@1@1@Z 00454460 f i RD1Engined:RD1Engine.obj
 0001:00053910       ??$_Insert_hint@AAU?$pair@$$CBHUPosModify@@@std@@PAU?$_Tree_node@U?$pair@$$CBHUPosModify@@@std@@PAX@2@@?$_Tree@V?$_Tmap_traits@HUPosModify@@U?$less@H@std@@V?$allocator@U?$pair@$$CBHUPosModify@@@std@@@3@$0A@@std@@@std@@IAE?AV?$_Tree_iterator@V?$_Tree_val@U?$_Tree_simple_types@U?$pair@$$CBHUPosModify@@@std@@@std@@@std@@@1@V?$_Tree_const_iterator@V?$_Tree_val@U?$_Tree_simple_types@U?$pair@$$CBHUPosModify@@@std@@@std@@@std@@@1@AAU?$pair@$$CBHUPosModify@@@1@PAU?$_Tree_node@U?$pair@$$CBHUPosModify@@@std@@PAX@1@@Z 00454910 f i RD1Engined:RD1Engine.obj
 0001:00054a30       ??$_Insert_nohint@AAU?$pair@$$CBHUPosModify@@@std@@PAU?$_Tree_node@U?$pair@$$CBHUPosModify@@@std@@PAX@2@@?$_Tree@V?$_Tmap_traits@HUPosModify@@U?$less@H@std@@V?$allocator@U?$pair@$$CBHUPosModify@@@std@@@3@$0A@@std@@@std@@IAE?AU?$pair@V?$_Tree_iterator@V?$_Tree_val@U?$_Tree_simple_types@U?$pair@$$CBHUPosModify@@@std@@@std@@@std@@@std@@_N@1@_NAAU?$pair@$$CBHUPosModify@@@1@PAU?$_Tree_node@U?$pair@$$CBHUPosModify@@@std@@PAX@1@@Z 00455a30 f i RD1Engined:RD1Engine.obj
 0001:00054fb0       ??$_Kfn@$$CBHUPosModify@@@?$_Tmap_traits@HUPosModify@@U?$less@H@std@@V?$allocator@U?$pair@$$CBHUPosModify@@@std@@@3@$0A@@std@@SAABHABU?$pair@$$CBHUPosModify@@@1@@Z 00455fb0 f i RD1Engined:RD1Engine.obj
 0001:00054fe0       ??$_Lbound@H@?$_Tree@V?$_Tmap_traits@HUPosModify@@U?$less@H@std@@V?$allocator@U?$pair@$$CBHUPosModify@@@std@@@3@$0A@@std@@@std@@IBEPAU?$_Tree_node@U?$pair@$$CBHUPosModify@@@std@@PAX@1@ABH@Z 00455fe0 f i RD1Engined:RD1Engine.obj
 0001:000550a0       ??$_Ptr_copy_cat@QAVFrameManager@@PAV1@@std@@YA?AU_Really_trivial_ptr_iterator_tag@0@ABQBQAVFrameManager@@ABQAPAV2@@Z 004560a0 f i RD1Engined:RD1Engine.obj
 0001:000550d0       ??$_Rechecked@PAPAVFrameManager@@PAPAV1@@std@@YAAAPAPAVFrameManager@@AAPAPAV1@PAPAV1@@Z 004560d0 f i RD1Engined:RD1Engine.obj
 0001:00055100       ??$_Try_emplace@ABH$$V@?$map@HUPosModify@@U?$less@H@std@@V?$allocator@U?$pair@$$CBHUPosModify@@@std@@@3@@std@@QAE?AU?$pair@V?$_Tree_iterator@V?$_Tree_val@U?$_Tree_simple_types@U?$pair@$$CBHUPosModify@@@std@@@std@@@std@@@std@@_N@1@ABH@Z 00456100 f i RD1Engined:RD1Engine.obj
 0001:000553c0       ??$_Ucopy@V?$_Vector_const_iterator@V?$_Vector_val@U?$_Simple_types@PAVFrameManager@@@std@@@std@@@std@@@?$vector@PAVFrameManager@@V?$allocator@PAVFrameManager@@@std@@@std@@IAEPAPAVFrameManager@@V?$_Vector_const_iterator@V?$_Vector_val@U?$_Simple_types@PAVFrameManager@@@std@@@std@@@1@0PAPAV2@@Z 004563c0 f i RD1Engined:RD1Engine.obj
 0001:000554c0       ??$_Unchecked@PAPAVFrameManager@@@std@@YAPAPAVFrameManager@@PAPAV1@@Z 004564c0 f i RD1Engined:RD1Engine.obj
 0001:000554f0       ??$_Unchecked@V?$_Vector_val@U?$_Simple_types@PAVFrameManager@@@std@@@std@@@std@@YAPBQAVFrameManager@@V?$_Vector_const_iterator@V?$_Vector_val@U?$_Simple_types@PAVFrameManager@@@std@@@std@@@0@@Z 004564f0 f i RD1Engined:RD1Engine.obj
 0001:00055580       ??$_Uninitialized_copy@V?$_Vector_const_iterator@V?$_Vector_val@U?$_Simple_types@PAVFrameManager@@@std@@@std@@@std@@PAPAVFrameManager@@V?$allocator@PAVFrameManager@@@2@@std@@YAPAPAVFrameManager@@V?$_Vector_const_iterator@V?$_Vector_val@U?$_Simple_types@PAVFrameManager@@@std@@@std@@@0@0PAPAV1@AAU?$_Wrap_alloc@V?$allocator@PAVFrameManager@@@std@@@0@@Z 00456580 f i RD1Engined:RD1Engine.obj
 0001:000556a0       ??$_Uninitialized_copy_al_unchecked1@QAVFrameManager@@PAV1@V?$allocator@PAVFrameManager@@@std@@@std@@YAPAPAVFrameManager@@PBQAV1@0PAPAV1@AAU?$_Wrap_alloc@V?$allocator@PAVFrameManager@@@std@@@0@U_Really_trivial_ptr_iterator_tag@0@U?$integral_constant@_N$00@0@@Z 004566a0 f i RD1Engined:RD1Engine.obj
 0001:000556f0       ??$_Uninitialized_copy_al_unchecked@PBQAVFrameManager@@PAPAV1@V?$allocator@PAVFrameManager@@@std@@@std@@YAPAPAVFrameManager@@PBQAV1@0PAPAV1@AAU?$_Wrap_alloc@V?$allocator@PAVFrameManager@@@std@@@0@@Z 004566f0 f i RD1Engined:RD1Engine.obj
 0001:00055760       ??$addressof@PAU?$_Tree_node@U?$pair@$$CBHUPosModify@@@std@@PAX@std@@@std@@YAPAPAU?$_Tree_node@U?$pair@$$CBHUPosModify@@@std@@PAX@0@AAPAU10@@Z 00456760 f i RD1Engined:RD1Engine.obj
 0001:00055790       ??$addressof@U?$pair@$$CBHUPosModify@@@std@@@std@@YAPAU?$pair@$$CBHUPosModify@@@0@AAU10@@Z 00456790 f i RD1Engined:RD1Engine.obj
 0001:000557c0       ??$construct@PAU?$_Tree_node@U?$pair@$$CBHUPosModify@@@std@@PAX@std@@AAPAU12@@?$_Wrap_alloc@V?$allocator@U?$_Tree_node@U?$pair@$$CBHUPosModify@@@std@@PAX@std@@@std@@@std@@QAEXPAPAU?$_Tree_node@U?$pair@$$CBHUPosModify@@@std@@PAX@1@AAPAU21@@Z 004567c0 f i RD1Engined:RD1Engine.obj
 0001:00055820       ??$construct@PAU?$_Tree_node@U?$pair@$$CBHUPosModify@@@std@@PAX@std@@AAPAU12@@?$allocator@U?$_Tree_node@U?$pair@$$CBHUPosModify@@@std@@PAX@std@@@std@@QAEXPAPAU?$_Tree_node@U?$pair@$$CBHUPosModify@@@std@@PAX@1@AAPAU21@@Z 00456820 f i RD1Engined:RD1Engine.obj
 0001:000558b0       ??$construct@PAU?$_Tree_node@U?$pair@$$CBHUPosModify@@@std@@PAX@std@@AAPAU12@@?$allocator_traits@V?$allocator@U?$_Tree_node@U?$pair@$$CBHUPosModify@@@std@@PAX@std@@@std@@@std@@SAXAAV?$allocator@U?$_Tree_node@U?$pair@$$CBHUPosModify@@@std@@PAX@std@@@1@PAPAU?$_Tree_node@U?$pair@$$CBHUPosModify@@@std@@PAX@1@AAPAU31@@Z 004568b0 f i RD1Engined:RD1Engine.obj
 0001:00055900       ??$construct@U?$pair@$$CBHUPosModify@@@std@@ABUpiecewise_construct_t@2@V?$tuple@ABH@2@V?$tuple@$$V@2@@?$_Wrap_alloc@V?$allocator@U?$_Tree_node@U?$pair@$$CBHUPosModify@@@std@@PAX@std@@@std@@@std@@QAEXPAU?$pair@$$CBHUPosModify@@@1@ABUpiecewise_construct_t@1@$$QAV?$tuple@ABH@1@$$QAV?$tuple@$$V@1@@Z 00456900 f i RD1Engined:RD1Engine.obj
 0001:00055970       ??$construct@U?$pair@$$CBHUPosModify@@@std@@ABUpiecewise_construct_t@2@V?$tuple@ABH@2@V?$tuple@$$V@2@@?$allocator@U?$_Tree_node@U?$pair@$$CBHUPosModify@@@std@@PAX@std@@@std@@QAEXPAU?$pair@$$CBHUPosModify@@@1@ABUpiecewise_construct_t@1@$$QAV?$tuple@ABH@1@$$QAV?$tuple@$$V@1@@Z 00456970 f i RD1Engined:RD1Engine.obj
 0001:00055a70       ??$construct@U?$pair@$$CBHUPosModify@@@std@@ABUpiecewise_construct_t@2@V?$tuple@ABH@2@V?$tuple@$$V@2@@?$allocator_traits@V?$allocator@U?$_Tree_node@U?$pair@$$CBHUPosModify@@@std@@PAX@std@@@std@@@std@@SAXAAV?$allocator@U?$_Tree_node@U?$pair@$$CBHUPosModify@@@std@@PAX@std@@@1@PAU?$pair@$$CBHUPosModify@@@1@ABUpiecewise_construct_t@1@$$QAV?$tuple@ABH@1@$$QAV?$tuple@$$V@1@@Z 00456a70 f i RD1Engined:RD1Engine.obj
 0001:00055ae0       ??$destroy@PAU?$_Tree_node@U?$pair@$$CBHUPosModify@@@std@@PAX@std@@@?$_Wrap_alloc@V?$allocator@U?$_Tree_node@U?$pair@$$CBHUPosModify@@@std@@PAX@std@@@std@@@std@@QAEXPAPAU?$_Tree_node@U?$pair@$$CBHUPosModify@@@std@@PAX@1@@Z 00456ae0 f i RD1Engined:RD1Engine.obj
 0001:00055b30       ??$destroy@PAU?$_Tree_node@U?$pair@$$CBHUPosModify@@@std@@PAX@std@@@?$allocator@U?$_Tree_node@U?$pair@$$CBHUPosModify@@@std@@PAX@std@@@std@@QAEXPAPAU?$_Tree_node@U?$pair@$$CBHUPosModify@@@std@@PAX@1@@Z 00456b30 f i RD1Engined:RD1Engine.obj
 0001:00055b60       ??$destroy@PAU?$_Tree_node@U?$pair@$$CBHUPosModify@@@std@@PAX@std@@@?$allocator_traits@V?$allocator@U?$_Tree_node@U?$pair@$$CBHUPosModify@@@std@@PAX@std@@@std@@@std@@SAXAAV?$allocator@U?$_Tree_node@U?$pair@$$CBHUPosModify@@@std@@PAX@std@@@1@PAPAU?$_Tree_node@U?$pair@$$CBHUPosModify@@@std@@PAX@1@@Z 00456b60 f i RD1Engined:RD1Engine.obj
 0001:00055ba0       ??$destroy@U?$pair@$$CBHUPosModify@@@std@@@?$_Wrap_alloc@V?$allocator@U?$_Tree_node@U?$pair@$$CBHUPosModify@@@std@@PAX@std@@@std@@@std@@QAEXPAU?$pair@$$CBHUPosModify@@@1@@Z 00456ba0 f i RD1Engined:RD1Engine.obj
 0001:00055bf0       ??$destroy@U?$pair@$$CBHUPosModify@@@std@@@?$allocator@U?$_Tree_node@U?$pair@$$CBHUPosModify@@@std@@PAX@std@@@std@@QAEXPAU?$pair@$$CBHUPosModify@@@1@@Z 00456bf0 f i RD1Engined:RD1Engine.obj
 0001:00055c20       ??$destroy@U?$pair@$$CBHUPosModify@@@std@@@?$allocator_traits@V?$allocator@U?$_Tree_node@U?$pair@$$CBHUPosModify@@@std@@PAX@std@@@std@@@std@@SAXAAV?$allocator@U?$_Tree_node@U?$pair@$$CBHUPosModify@@@std@@PAX@std@@@1@PAU?$pair@$$CBHUPosModify@@@1@@Z 00456c20 f i RD1Engined:RD1Engine.obj
 0001:00055c60       ??$emplace_hint@ABUpiecewise_construct_t@std@@V?$tuple@ABH@2@V?$tuple@$$V@2@@?$_Tree@V?$_Tmap_traits@HUPosModify@@U?$less@H@std@@V?$allocator@U?$pair@$$CBHUPosModify@@@std@@@3@$0A@@std@@@std@@QAE?AV?$_Tree_iterator@V?$_Tree_val@U?$_Tree_simple_types@U?$pair@$$CBHUPosModify@@@std@@@std@@@std@@@1@V?$_Tree_const_iterator@V?$_Tree_val@U?$_Tree_simple_types@U?$pair@$$CBHUPosModify@@@std@@@std@@@std@@@1@ABUpiecewise_construct_t@1@$$QAV?$tuple@ABH@1@$$QAV?$tuple@$$V@1@@Z 00456c60 f i RD1Engined:RD1Engine.obj
 0001:00055d70       ??$forward@AAPAU?$_Tree_node@U?$pair@$$CBHUPosModify@@@std@@PAX@std@@@std@@YAAAPAU?$_Tree_node@U?$pair@$$CBHUPosModify@@@std@@PAX@0@AAPAU10@@Z 00456d70 f i RD1Engined:RD1Engine.obj
 0001:00055da0       ??$forward@AAU?$_Wrap_alloc@V?$allocator@PAVFrameManager@@@std@@@std@@@std@@YAAAU?$_Wrap_alloc@V?$allocator@PAVFrameManager@@@std@@@0@AAU10@@Z 00456da0 f i RD1Engined:RD1Engine.obj
 0001:00055dd0       ??$forward@AAU?$_Wrap_alloc@V?$allocator@U?$_Tree_node@U?$pair@$$CBHUPosModify@@@std@@PAX@std@@@std@@@std@@@std@@YAAAU?$_Wrap_alloc@V?$allocator@U?$_Tree_node@U?$pair@$$CBHUPosModify@@@std@@PAX@std@@@std@@@0@AAU10@@Z 00456dd0 f i RD1Engined:RD1Engine.obj
 0001:00055e00       ??$forward@AAU?$_Wrap_alloc@V?$allocator@UtagRECT@@@std@@@std@@@std@@YAAAU?$_Wrap_alloc@V?$allocator@UtagRECT@@@std@@@0@AAU10@@Z 00456e00 f i RD1Engined:RD1Engine.obj
 0001:00055e30       ??$forward@AAU?$pair@$$CBHUPosModify@@@std@@@std@@YAAAU?$pair@$$CBHUPosModify@@@0@AAU10@@Z 00456e30 f i RD1Engined:RD1Engine.obj
 0001:00055e60       ??$forward@AAV?$_Tree_iterator@V?$_Tree_val@U?$_Tree_simple_types@U?$pair@$$CBHUPosModify@@@std@@@std@@@std@@@std@@@std@@YAAAV?$_Tree_iterator@V?$_Tree_val@U?$_Tree_simple_types@U?$pair@$$CBHUPosModify@@@std@@@std@@@std@@@0@AAV10@@Z 00456e60 f i RD1Engined:RD1Engine.obj
 0001:00055e90       ??$forward@U?$_Wrap_alloc@V?$allocator@PAVFrameManager@@@std@@@std@@@std@@YA$$QAU?$_Wrap_alloc@V?$allocator@PAVFrameManager@@@std@@@0@AAU10@@Z 00456e90 f i RD1Engined:RD1Engine.obj
 0001:00055ec0       ??$forward@V?$_Tree_iterator@V?$_Tree_val@U?$_Tree_simple_types@U?$pair@$$CBHUPosModify@@@std@@@std@@@std@@@std@@@std@@YA$$QAV?$_Tree_iterator@V?$_Tree_val@U?$_Tree_simple_types@U?$pair@$$CBHUPosModify@@@std@@@std@@@std@@@0@AAV10@@Z 00456ec0 f i RD1Engined:RD1Engine.obj
 0001:00055ef0       ??$forward@V?$allocator@PAVFrameManager@@@std@@@std@@YA$$QAV?$allocator@PAVFrameManager@@@0@AAV10@@Z 00456ef0 f i RD1Engined:RD1Engine.obj
 0001:00055f20       ??$move@AAU?$_Wrap_alloc@V?$allocator@PAVFrameManager@@@std@@@std@@@std@@YA$$QAU?$_Wrap_alloc@V?$allocator@PAVFrameManager@@@std@@@0@AAU10@@Z 00456f20 f i RD1Engined:RD1Engine.obj
 0001:00055f50       ??$try_emplace@$$V@?$map@HUPosModify@@U?$less@H@std@@V?$allocator@U?$pair@$$CBHUPosModify@@@std@@@3@@std@@QAE?AU?$pair@V?$_Tree_iterator@V?$_Tree_val@U?$_Tree_simple_types@U?$pair@$$CBHUPosModify@@@std@@@std@@@std@@@std@@_N@1@ABH@Z 00456f50 f i RD1Engined:RD1Engine.obj
 0001:00055fc0       ??0?$_Iterator012@Ubidirectional_iterator_tag@std@@U?$pair@$$CBHUPosModify@@@2@HPBU32@ABU32@U_Iterator_base12@2@@std@@QAE@$$QAU01@@Z 00456fc0 f i RD1Engined:RD1Engine.obj
 0001:00056010       ??0?$_Iterator012@Ubidirectional_iterator_tag@std@@U?$pair@$$CBHUPosModify@@@2@HPBU32@ABU32@U_Iterator_base12@2@@std@@QAE@ABU01@@Z 00457010 f i RD1Engined:RD1Engine.obj
 0001:00056060       ??0?$_Iterator012@Ubidirectional_iterator_tag@std@@U?$pair@$$CBHUPosModify@@@2@HPBU32@ABU32@U_Iterator_base12@2@@std@@QAE@XZ 00457060 f i RD1Engined:RD1Engine.obj
 0001:000560b0       ??0?$_Iterator012@Urandom_access_iterator_tag@std@@PAVFrameManager@@HPBQAV3@ABQAV3@U_Iterator_base12@2@@std@@QAE@ABU01@@Z 004570b0 f i RD1Engined:RD1Engine.obj
 0001:00056100       ??0?$_Iterator012@Urandom_access_iterator_tag@std@@PAVFrameManager@@HPBQAV3@ABQAV3@U_Iterator_base12@2@@std@@QAE@XZ 00457100 f i RD1Engined:RD1Engine.obj
 0001:00056150       ??0?$_Tree@V?$_Tmap_traits@HUPosModify@@U?$less@H@std@@V?$allocator@U?$pair@$$CBHUPosModify@@@std@@@3@$0A@@std@@@std@@QAE@ABU?$less@H@1@@Z 00457150 f i RD1Engined:RD1Engine.obj
 0001:000561a0       ??0?$_Tree_comp_alloc@V?$_Tmap_traits@HUPosModify@@U?$less@H@std@@V?$allocator@U?$pair@$$CBHUPosModify@@@std@@@3@$0A@@std@@@std@@QAE@ABU?$less@H@1@@Z 004571a0 f i RD1Engined:RD1Engine.obj
 0001:00056240       ??0?$_Tree_const_iterator@V?$_Tree_val@U?$_Tree_simple_types@U?$pair@$$CBHUPosModify@@@std@@@std@@@std@@@std@@QAE@$$QAV01@@Z 00457240 f i RD1Engined:RD1Engine.obj
 0001:00056290       ??0?$_Tree_const_iterator@V?$_Tree_val@U?$_Tree_simple_types@U?$pair@$$CBHUPosModify@@@std@@@std@@@std@@@std@@QAE@ABV01@@Z 00457290 f i RD1Engined:RD1Engine.obj
 0001:000562e0       ??0?$_Tree_const_iterator@V?$_Tree_val@U?$_Tree_simple_types@U?$pair@$$CBHUPosModify@@@std@@@std@@@std@@@std@@QAE@PAU?$_Tree_node@U?$pair@$$CBHUPosModify@@@std@@PAX@1@PBV?$_Tree_val@U?$_Tree_simple_types@U?$pair@$$CBHUPosModify@@@std@@@std@@@1@@Z 004572e0 f i RD1Engined:RD1Engine.obj
 0001:00056330       ??0?$_Tree_const_iterator@V?$_Tree_val@U?$_Tree_simple_types@U?$pair@$$CBHUPosModify@@@std@@@std@@@std@@@std@@QAE@XZ 00457330 f i RD1Engined:RD1Engine.obj
 0001:00056380       ??0?$_Tree_iterator@V?$_Tree_val@U?$_Tree_simple_types@U?$pair@$$CBHUPosModify@@@std@@@std@@@std@@@std@@QAE@$$QAV01@@Z 00457380 f i RD1Engined:RD1Engine.obj
 0001:000563d0       ??0?$_Tree_iterator@V?$_Tree_val@U?$_Tree_simple_types@U?$pair@$$CBHUPosModify@@@std@@@std@@@std@@@std@@QAE@ABV01@@Z 004573d0 f i RD1Engined:RD1Engine.obj
 0001:00056420       ??0?$_Tree_iterator@V?$_Tree_val@U?$_Tree_simple_types@U?$pair@$$CBHUPosModify@@@std@@@std@@@std@@@std@@QAE@PAU?$_Tree_node@U?$pair@$$CBHUPosModify@@@std@@PAX@1@PBV?$_Tree_val@U?$_Tree_simple_types@U?$pair@$$CBHUPosModify@@@std@@@std@@@1@@Z 00457420 f i RD1Engined:RD1Engine.obj
 0001:00056470       ??0?$_Tree_unchecked_const_iterator@V?$_Tree_val@U?$_Tree_simple_types@U?$pair@$$CBHUPosModify@@@std@@@std@@@std@@U_Iterator_base12@2@@std@@QAE@$$QAV01@@Z 00457470 f i RD1Engined:RD1Engine.obj
 0001:000564d0       ??0?$_Tree_unchecked_const_iterator@V?$_Tree_val@U?$_Tree_simple_types@U?$pair@$$CBHUPosModify@@@std@@@std@@@std@@U_Iterator_base12@2@@std@@QAE@ABV01@@Z 004574d0 f i RD1Engined:RD1Engine.obj
 0001:00056530       ??0?$_Tree_unchecked_const_iterator@V?$_Tree_val@U?$_Tree_simple_types@U?$pair@$$CBHUPosModify@@@std@@@std@@@std@@U_Iterator_base12@2@@std@@QAE@PAU?$_Tree_node@U?$pair@$$CBHUPosModify@@@std@@PAX@1@PBV?$_Tree_val@U?$_Tree_simple_types@U?$pair@$$CBHUPosModify@@@std@@@std@@@1@@Z 00457530 f i RD1Engined:RD1Engine.obj
 0001:000565d0       ??0?$_Tree_unchecked_const_iterator@V?$_Tree_val@U?$_Tree_simple_types@U?$pair@$$CBHUPosModify@@@std@@@std@@@std@@U_Iterator_base12@2@@std@@QAE@XZ 004575d0 f i RD1Engined:RD1Engine.obj
 0001:00056620       ??0?$_Tree_val@U?$_Tree_simple_types@U?$pair@$$CBHUPosModify@@@std@@@std@@@std@@QAE@XZ 00457620 f i RD1Engined:RD1Engine.obj
 0001:00056680       ??0?$_Vector_alloc@U?$_Vec_base_types@UtagRECT@@V?$allocator@UtagRECT@@@std@@@std@@@std@@QAE@XZ 00457680 f i RD1Engined:RD1Engine.obj
 0001:00056710       ??0?$_Vector_const_iterator@V?$_Vector_val@U?$_Simple_types@PAVFrameManager@@@std@@@std@@@std@@QAE@ABV01@@Z 00457710 f i RD1Engined:RD1Engine.obj
 0001:00056770       ??0?$_Vector_const_iterator@V?$_Vector_val@U?$_Simple_types@PAVFrameManager@@@std@@@std@@@std@@QAE@PAPAVFrameManager@@PBU_Container_base12@1@@Z 00457770 f i RD1Engined:RD1Engine.obj
 0001:00056810       ??0?$_Vector_val@U?$_Simple_types@PAVFrameManager@@@std@@@std@@QAE@XZ 00457810 f i RD1Engined:RD1Engine.obj
 0001:00056870       ??0?$_Vector_val@U?$_Simple_types@UtagRECT@@@std@@@std@@QAE@XZ 00457870 f i RD1Engined:RD1Engine.obj
 0001:000568d0       ??0?$_Wrap_alloc@V?$allocator@PAVFrameManager@@@std@@@std@@QAE@$$QAU01@@Z 004578d0 f i RD1Engined:RD1Engine.obj
 0001:00056930       ??0?$_Wrap_alloc@V?$allocator@U?$_Tree_node@U?$pair@$$CBHUPosModify@@@std@@PAX@std@@@std@@@std@@QAE@XZ 00457930 f i RD1Engined:RD1Engine.obj
 0001:00056980       ??0?$_Wrap_alloc@V?$allocator@UtagRECT@@@std@@@std@@QAE@XZ 00457980 f i RD1Engined:RD1Engine.obj
 0001:000569d0       ??0?$allocator@PAVFrameManager@@@std@@QAE@ABV01@@Z 004579d0 f i RD1Engined:RD1Engine.obj
 0001:00056a00       ??0?$allocator@U?$_Tree_node@U?$pair@$$CBHUPosModify@@@std@@PAX@std@@@std@@QAE@XZ 00457a00 f i RD1Engined:RD1Engine.obj
 0001:00056a30       ??0?$allocator@UtagRECT@@@std@@QAE@XZ 00457a30 f i RD1Engined:RD1Engine.obj
 0001:00056a60       ??0?$map@HUPosModify@@U?$less@H@std@@V?$allocator@U?$pair@$$CBHUPosModify@@@std@@@3@@std@@QAE@XZ 00457a60 f i RD1Engined:RD1Engine.obj
 0001:00056ab0       ??0?$vector@PAVFrameManager@@V?$allocator@PAVFrameManager@@@std@@@std@@QAE@ABV01@@Z 00457ab0 f i RD1Engined:RD1Engine.obj
 0001:00056c00       ??0?$vector@UtagRECT@@V?$allocator@UtagRECT@@@std@@@std@@QAE@XZ 00457c00 f i RD1Engined:RD1Engine.obj
 0001:00056c70       ??0RD1Engine@@QAE@W4SupportedTitles@@PAVOamFrameTable@@PAVTileBuffer@@2PAVImage@@@Z 00457c70 f   RD1Engined:RD1Engine.obj
 0001:00057300       ??1?$_Compressed_pair@U?$_Wrap_alloc@V?$allocator@PAVFrameManager@@@std@@@std@@V?$_Vector_val@U?$_Simple_types@PAVFrameManager@@@std@@@2@$00@std@@QAE@XZ 00458300 f i RD1Engined:RD1Engine.obj
 0001:00057340       ??1?$_Compressed_pair@U?$_Wrap_alloc@V?$allocator@U?$_Tree_node@U?$pair@$$CBHUPosModify@@@std@@PAX@std@@@std@@@std@@V?$_Tree_val@U?$_Tree_simple_types@U?$pair@$$CBHUPosModify@@@std@@@std@@@2@$00@std@@QAE@XZ 00458340 f i RD1Engined:RD1Engine.obj
 0001:00057380       ??1?$_Compressed_pair@U?$_Wrap_alloc@V?$allocator@UtagRECT@@@std@@@std@@V?$_Vector_val@U?$_Simple_types@UtagRECT@@@std@@@2@$00@std@@QAE@XZ 00458380 f i RD1Engined:RD1Engine.obj
 0001:000573c0       ??1?$_Compressed_pair@U?$less@H@std@@V?$_Compressed_pair@U?$_Wrap_alloc@V?$allocator@U?$_Tree_node@U?$pair@$$CBHUPosModify@@@std@@PAX@std@@@std@@@std@@V?$_Tree_val@U?$_Tree_simple_types@U?$pair@$$CBHUPosModify@@@std@@@std@@@2@$00@2@$00@std@@QAE@XZ 004583c0 f i RD1Engined:RD1Engine.obj
 0001:00057400       ??1?$_Iterator012@Ubidirectional_iterator_tag@std@@U?$pair@$$CBHUPosModify@@@2@HPBU32@ABU32@U_Iterator_base12@2@@std@@QAE@XZ 00458400 f i RD1Engined:RD1Engine.obj
 0001:00057440       ??1?$_Iterator012@Urandom_access_iterator_tag@std@@PAVFrameManager@@HPBQAV3@ABQAV3@U_Iterator_base12@2@@std@@QAE@XZ 00458440 f i RD1Engined:RD1Engine.obj
 0001:00057480       ??1?$_Tree@V?$_Tmap_traits@HUPosModify@@U?$less@H@std@@V?$allocator@U?$pair@$$CBHUPosModify@@@std@@@3@$0A@@std@@@std@@QAE@XZ 00458480 f i RD1Engined:RD1Engine.obj
 0001:00057500       ??1?$_Tree_comp_alloc@V?$_Tmap_traits@HUPosModify@@U?$less@H@std@@V?$allocator@U?$pair@$$CBHUPosModify@@@std@@@3@$0A@@std@@@std@@QAE@XZ 00458500 f i RD1Engined:RD1Engine.obj
 0001:00057590       ??1?$_Tree_const_iterator@V?$_Tree_val@U?$_Tree_simple_types@U?$pair@$$CBHUPosModify@@@std@@@std@@@std@@@std@@QAE@XZ 00458590 f i RD1Engined:RD1Engine.obj
 0001:000575d0       ??1?$_Tree_iterator@V?$_Tree_val@U?$_Tree_simple_types@U?$pair@$$CBHUPosModify@@@std@@@std@@@std@@@std@@QAE@XZ 004585d0 f i RD1Engined:RD1Engine.obj
 0001:00057610       ??1?$_Tree_unchecked_const_iterator@V?$_Tree_val@U?$_Tree_simple_types@U?$pair@$$CBHUPosModify@@@std@@@std@@@std@@U_Iterator_base12@2@@std@@QAE@XZ 00458610 f i RD1Engined:RD1Engine.obj
 0001:00057650       ??1?$_Tree_val@U?$_Tree_simple_types@U?$pair@$$CBHUPosModify@@@std@@@std@@@std@@QAE@XZ 00458650 f i RD1Engined:RD1Engine.obj
 0001:00057690       ??1?$_Vector_alloc@U?$_Vec_base_types@PAVFrameManager@@V?$allocator@PAVFrameManager@@@std@@@std@@@std@@QAE@XZ 00458690 f i RD1Engined:RD1Engine.obj
 0001:00057710       ??1?$_Vector_alloc@U?$_Vec_base_types@UtagRECT@@V?$allocator@UtagRECT@@@std@@@std@@@std@@QAE@XZ 00458710 f i RD1Engined:RD1Engine.obj
 0001:00057790       ??1?$_Vector_const_iterator@V?$_Vector_val@U?$_Simple_types@PAVFrameManager@@@std@@@std@@@std@@QAE@XZ 00458790 f i RD1Engined:RD1Engine.obj
 0001:000577d0       ??1?$_Vector_val@U?$_Simple_types@PAVFrameManager@@@std@@@std@@QAE@XZ 004587d0 f i RD1Engined:RD1Engine.obj
 0001:00057810       ??1?$_Vector_val@U?$_Simple_types@UtagRECT@@@std@@@std@@QAE@XZ 00458810 f i RD1Engined:RD1Engine.obj
 0001:00057850       ??1?$map@HUPosModify@@U?$less@H@std@@V?$allocator@U?$pair@$$CBHUPosModify@@@std@@@3@@std@@QAE@XZ 00458850 f i RD1Engined:RD1Engine.obj
 0001:00057890       ??1?$pair@V?$_Tree_iterator@V?$_Tree_val@U?$_Tree_simple_types@U?$pair@$$CBHUPosModify@@@std@@@std@@@std@@@std@@_N@std@@QAE@XZ 00458890 f i RD1Engined:RD1Engine.obj
 0001:000578d0       ??1?$vector@PAVFrameManager@@V?$allocator@PAVFrameManager@@@std@@@std@@QAE@XZ 004588d0 f i RD1Engined:RD1Engine.obj
 0001:00057950       ??1?$vector@UtagRECT@@V?$allocator@UtagRECT@@@std@@@std@@QAE@XZ 00458950 f i RD1Engined:RD1Engine.obj
 0001:000579d0       ??1RD1Engine@@QAE@XZ       004589d0 f   RD1Engined:RD1Engine.obj
 0001:00057bc0       ??4?$_Iterator012@Ubidirectional_iterator_tag@std@@U?$pair@$$CBHUPosModify@@@2@HPBU32@ABU32@U_Iterator_base12@2@@std@@QAEAAU01@ABU01@@Z 00458bc0 f i RD1Engined:RD1Engine.obj
 0001:00057c10       ??4?$_Tree_const_iterator@V?$_Tree_val@U?$_Tree_simple_types@U?$pair@$$CBHUPosModify@@@std@@@std@@@std@@@std@@QAEAAV01@ABV01@@Z 00458c10 f i RD1Engined:RD1Engine.obj
 0001:00057c60       ??4?$_Tree_unchecked_const_iterator@V?$_Tree_val@U?$_Tree_simple_types@U?$pair@$$CBHUPosModify@@@std@@@std@@@std@@U_Iterator_base12@2@@std@@QAEAAV01@ABV01@@Z 00458c60 f i RD1Engined:RD1Engine.obj
 0001:00057cc0       ??8?$_Tree_const_iterator@V?$_Tree_val@U?$_Tree_simple_types@U?$pair@$$CBHUPosModify@@@std@@@std@@@std@@@std@@QBE_NABV01@@Z 00458cc0 f i RD1Engined:RD1Engine.obj
 0001:00057dd0       ??9?$_Tree_const_iterator@V?$_Tree_val@U?$_Tree_simple_types@U?$pair@$$CBHUPosModify@@@std@@@std@@@std@@@std@@QBE_NABV01@@Z 00458dd0 f i RD1Engined:RD1Engine.obj
 0001:00057e40       ??A?$map@HUPosModify@@U?$less@H@std@@V?$allocator@U?$pair@$$CBHUPosModify@@@std@@@3@@std@@QAEAAUPosModify@@ABH@Z 00458e40 f i RD1Engined:RD1Engine.obj
 0001:00057f00       ??C?$_Tree_iterator@V?$_Tree_val@U?$_Tree_simple_types@U?$pair@$$CBHUPosModify@@@std@@@std@@@std@@@std@@QBEPAU?$pair@$$CBHUPosModify@@@1@XZ 00458f00 f i RD1Engined:RD1Engine.obj
 0001:00057f50       ??D?$_Tree_const_iterator@V?$_Tree_val@U?$_Tree_simple_types@U?$pair@$$CBHUPosModify@@@std@@@std@@@std@@@std@@QBEABU?$pair@$$CBHUPosModify@@@1@XZ 00458f50 f i RD1Engined:RD1Engine.obj
 0001:00058050       ??D?$_Tree_iterator@V?$_Tree_val@U?$_Tree_simple_types@U?$pair@$$CBHUPosModify@@@std@@@std@@@std@@@std@@QBEAAU?$pair@$$CBHUPosModify@@@1@XZ 00459050 f i RD1Engined:RD1Engine.obj
 0001:00058090       ??E?$_Tree_const_iterator@V?$_Tree_val@U?$_Tree_simple_types@U?$pair@$$CBHUPosModify@@@std@@@std@@@std@@@std@@QAE?AV01@H@Z 00459090 f i RD1Engined:RD1Engine.obj
 0001:00058190       ??E?$_Tree_const_iterator@V?$_Tree_val@U?$_Tree_simple_types@U?$pair@$$CBHUPosModify@@@std@@@std@@@std@@@std@@QAEAAV01@XZ 00459190 f i RD1Engined:RD1Engine.obj
 0001:00058290       ??E?$_Tree_unchecked_const_iterator@V?$_Tree_val@U?$_Tree_simple_types@U?$pair@$$CBHUPosModify@@@std@@@std@@@std@@U_Iterator_base12@2@@std@@QAEAAV01@XZ 00459290 f i RD1Engined:RD1Engine.obj
 0001:00058380       ??F?$_Tree_const_iterator@V?$_Tree_val@U?$_Tree_simple_types@U?$pair@$$CBHUPosModify@@@std@@@std@@@std@@@std@@QAEAAV01@XZ 00459380 f i RD1Engined:RD1Engine.obj
 0001:00058500       ??F?$_Tree_iterator@V?$_Tree_val@U?$_Tree_simple_types@U?$pair@$$CBHUPosModify@@@std@@@std@@@std@@@std@@QAEAAV01@XZ 00459500 f i RD1Engined:RD1Engine.obj
 0001:00058550       ??F?$_Tree_unchecked_const_iterator@V?$_Tree_val@U?$_Tree_simple_types@U?$pair@$$CBHUPosModify@@@std@@@std@@@std@@U_Iterator_base12@2@@std@@QAEAAV01@XZ 00459550 f i RD1Engined:RD1Engine.obj
 0001:00058670       ??_GBaseTitle@@QAEPAXI@Z   00459670 f i RD1Engined:RD1Engine.obj
 0001:000586d0       ??_GDoorManager@@QAEPAXI@Z 004596d0 f i RD1Engined:RD1Engine.obj
 0001:00058730       ??_GRoomClass@@QAEPAXI@Z   00459730 f i RD1Engined:RD1Engine.obj
 0001:00058790       ??_GTilesetManager@@QAEPAXI@Z 00459790 f i RD1Engined:RD1Engine.obj
 0001:000587f0       ??_GcOAMManager@@QAEPAXI@Z 004597f0 f i RD1Engined:RD1Engine.obj
 0001:00058850       ??_GclsRoomScrolls@@QAEPAXI@Z 00459850 f i RD1Engined:RD1Engine.obj
 0001:000588b0       ?DisplayDoors@RD1Engine@@QAEHE@Z 004598b0 f   RD1Engined:RD1Engine.obj
 0001:00058bb0       ?DrawClipIdent@RD1Engine@@QAEHXZ 00459bb0 f   RD1Engined:RD1Engine.obj
 0001:00058d80       ?DrawDoorIndicators@RD1Engine@@QAEXPAUHDC__@@@Z 00459d80 f   RD1Engined:RD1Engine.obj
 0001:00058f60       ?DrawLayer@RD1Engine@@QAEHPAVnMapBuffer@@PAVImage@@E@Z 00459f60 f   RD1Engined:RD1Engine.obj
 0001:000591a0       ?DrawRect@@YAHPAUHDC__@@JPAUtagRECT@@H@Z 0045a1a0 f   RD1Engined:RD1Engine.obj
 0001:000592a0       ?DrawRoom@RD1Engine@@QAEHPAVTileBuffer@@0H@Z 0045a2a0 f   RD1Engined:RD1Engine.obj
 0001:00059a10       ?DrawScrolls@RD1Engine@@QAEHHPAVScroller@@@Z 0045aa10 f   RD1Engined:RD1Engine.obj
 0001:00059c40       ?DrawSprites@RD1Engine@@QAEXPAVImage@@@Z 0045ac40 f   RD1Engined:RD1Engine.obj
 0001:0005a280       ?DumpAreaAsImage@RD1Engine@@QAEXPADPAVImage@@PAVTileBuffer@@22@Z 0045b280 f   RD1Engined:RD1Engine.obj
 0001:0005aa20       ?GetArrays@RD1Engine@@QAEXXZ 0045ba20 f   RD1Engined:RD1Engine.obj
 0001:0005ab30       ?GetBitField@@YAHJJJ@Z     0045bb30 f   RD1Engined:RD1Engine.obj
 0001:0005ab80       ?GetPalSize@RD1Engine@@QAEHH@Z 0045bb80 f   RD1Engined:RD1Engine.obj
 0001:0005abf0       ?LoadAreaTable@RD1Engine@@QAEHXZ 0045bbf0 f   RD1Engined:RD1Engine.obj
 0001:0005ad30       ?LoadModifiers@RD1Engine@@QAEXPAD@Z 0045bd30 f   RD1Engined:RD1Engine.obj
 0001:0005af80       ?LoadRoom@RD1Engine@@QAEXHHPAVImage@@PAVTileBuffer@@PAURHeader@@@Z 0045bf80 f   RD1Engined:RD1Engine.obj
 0001:0005b150       ?LoadRoomSpriteSet@RD1Engine@@QAEXHHPAVImage@@PAVTileBuffer@@H@Z 0045c150 f   RD1Engined:RD1Engine.obj
 0001:0005b330       ?Save@RD1Engine@@QAEHPAVMemFile@@@Z 0045c330 f   RD1Engined:RD1Engine.obj
 0001:0005b5e0       ?SaveLevel@RD1Engine@@QAEHK@Z 0045c5e0 f   RD1Engined:RD1Engine.obj
 0001:0005b900       ?_Alloc_proxy@?$_Tree_comp_alloc@V?$_Tmap_traits@HUPosModify@@U?$less@H@std@@V?$allocator@U?$pair@$$CBHUPosModify@@@std@@@3@$0A@@std@@@std@@QAEXXZ 0045c900 f i RD1Engined:RD1Engine.obj
 0001:0005b9f0       ?_Alloc_proxy@?$_Vector_alloc@U?$_Vec_base_types@PAVFrameManager@@V?$allocator@PAVFrameManager@@@std@@@std@@@std@@QAEXXZ 0045c9f0 f i RD1Engined:RD1Engine.obj
 0001:0005bae0       ?_Alloc_proxy@?$_Vector_alloc@U?$_Vec_base_types@UtagRECT@@V?$allocator@UtagRECT@@@std@@@std@@@std@@QAEXXZ 0045cae0 f i RD1Engined:RD1Engine.obj
 0001:0005bbd0       ?_Buy@?$vector@PAVFrameManager@@V?$allocator@PAVFrameManager@@@std@@@std@@IAE_NI@Z 0045cbd0 f i RD1Engined:RD1Engine.obj
 0001:0005bcb0       ?_Buyheadnode@?$_Tree_comp_alloc@V?$_Tmap_traits@HUPosModify@@U?$less@H@std@@V?$allocator@U?$pair@$$CBHUPosModify@@@std@@@3@$0A@@std@@@std@@QAEPAU?$_Tree_node@U?$pair@$$CBHUPosModify@@@std@@PAX@2@XZ 0045ccb0 f i RD1Engined:RD1Engine.obj
 0001:0005be60       ?_Buynode0@?$_Tree_comp_alloc@V?$_Tmap_traits@HUPosModify@@U?$less@H@std@@V?$allocator@U?$pair@$$CBHUPosModify@@@std@@@3@$0A@@std@@@std@@QAEPAU?$_Tree_node@U?$pair@$$CBHUPosModify@@@std@@PAX@2@XZ 0045ce60 f i RD1Engined:RD1Engine.obj
 0001:0005bfd0       ?_Color@?$_Tree_comp_alloc@V?$_Tmap_traits@HUPosModify@@U?$less@H@std@@V?$allocator@U?$pair@$$CBHUPosModify@@@std@@@3@$0A@@std@@@std@@SAAADPAU?$_Tree_node@U?$pair@$$CBHUPosModify@@@std@@PAX@2@@Z 0045cfd0 f i RD1Engined:RD1Engine.obj
 0001:0005c010       ?_Color@?$_Tree_val@U?$_Tree_simple_types@U?$pair@$$CBHUPosModify@@@std@@@std@@@std@@SAAADPAU?$_Tree_node@U?$pair@$$CBHUPosModify@@@std@@PAX@2@@Z 0045d010 f i RD1Engined:RD1Engine.obj
 0001:0005c040       ?_Compare@?$_Tree@V?$_Tmap_traits@HUPosModify@@U?$less@H@std@@V?$allocator@U?$pair@$$CBHUPosModify@@@std@@@3@$0A@@std@@@std@@IBE_NABH0@Z 0045d040 f i RD1Engined:RD1Engine.obj
 0001:0005c0a0       ?_Construct@?$_Tree_comp_alloc@V?$_Tmap_traits@HUPosModify@@U?$less@H@std@@V?$allocator@U?$pair@$$CBHUPosModify@@@std@@@3@$0A@@std@@@std@@QAEXXZ 0045d0a0 f i RD1Engined:RD1Engine.obj
 0001:0005c160       ?_Destroy@?$vector@PAVFrameManager@@V?$allocator@PAVFrameManager@@@std@@@std@@IAEXPAPAVFrameManager@@0@Z 0045d160 f i RD1Engined:RD1Engine.obj
 0001:0005c1c0       ?_Destroy@?$vector@UtagRECT@@V?$allocator@UtagRECT@@@std@@@std@@IAEXPAUtagRECT@@0@Z 0045d1c0 f i RD1Engined:RD1Engine.obj
 0001:0005c220       ?_Destroy_if_not_nil@?$_Tree@V?$_Tmap_traits@HUPosModify@@U?$less@H@std@@V?$allocator@U?$pair@$$CBHUPosModify@@@std@@@3@$0A@@std@@@std@@IAEXPAU?$_Tree_node@U?$pair@$$CBHUPosModify@@@std@@PAX@2@@Z 0045d220 f i RD1Engined:RD1Engine.obj
 0001:0005c2a0       ?_Erase@?$_Tree@V?$_Tmap_traits@HUPosModify@@U?$less@H@std@@V?$allocator@U?$pair@$$CBHUPosModify@@@std@@@3@$0A@@std@@@std@@IAEXPAU?$_Tree_node@U?$pair@$$CBHUPosModify@@@std@@PAX@2@@Z 0045d2a0 f i RD1Engined:RD1Engine.obj
 0001:0005c360       ?_Free_proxy@?$_Tree_comp_alloc@V?$_Tmap_traits@HUPosModify@@U?$less@H@std@@V?$allocator@U?$pair@$$CBHUPosModify@@@std@@@3@$0A@@std@@@std@@QAEXXZ 0045d360 f i RD1Engined:RD1Engine.obj
 0001:0005c440       ?_Free_proxy@?$_Vector_alloc@U?$_Vec_base_types@PAVFrameManager@@V?$allocator@PAVFrameManager@@@std@@@std@@@std@@QAEXXZ 0045d440 f i RD1Engined:RD1Engine.obj
 0001:0005c520       ?_Free_proxy@?$_Vector_alloc@U?$_Vec_base_types@UtagRECT@@V?$allocator@UtagRECT@@@std@@@std@@@std@@QAEXXZ 0045d520 f i RD1Engined:RD1Engine.obj
 0001:0005c600       ?_Freeheadnode@?$_Tree_comp_alloc@V?$_Tmap_traits@HUPosModify@@U?$less@H@std@@V?$allocator@U?$pair@$$CBHUPosModify@@@std@@@3@$0A@@std@@@std@@QAEXPAU?$_Tree_node@U?$pair@$$CBHUPosModify@@@std@@PAX@2@@Z 0045d600 f i RD1Engined:RD1Engine.obj
 0001:0005c6c0       ?_Freenode0@?$_Tree_comp_alloc@V?$_Tmap_traits@HUPosModify@@U?$less@H@std@@V?$allocator@U?$pair@$$CBHUPosModify@@@std@@@3@$0A@@std@@@std@@QAEXPAU?$_Tree_node@U?$pair@$$CBHUPosModify@@@std@@PAX@2@@Z 0045d6c0 f i RD1Engined:RD1Engine.obj
 0001:0005c780       ?_Get_data@?$_Tree_comp_alloc@V?$_Tmap_traits@HUPosModify@@U?$less@H@std@@V?$allocator@U?$pair@$$CBHUPosModify@@@std@@@3@$0A@@std@@@std@@QAEAAV?$_Tree_val@U?$_Tree_simple_types@U?$pair@$$CBHUPosModify@@@std@@@std@@@2@XZ 0045d780 f i RD1Engined:RD1Engine.obj
 0001:0005c7d0       ?_Get_data@?$_Tree_comp_alloc@V?$_Tmap_traits@HUPosModify@@U?$less@H@std@@V?$allocator@U?$pair@$$CBHUPosModify@@@std@@@3@$0A@@std@@@std@@QBEABV?$_Tree_val@U?$_Tree_simple_types@U?$pair@$$CBHUPosModify@@@std@@@std@@@2@XZ 0045d7d0 f i RD1Engined:RD1Engine.obj
 0001:0005c820       ?_Get_data@?$_Vector_alloc@U?$_Vec_base_types@UtagRECT@@V?$allocator@UtagRECT@@@std@@@std@@@std@@QAEAAV?$_Vector_val@U?$_Simple_types@UtagRECT@@@std@@@2@XZ 0045d820 f i RD1Engined:RD1Engine.obj
 0001:0005c860       ?_Get_first@?$_Compressed_pair@U?$_Wrap_alloc@V?$allocator@PAVFrameManager@@@std@@@std@@V?$_Vector_val@U?$_Simple_types@PAVFrameManager@@@std@@@2@$00@std@@QAEAAU?$_Wrap_alloc@V?$allocator@PAVFrameManager@@@std@@@2@XZ 0045d860 f i RD1Engined:RD1Engine.obj
 0001:0005c890       ?_Get_first@?$_Compressed_pair@U?$_Wrap_alloc@V?$allocator@PAVFrameManager@@@std@@@std@@V?$_Vector_val@U?$_Simple_types@PAVFrameManager@@@std@@@2@$00@std@@QBEABU?$_Wrap_alloc@V?$allocator@PAVFrameManager@@@std@@@2@XZ 0045d890 f i RD1Engined:RD1Engine.obj
 0001:0005c8c0       ?_Get_first@?$_Compressed_pair@U?$_Wrap_alloc@V?$allocator@U?$_Tree_node@U?$pair@$$CBHUPosModify@@@std@@PAX@std@@@std@@@std@@V?$_Tree_val@U?$_Tree_simple_types@U?$pair@$$CBHUPosModify@@@std@@@std@@@2@$00@std@@QAEAAU?$_Wrap_alloc@V?$allocator@U?$_Tree_node@U?$pair@$$CBHUPosModify@@@std@@PAX@std@@@std@@@2@XZ 0045d8c0 f i RD1Engined:RD1Engine.obj
 0001:0005c8f0       ?_Get_first@?$_Compressed_pair@U?$_Wrap_alloc@V?$allocator@U?$_Tree_node@U?$pair@$$CBHUPosModify@@@std@@PAX@std@@@std@@@std@@V?$_Tree_val@U?$_Tree_simple_types@U?$pair@$$CBHUPosModify@@@std@@@std@@@2@$00@std@@QBEABU?$_Wrap_alloc@V?$allocator@U?$_Tree_node@U?$pair@$$CBHUPosModify@@@std@@PAX@std@@@std@@@2@XZ 0045d8f0 f i RD1Engined:RD1Engine.obj
 0001:0005c920       ?_Get_first@?$_Compressed_pair@U?$_Wrap_alloc@V?$allocator@UtagRECT@@@std@@@std@@V?$_Vector_val@U?$_Simple_types@UtagRECT@@@std@@@2@$00@std@@QAEAAU?$_Wrap_alloc@V?$allocator@UtagRECT@@@std@@@2@XZ 0045d920 f i RD1Engined:RD1Engine.obj
 0001:0005c950       ?_Get_first@?$_Compressed_pair@U?$less@H@std@@V?$_Compressed_pair@U?$_Wrap_alloc@V?$allocator@U?$_Tree_node@U?$pair@$$CBHUPosModify@@@std@@PAX@std@@@std@@@std@@V?$_Tree_val@U?$_Tree_simple_types@U?$pair@$$CBHUPosModify@@@std@@@std@@@2@$00@2@$00@std@@QAEAAU?$less@H@2@XZ 0045d950 f i RD1Engined:RD1Engine.obj
 0001:0005c980       ?_Get_first@?$_Compressed_pair@U?$less@H@std@@V?$_Compressed_pair@U?$_Wrap_alloc@V?$allocator@U?$_Tree_node@U?$pair@$$CBHUPosModify@@@std@@PAX@std@@@std@@@std@@V?$_Tree_val@U?$_Tree_simple_types@U?$pair@$$CBHUPosModify@@@std@@@std@@@2@$00@2@$00@std@@QBEABU?$less@H@2@XZ 0045d980 f i RD1Engined:RD1Engine.obj
 0001:0005c9b0       ?_Get_second@?$_Compressed_pair@U?$_Wrap_alloc@V?$allocator@U?$_Tree_node@U?$pair@$$CBHUPosModify@@@std@@PAX@std@@@std@@@std@@V?$_Tree_val@U?$_Tree_simple_types@U?$pair@$$CBHUPosModify@@@std@@@std@@@2@$00@std@@QAEAAV?$_Tree_val@U?$_Tree_simple_types@U?$pair@$$CBHUPosModify@@@std@@@std@@@2@XZ 0045d9b0 f i RD1Engined:RD1Engine.obj
 0001:0005c9e0       ?_Get_second@?$_Compressed_pair@U?$_Wrap_alloc@V?$allocator@U?$_Tree_node@U?$pair@$$CBHUPosModify@@@std@@PAX@std@@@std@@@std@@V?$_Tree_val@U?$_Tree_simple_types@U?$pair@$$CBHUPosModify@@@std@@@std@@@2@$00@std@@QBEABV?$_Tree_val@U?$_Tree_simple_types@U?$pair@$$CBHUPosModify@@@std@@@std@@@2@XZ 0045d9e0 f i RD1Engined:RD1Engine.obj
 0001:0005ca10       ?_Get_second@?$_Compressed_pair@U?$_Wrap_alloc@V?$allocator@UtagRECT@@@std@@@std@@V?$_Vector_val@U?$_Simple_types@UtagRECT@@@std@@@2@$00@std@@QAEAAV?$_Vector_val@U?$_Simple_types@UtagRECT@@@std@@@2@XZ 0045da10 f i RD1Engined:RD1Engine.obj
 0001:0005ca40       ?_Get_second@?$_Compressed_pair@U?$less@H@std@@V?$_Compressed_pair@U?$_Wrap_alloc@V?$allocator@U?$_Tree_node@U?$pair@$$CBHUPosModify@@@std@@PAX@std@@@std@@@std@@V?$_Tree_val@U?$_Tree_simple_types@U?$pair@$$CBHUPosModify@@@std@@@std@@@2@$00@2@$00@std@@QAEAAV?$_Compressed_pair@U?$_Wrap_alloc@V?$allocator@U?$_Tree_node@U?$pair@$$CBHUPosModify@@@std@@PAX@std@@@std@@@std@@V?$_Tree_val@U?$_Tree_simple_types@U?$pair@$$CBHUPosModify@@@std@@@std@@@2@$00@2@XZ 0045da40 f i RD1Engined:RD1Engine.obj
 0001:0005ca70       ?_Get_second@?$_Compressed_pair@U?$less@H@std@@V?$_Compressed_pair@U?$_Wrap_alloc@V?$allocator@U?$_Tree_node@U?$pair@$$CBHUPosModify@@@std@@PAX@std@@@std@@@std@@V?$_Tree_val@U?$_Tree_simple_types@U?$pair@$$CBHUPosModify@@@std@@@std@@@2@$00@2@$00@std@@QBEABV?$_Compressed_pair@U?$_Wrap_alloc@V?$allocator@U?$_Tree_node@U?$pair@$$CBHUPosModify@@@std@@PAX@std@@@std@@@std@@V?$_Tree_val@U?$_Tree_simple_types@U?$pair@$$CBHUPosModify@@@std@@@std@@@2@$00@2@XZ 0045da70 f i RD1Engined:RD1Engine.obj
 0001:0005caa0       ?_Getal@?$_Tree_comp_alloc@V?$_Tmap_traits@HUPosModify@@U?$less@H@std@@V?$allocator@U?$pair@$$CBHUPosModify@@@std@@@3@$0A@@std@@@std@@QAEAAU?$_Wrap_alloc@V?$allocator@U?$_Tree_node@U?$pair@$$CBHUPosModify@@@std@@PAX@std@@@std@@@2@XZ 0045daa0 f i RD1Engined:RD1Engine.obj
 0001:0005caf0       ?_Getal@?$_Tree_comp_alloc@V?$_Tmap_traits@HUPosModify@@U?$less@H@std@@V?$allocator@U?$pair@$$CBHUPosModify@@@std@@@3@$0A@@std@@@std@@QBEABU?$_Wrap_alloc@V?$allocator@U?$_Tree_node@U?$pair@$$CBHUPosModify@@@std@@PAX@std@@@std@@@2@XZ 0045daf0 f i RD1Engined:RD1Engine.obj
 0001:0005cb40       ?_Getal@?$_Vector_alloc@U?$_Vec_base_types@PAVFrameManager@@V?$allocator@PAVFrameManager@@@std@@@std@@@std@@QAEAAU?$_Wrap_alloc@V?$allocator@PAVFrameManager@@@std@@@2@XZ 0045db40 f i RD1Engined:RD1Engine.obj
 0001:0005cb80       ?_Getal@?$_Vector_alloc@U?$_Vec_base_types@PAVFrameManager@@V?$allocator@PAVFrameManager@@@std@@@std@@@std@@QBEABU?$_Wrap_alloc@V?$allocator@PAVFrameManager@@@std@@@2@XZ 0045db80 f i RD1Engined:RD1Engine.obj
 0001:0005cbc0       ?_Getal@?$_Vector_alloc@U?$_Vec_base_types@UtagRECT@@V?$allocator@UtagRECT@@@std@@@std@@@std@@QAEAAU?$_Wrap_alloc@V?$allocator@UtagRECT@@@std@@@2@XZ 0045dbc0 f i RD1Engined:RD1Engine.obj
 0001:0005cc00       ?_Getcomp@?$_Tree_comp_alloc@V?$_Tmap_traits@HUPosModify@@U?$less@H@std@@V?$allocator@U?$pair@$$CBHUPosModify@@@std@@@3@$0A@@std@@@std@@QAEAAU?$less@H@2@XZ 0045dc00 f i RD1Engined:RD1Engine.obj
 0001:0005cc40       ?_Getcomp@?$_Tree_comp_alloc@V?$_Tmap_traits@HUPosModify@@U?$less@H@std@@V?$allocator@U?$pair@$$CBHUPosModify@@@std@@@3@$0A@@std@@@std@@QBEABU?$less@H@2@XZ 0045dc40 f i RD1Engined:RD1Engine.obj
 0001:0005cc80       ?_Getpfirst@?$_Tree_comp_alloc@V?$_Tmap_traits@HUPosModify@@U?$less@H@std@@V?$allocator@U?$pair@$$CBHUPosModify@@@std@@@3@$0A@@std@@@std@@QBEPAPAU_Iterator_base12@2@XZ 0045dc80 f i RD1Engined:RD1Engine.obj
 0001:0005ccd0       ?_Isnil@?$_Tree_comp_alloc@V?$_Tmap_traits@HUPosModify@@U?$less@H@std@@V?$allocator@U?$pair@$$CBHUPosModify@@@std@@@3@$0A@@std@@@std@@SAAADPAU?$_Tree_node@U?$pair@$$CBHUPosModify@@@std@@PAX@2@@Z 0045dcd0 f i RD1Engined:RD1Engine.obj
 0001:0005cd10       ?_Isnil@?$_Tree_val@U?$_Tree_simple_types@U?$pair@$$CBHUPosModify@@@std@@@std@@@std@@SAAADPAU?$_Tree_node@U?$pair@$$CBHUPosModify@@@std@@PAX@2@@Z 0045dd10 f i RD1Engined:RD1Engine.obj
 0001:0005cd40       ?_Key@?$_Tree@V?$_Tmap_traits@HUPosModify@@U?$less@H@std@@V?$allocator@U?$pair@$$CBHUPosModify@@@std@@@3@$0A@@std@@@std@@IBEABHPAU?$_Tree_node@U?$pair@$$CBHUPosModify@@@std@@PAX@2@@Z 0045dd40 f i RD1Engined:RD1Engine.obj
 0001:0005cd90       ?_Kfn@?$_Tree@V?$_Tmap_traits@HUPosModify@@U?$less@H@std@@V?$allocator@U?$pair@$$CBHUPosModify@@@std@@@3@$0A@@std@@@std@@IBEABHABU?$pair@$$CBHUPosModify@@@2@@Z 0045dd90 f i RD1Engined:RD1Engine.obj
 0001:0005cde0       ?_Left@?$_Tree_comp_alloc@V?$_Tmap_traits@HUPosModify@@U?$less@H@std@@V?$allocator@U?$pair@$$CBHUPosModify@@@std@@@3@$0A@@std@@@std@@SAAAPAU?$_Tree_node@U?$pair@$$CBHUPosModify@@@std@@PAX@2@PAU32@@Z 0045dde0 f i RD1Engined:RD1Engine.obj
 0001:0005ce20       ?_Left@?$_Tree_val@U?$_Tree_simple_types@U?$pair@$$CBHUPosModify@@@std@@@std@@@std@@SAAAPAU?$_Tree_node@U?$pair@$$CBHUPosModify@@@std@@PAX@2@PAU32@@Z 0045de20 f i RD1Engined:RD1Engine.obj
 0001:0005ce50       ?_Lmost@?$_Tree@V?$_Tmap_traits@HUPosModify@@U?$less@H@std@@V?$allocator@U?$pair@$$CBHUPosModify@@@std@@@3@$0A@@std@@@std@@IBEAAPAU?$_Tree_node@U?$pair@$$CBHUPosModify@@@std@@PAX@2@XZ 0045de50 f i RD1Engined:RD1Engine.obj
 0001:0005cea0       ?_Lrotate@?$_Tree@V?$_Tmap_traits@HUPosModify@@U?$less@H@std@@V?$allocator@U?$pair@$$CBHUPosModify@@@std@@@3@$0A@@std@@@std@@IAEXPAU?$_Tree_node@U?$pair@$$CBHUPosModify@@@std@@PAX@2@@Z 0045dea0 f i RD1Engined:RD1Engine.obj
 0001:0005d000       ?_Max@?$_Tree_comp_alloc@V?$_Tmap_traits@HUPosModify@@U?$less@H@std@@V?$allocator@U?$pair@$$CBHUPosModify@@@std@@@3@$0A@@std@@@std@@SAPAU?$_Tree_node@U?$pair@$$CBHUPosModify@@@std@@PAX@2@PAU32@@Z 0045e000 f i RD1Engined:RD1Engine.obj
 0001:0005d040       ?_Max@?$_Tree_val@U?$_Tree_simple_types@U?$pair@$$CBHUPosModify@@@std@@@std@@@std@@SAPAU?$_Tree_node@U?$pair@$$CBHUPosModify@@@std@@PAX@2@PAU32@@Z 0045e040 f i RD1Engined:RD1Engine.obj
 0001:0005d0b0       ?_Min@?$_Tree_comp_alloc@V?$_Tmap_traits@HUPosModify@@U?$less@H@std@@V?$allocator@U?$pair@$$CBHUPosModify@@@std@@@3@$0A@@std@@@std@@SAPAU?$_Tree_node@U?$pair@$$CBHUPosModify@@@std@@PAX@2@PAU32@@Z 0045e0b0 f i RD1Engined:RD1Engine.obj
 0001:0005d0f0       ?_Min@?$_Tree_val@U?$_Tree_simple_types@U?$pair@$$CBHUPosModify@@@std@@@std@@@std@@SAPAU?$_Tree_node@U?$pair@$$CBHUPosModify@@@std@@PAX@2@PAU32@@Z 0045e0f0 f i RD1Engined:RD1Engine.obj
 0001:0005d160       ?_Myend@?$_Vector_alloc@U?$_Vec_base_types@PAVFrameManager@@V?$allocator@PAVFrameManager@@@std@@@std@@@std@@QAEAAPAPAVFrameManager@@XZ 0045e160 f i RD1Engined:RD1Engine.obj
 0001:0005d1b0       ?_Myend@?$_Vector_alloc@U?$_Vec_base_types@UtagRECT@@V?$allocator@UtagRECT@@@std@@@std@@@std@@QAEAAPAUtagRECT@@XZ 0045e1b0 f i RD1Engined:RD1Engine.obj
 0001:0005d200       ?_Myfirst@?$_Vector_alloc@U?$_Vec_base_types@UtagRECT@@V?$allocator@UtagRECT@@@std@@@std@@@std@@QAEAAPAUtagRECT@@XZ 0045e200 f i RD1Engined:RD1Engine.obj
 0001:0005d250       ?_Myhead@?$_Tree_comp_alloc@V?$_Tmap_traits@HUPosModify@@U?$less@H@std@@V?$allocator@U?$pair@$$CBHUPosModify@@@std@@@3@$0A@@std@@@std@@QAEAAPAU?$_Tree_node@U?$pair@$$CBHUPosModify@@@std@@PAX@2@XZ 0045e250 f i RD1Engined:RD1Engine.obj
 0001:0005d2a0       ?_Myhead@?$_Tree_comp_alloc@V?$_Tmap_traits@HUPosModify@@U?$less@H@std@@V?$allocator@U?$pair@$$CBHUPosModify@@@std@@@3@$0A@@std@@@std@@QBEABQAU?$_Tree_node@U?$pair@$$CBHUPosModify@@@std@@PAX@2@XZ 0045e2a0 f i RD1Engined:RD1Engine.obj
 0001:0005d2f0       ?_Mylast@?$_Vector_alloc@U?$_Vec_base_types@PAVFrameManager@@V?$allocator@PAVFrameManager@@@std@@@std@@@std@@QAEAAPAPAVFrameManager@@XZ 0045e2f0 f i RD1Engined:RD1Engine.obj
 0001:0005d340       ?_Mylast@?$_Vector_alloc@U?$_Vec_base_types@UtagRECT@@V?$allocator@UtagRECT@@@std@@@std@@@std@@QAEAAPAUtagRECT@@XZ 0045e340 f i RD1Engined:RD1Engine.obj
 0001:0005d390       ?_Mynode@?$_Tree_unchecked_const_iterator@V?$_Tree_val@U?$_Tree_simple_types@U?$pair@$$CBHUPosModify@@@std@@@std@@@std@@U_Iterator_base12@2@@std@@QBEPAU?$_Tree_node@U?$pair@$$CBHUPosModify@@@std@@PAX@2@XZ 0045e390 f i RD1Engined:RD1Engine.obj
 0001:0005d3c0       ?_Myproxy@?$_Tree_comp_alloc@V?$_Tmap_traits@HUPosModify@@U?$less@H@std@@V?$allocator@U?$pair@$$CBHUPosModify@@@std@@@3@$0A@@std@@@std@@QAEAAPAU_Container_proxy@2@XZ 0045e3c0 f i RD1Engined:RD1Engine.obj
 0001:0005d400       ?_Myproxy@?$_Vector_alloc@U?$_Vec_base_types@PAVFrameManager@@V?$allocator@PAVFrameManager@@@std@@@std@@@std@@QAEAAPAU_Container_proxy@2@XZ 0045e400 f i RD1Engined:RD1Engine.obj
 0001:0005d440       ?_Myproxy@?$_Vector_alloc@U?$_Vec_base_types@UtagRECT@@V?$allocator@UtagRECT@@@std@@@std@@@std@@QAEAAPAU_Container_proxy@2@XZ 0045e440 f i RD1Engined:RD1Engine.obj
 0001:0005d480       ?_Mysize@?$_Tree_comp_alloc@V?$_Tmap_traits@HUPosModify@@U?$less@H@std@@V?$allocator@U?$pair@$$CBHUPosModify@@@std@@@3@$0A@@std@@@std@@QAEAAIXZ 0045e480 f i RD1Engined:RD1Engine.obj
 0001:0005d4d0       ?_Mysize@?$_Tree_comp_alloc@V?$_Tmap_traits@HUPosModify@@U?$less@H@std@@V?$allocator@U?$pair@$$CBHUPosModify@@@std@@@3@$0A@@std@@@std@@QBEABIXZ 0045e4d0 f i RD1Engined:RD1Engine.obj
 0001:0005d520       ?_Myval@?$_Tree_comp_alloc@V?$_Tmap_traits@HUPosModify@@U?$less@H@std@@V?$allocator@U?$pair@$$CBHUPosModify@@@std@@@3@$0A@@std@@@std@@SAAAU?$pair@$$CBHUPosModify@@@2@PAU?$_Tree_node@U?$pair@$$CBHUPosModify@@@std@@PAX@2@@Z 0045e520 f i RD1Engined:RD1Engine.obj
 0001:0005d560       ?_Myval@?$_Tree_val@U?$_Tree_simple_types@U?$pair@$$CBHUPosModify@@@std@@@std@@@std@@SAAAU?$pair@$$CBHUPosModify@@@2@PAU?$_Tree_node@U?$pair@$$CBHUPosModify@@@std@@PAX@2@@Z 0045e560 f i RD1Engined:RD1Engine.obj
 0001:0005d590       ?_Orphan_all@?$_Tree_comp_alloc@V?$_Tmap_traits@HUPosModify@@U?$less@H@std@@V?$allocator@U?$pair@$$CBHUPosModify@@@std@@@3@$0A@@std@@@std@@QAEXXZ 0045e590 f i RD1Engined:RD1Engine.obj
 0001:0005d5e0       ?_Orphan_all@?$_Vector_alloc@U?$_Vec_base_types@PAVFrameManager@@V?$allocator@PAVFrameManager@@@std@@@std@@@std@@QAEXXZ 0045e5e0 f i RD1Engined:RD1Engine.obj
 0001:0005d630       ?_Orphan_all@?$_Vector_alloc@U?$_Vec_base_types@UtagRECT@@V?$allocator@UtagRECT@@@std@@@std@@@std@@QAEXXZ 0045e630 f i RD1Engined:RD1Engine.obj
 0001:0005d680       ?_Orphan_ptr@?$_Tree@V?$_Tmap_traits@HUPosModify@@U?$less@H@std@@V?$allocator@U?$pair@$$CBHUPosModify@@@std@@@3@$0A@@std@@@std@@IAEXPAU?$_Tree_node@U?$pair@$$CBHUPosModify@@@std@@PAX@2@@Z 0045e680 f i RD1Engined:RD1Engine.obj
 0001:0005d7c0       ?_Parent@?$_Tree_comp_alloc@V?$_Tmap_traits@HUPosModify@@U?$less@H@std@@V?$allocator@U?$pair@$$CBHUPosModify@@@std@@@3@$0A@@std@@@std@@SAAAPAU?$_Tree_node@U?$pair@$$CBHUPosModify@@@std@@PAX@2@PAU32@@Z 0045e7c0 f i RD1Engined:RD1Engine.obj
 0001:0005d800       ?_Parent@?$_Tree_val@U?$_Tree_simple_types@U?$pair@$$CBHUPosModify@@@std@@@std@@@std@@SAAAPAU?$_Tree_node@U?$pair@$$CBHUPosModify@@@std@@PAX@2@PAU32@@Z 0045e800 f i RD1Engined:RD1Engine.obj
 0001:0005d830       ?_Right@?$_Tree_comp_alloc@V?$_Tmap_traits@HUPosModify@@U?$less@H@std@@V?$allocator@U?$pair@$$CBHUPosModify@@@std@@@3@$0A@@std@@@std@@SAAAPAU?$_Tree_node@U?$pair@$$CBHUPosModify@@@std@@PAX@2@PAU32@@Z 0045e830 f i RD1Engined:RD1Engine.obj
 0001:0005d870       ?_Right@?$_Tree_val@U?$_Tree_simple_types@U?$pair@$$CBHUPosModify@@@std@@@std@@@std@@SAAAPAU?$_Tree_node@U?$pair@$$CBHUPosModify@@@std@@PAX@2@PAU32@@Z 0045e870 f i RD1Engined:RD1Engine.obj
 0001:0005d8a0       ?_Rmost@?$_Tree@V?$_Tmap_traits@HUPosModify@@U?$less@H@std@@V?$allocator@U?$pair@$$CBHUPosModify@@@std@@@3@$0A@@std@@@std@@IBEAAPAU?$_Tree_node@U?$pair@$$CBHUPosModify@@@std@@PAX@2@XZ 0045e8a0 f i RD1Engined:RD1Engine.obj
 0001:0005d8f0       ?_Root@?$_Tree@V?$_Tmap_traits@HUPosModify@@U?$less@H@std@@V?$allocator@U?$pair@$$CBHUPosModify@@@std@@@3@$0A@@std@@@std@@IBEAAPAU?$_Tree_node@U?$pair@$$CBHUPosModify@@@std@@PAX@2@XZ 0045e8f0 f i RD1Engined:RD1Engine.obj
 0001:0005d940       ?_Rrotate@?$_Tree@V?$_Tmap_traits@HUPosModify@@U?$less@H@std@@V?$allocator@U?$pair@$$CBHUPosModify@@@std@@@3@$0A@@std@@@std@@IAEXPAU?$_Tree_node@U?$pair@$$CBHUPosModify@@@std@@PAX@2@@Z 0045e940 f i RD1Engined:RD1Engine.obj
 0001:0005daa0       ?_Tidy@?$_Tree@V?$_Tmap_traits@HUPosModify@@U?$less@H@std@@V?$allocator@U?$pair@$$CBHUPosModify@@@std@@@3@$0A@@std@@@std@@IAEXXZ 0045eaa0 f i RD1Engined:RD1Engine.obj
 0001:0005dbe0       ?_Tidy@?$vector@PAVFrameManager@@V?$allocator@PAVFrameManager@@@std@@@std@@IAEXXZ 0045ebe0 f i RD1Engined:RD1Engine.obj
 0001:0005dcb0       ?_Tidy@?$vector@UtagRECT@@V?$allocator@UtagRECT@@@std@@@std@@IAEXXZ 0045ecb0 f i RD1Engined:RD1Engine.obj
 0001:0005dd80       ?_Unchecked@?$_Vector_const_iterator@V?$_Vector_val@U?$_Simple_types@PAVFrameManager@@@std@@@std@@@std@@QBEPBQAVFrameManager@@XZ 0045ed80 f i RD1Engined:RD1Engine.obj
 0001:0005ddb0       ?_Xlen@?$vector@PAVFrameManager@@V?$allocator@PAVFrameManager@@@std@@@std@@IBEXXZ 0045edb0 f i RD1Engined:RD1Engine.obj
 0001:0005de00       ?_Xran@?$vector@UnEnemyList@@V?$allocator@UnEnemyList@@@std@@@std@@IBEXXZ 0045ee00 f i RD1Engined:RD1Engine.obj
 0001:0005de50       ?_Xran@?$vector@VvDoor@@V?$allocator@VvDoor@@@std@@@std@@IBEXXZ 0045ee50 f i RD1Engined:RD1Engine.obj
 0001:0005dea0       ?__autoclassinit2@?$_Tree_const_iterator@V?$_Tree_val@U?$_Tree_simple_types@U?$pair@$$CBHUPosModify@@@std@@@std@@@std@@@std@@QAEXI@Z 0045eea0 f i RD1Engined:RD1Engine.obj
 0001:0005def0       ?__autoclassinit2@?$_Tree_iterator@V?$_Tree_val@U?$_Tree_simple_types@U?$pair@$$CBHUPosModify@@@std@@@std@@@std@@@std@@QAEXI@Z 0045eef0 f i RD1Engined:RD1Engine.obj
 0001:0005df40       ?__autoclassinit2@?$_Tree_iterator@V?$_Tree_val@U?$_Tree_simple_types@U?$pair@$$CBHV?$vector@KV?$allocator@K@std@@@std@@@std@@@std@@@std@@@std@@QAEXI@Z 0045ef40 f i RD1Engined:RD1Engine.obj
 0001:0005df90       ?__autoclassinit2@?$vector@PAVFrameManager@@V?$allocator@PAVFrameManager@@@std@@@std@@QAEXI@Z 0045ef90 f i RD1Engined:RD1Engine.obj
 0001:0005dfe0       ?__autoclassinit2@?$vector@UtagRECT@@V?$allocator@UtagRECT@@@std@@@std@@QAEXI@Z 0045efe0 f i RD1Engined:RD1Engine.obj
 0001:0005e030       ?__autoclassinit2@AreasManager@@QAEXI@Z 0045f030 f i RD1Engined:RD1Engine.obj
 0001:0005e080       ?__autoclassinit2@BackBuffer@@QAEXI@Z 0045f080 f i RD1Engined:RD1Engine.obj
 0001:0005e0d0       ?__autoclassinit2@DoorManager@@QAEXI@Z 0045f0d0 f i RD1Engined:RD1Engine.obj
 0001:0005e120       ?__autoclassinit2@MetroidFusion@@QAEXI@Z 0045f120 f i RD1Engined:RD1Engine.obj
 0001:0005e170       ?__autoclassinit2@RoomClass@@QAEXI@Z 0045f170 f i RD1Engined:RD1Engine.obj
 0001:0005e1c0       ?__autoclassinit2@TilesetManager@@QAEXI@Z 0045f1c0 f i RD1Engined:RD1Engine.obj
 0001:0005e210       ?__autoclassinit2@ZeroMission@@QAEXI@Z 0045f210 f i RD1Engined:RD1Engine.obj
 0001:0005e260       ?__autoclassinit2@cOAMManager@@QAEXI@Z 0045f260 f i RD1Engined:RD1Engine.obj
 0001:0005e2b0       ?__autoclassinit2@clsRoomScrolls@@QAEXI@Z 0045f2b0 f i RD1Engined:RD1Engine.obj
 0001:0005e300       ?allocate@?$_Wrap_alloc@V?$allocator@PAVFrameManager@@@std@@@std@@QAEPAPAVFrameManager@@I@Z 0045f300 f i RD1Engined:RD1Engine.obj
 0001:0005e350       ?allocate@?$_Wrap_alloc@V?$allocator@U?$_Tree_node@U?$pair@$$CBHUPosModify@@@std@@PAX@std@@@std@@@std@@QAEPAU?$_Tree_node@U?$pair@$$CBHUPosModify@@@std@@PAX@2@I@Z 0045f350 f i RD1Engined:RD1Engine.obj
 0001:0005e3a0       ?allocate@?$allocator@PAVFrameManager@@@std@@QAEPAPAVFrameManager@@I@Z 0045f3a0 f i RD1Engined:RD1Engine.obj
 0001:0005e3f0       ?allocate@?$allocator@U?$_Tree_node@U?$pair@$$CBHUPosModify@@@std@@PAX@std@@@std@@QAEPAU?$_Tree_node@U?$pair@$$CBHUPosModify@@@std@@PAX@2@I@Z 0045f3f0 f i RD1Engined:RD1Engine.obj
 0001:0005e440       ?at@?$map@HV?$vector@KV?$allocator@K@std@@@std@@U?$less@H@2@V?$allocator@U?$pair@$$CBHV?$vector@KV?$allocator@K@std@@@std@@@std@@@2@@std@@QAEAAV?$vector@KV?$allocator@K@std@@@2@ABH@Z 0045f440 f i RD1Engined:RD1Engine.obj
 0001:0005e610       ?at@?$vector@UnEnemyList@@V?$allocator@UnEnemyList@@@std@@@std@@QAEAAUnEnemyList@@I@Z 0045f610 f i RD1Engined:RD1Engine.obj
 0001:0005e670       ?at@?$vector@VvDoor@@V?$allocator@VvDoor@@@std@@@std@@QAEAAVvDoor@@I@Z 0045f670 f i RD1Engined:RD1Engine.obj
 0001:0005e6d0       ?begin@?$_Tree@V?$_Tmap_traits@HUPosModify@@U?$less@H@std@@V?$allocator@U?$pair@$$CBHUPosModify@@@std@@@3@$0A@@std@@@std@@QAE?AV?$_Tree_iterator@V?$_Tree_val@U?$_Tree_simple_types@U?$pair@$$CBHUPosModify@@@std@@@std@@@std@@@2@XZ 0045f6d0 f i RD1Engined:RD1Engine.obj
 0001:0005e760       ?begin@?$vector@PAVFrameManager@@V?$allocator@PAVFrameManager@@@std@@@std@@QBE?AV?$_Vector_const_iterator@V?$_Vector_val@U?$_Simple_types@PAVFrameManager@@@std@@@std@@@2@XZ 0045f760 f i RD1Engined:RD1Engine.obj
 0001:0005e7f0       ?clear@?$_Tree@V?$_Tmap_traits@HUPosModify@@U?$less@H@std@@V?$allocator@U?$pair@$$CBHUPosModify@@@std@@@3@$0A@@std@@@std@@QAEXXZ 0045f7f0 f i RD1Engined:RD1Engine.obj
 0001:0005e8c0       ?deallocate@?$_Wrap_alloc@V?$allocator@PAVFrameManager@@@std@@@std@@QAEXPAPAVFrameManager@@I@Z 0045f8c0 f i RD1Engined:RD1Engine.obj
 0001:0005e910       ?deallocate@?$_Wrap_alloc@V?$allocator@U?$_Tree_node@U?$pair@$$CBHUPosModify@@@std@@PAX@std@@@std@@@std@@QAEXPAU?$_Tree_node@U?$pair@$$CBHUPosModify@@@std@@PAX@2@I@Z 0045f910 f i RD1Engined:RD1Engine.obj
 0001:0005e960       ?deallocate@?$_Wrap_alloc@V?$allocator@UtagRECT@@@std@@@std@@QAEXPAUtagRECT@@I@Z 0045f960 f i RD1Engined:RD1Engine.obj
 0001:0005e9b0       ?deallocate@?$allocator@PAVFrameManager@@@std@@QAEXPAPAVFrameManager@@I@Z 0045f9b0 f i RD1Engined:RD1Engine.obj
 0001:0005ea00       ?deallocate@?$allocator@U?$_Tree_node@U?$pair@$$CBHUPosModify@@@std@@PAX@std@@@std@@QAEXPAU?$_Tree_node@U?$pair@$$CBHUPosModify@@@std@@PAX@2@I@Z 0045fa00 f i RD1Engined:RD1Engine.obj
 0001:0005ea50       ?deallocate@?$allocator@UtagRECT@@@std@@QAEXPAUtagRECT@@I@Z 0045fa50 f i RD1Engined:RD1Engine.obj
 0001:0005eaa0       ?end@?$_Tree@V?$_Tmap_traits@HUPosModify@@U?$less@H@std@@V?$allocator@U?$pair@$$CBHUPosModify@@@std@@@3@$0A@@std@@@std@@QAE?AV?$_Tree_iterator@V?$_Tree_val@U?$_Tree_simple_types@U?$pair@$$CBHUPosModify@@@std@@@std@@@std@@@2@XZ 0045faa0 f i RD1Engined:RD1Engine.obj
 0001:0005eb30       ?end@?$vector@PAVFrameManager@@V?$allocator@PAVFrameManager@@@std@@@std@@QBE?AV?$_Vector_const_iterator@V?$_Vector_val@U?$_Simple_types@PAVFrameManager@@@std@@@std@@@2@XZ 0045fb30 f i RD1Engined:RD1Engine.obj
 0001:0005ebc0       ?erase@?$_Tree@V?$_Tmap_traits@HUPosModify@@U?$less@H@std@@V?$allocator@U?$pair@$$CBHUPosModify@@@std@@@3@$0A@@std@@@std@@QAE?AV?$_Tree_iterator@V?$_Tree_val@U?$_Tree_simple_types@U?$pair@$$CBHUPosModify@@@std@@@std@@@std@@@2@V?$_Tree_const_iterator@V?$_Tree_val@U?$_Tree_simple_types@U?$pair@$$CBHUPosModify@@@std@@@std@@@std@@@2@0@Z 0045fbc0 f i RD1Engined:RD1Engine.obj
 0001:0005ee40       ?erase@?$_Tree@V?$_Tmap_traits@HUPosModify@@U?$less@H@std@@V?$allocator@U?$pair@$$CBHUPosModify@@@std@@@3@$0A@@std@@@std@@QAE?AV?$_Tree_iterator@V?$_Tree_val@U?$_Tree_simple_types@U?$pair@$$CBHUPosModify@@@std@@@std@@@std@@@2@V?$_Tree_const_iterator@V?$_Tree_val@U?$_Tree_simple_types@U?$pair@$$CBHUPosModify@@@std@@@std@@@std@@@2@@Z 0045fe40 f i RD1Engined:RD1Engine.obj
 0001:0005f6c0       ?lower_bound@?$_Tree@V?$_Tmap_traits@HUPosModify@@U?$less@H@std@@V?$allocator@U?$pair@$$CBHUPosModify@@@std@@@3@$0A@@std@@@std@@QAE?AV?$_Tree_iterator@V?$_Tree_val@U?$_Tree_simple_types@U?$pair@$$CBHUPosModify@@@std@@@std@@@std@@@2@ABH@Z 004606c0 f i RD1Engined:RD1Engine.obj
 0001:0005f740       ?max_size@?$_Tree@V?$_Tmap_traits@HUPosModify@@U?$less@H@std@@V?$allocator@U?$pair@$$CBHUPosModify@@@std@@@3@$0A@@std@@@std@@QBEIXZ 00460740 f i RD1Engined:RD1Engine.obj
 0001:0005f790       ?max_size@?$_Wrap_alloc@V?$allocator@PAVFrameManager@@@std@@@std@@QBEIU_Nil@2@@Z 00460790 f i RD1Engined:RD1Engine.obj
 0001:0005f7e0       ?max_size@?$_Wrap_alloc@V?$allocator@U?$_Tree_node@U?$pair@$$CBHUPosModify@@@std@@PAX@std@@@std@@@std@@QBEIU_Nil@2@@Z 004607e0 f i RD1Engined:RD1Engine.obj
 0001:0005f830       ?max_size@?$allocator@PAVFrameManager@@@std@@QBEIXZ 00460830 f i RD1Engined:RD1Engine.obj
 0001:0005f860       ?max_size@?$allocator@U?$_Tree_node@U?$pair@$$CBHUPosModify@@@std@@PAX@std@@@std@@QBEIXZ 00460860 f i RD1Engined:RD1Engine.obj
 0001:0005f890       ?max_size@?$allocator_traits@V?$allocator@PAVFrameManager@@@std@@@std@@SAIABV?$allocator@PAVFrameManager@@@2@@Z 00460890 f i RD1Engined:RD1Engine.obj
 0001:0005f8d0       ?max_size@?$allocator_traits@V?$allocator@U?$_Tree_node@U?$pair@$$CBHUPosModify@@@std@@PAX@std@@@std@@@std@@SAIABV?$allocator@U?$_Tree_node@U?$pair@$$CBHUPosModify@@@std@@PAX@std@@@2@@Z 004608d0 f i RD1Engined:RD1Engine.obj
 0001:0005f910       ?max_size@?$vector@PAVFrameManager@@V?$allocator@PAVFrameManager@@@std@@@std@@QBEIXZ 00460910 f i RD1Engined:RD1Engine.obj
 0001:0005f960       ?percentage@@YAHHM@Z       00460960 f   RD1Engined:RD1Engine.obj
 0001:0005f9a0       ?pointer_to@?$pointer_traits@PAU?$pair@$$CBHUPosModify@@@std@@@std@@SAPAU?$pair@$$CBHUPosModify@@@2@AAU32@@Z 004609a0 f i RD1Engined:RD1Engine.obj
 0001:0005f9e0       ?select_on_container_copy_construction@?$_Wrap_alloc@V?$allocator@PAVFrameManager@@@std@@@std@@QBE?AU12@U_Nil@2@@Z 004609e0 f i RD1Engined:RD1Engine.obj
 0001:0005fa40       ?select_on_container_copy_construction@?$allocator_traits@V?$allocator@PAVFrameManager@@@std@@@std@@SA?AV?$allocator@PAVFrameManager@@@2@ABV32@@Z 00460a40 f i RD1Engined:RD1Engine.obj
 0001:0005fa90       ?size@?$_Tree@V?$_Tmap_traits@HUPosModify@@U?$less@H@std@@V?$allocator@U?$pair@$$CBHUPosModify@@@std@@@3@$0A@@std@@@std@@QBEIXZ 00460a90 f i RD1Engined:RD1Engine.obj
 0001:0005fae0       ??$?0$$V@?$_Compressed_pair@U?$_Wrap_alloc@V?$allocator@PAVFrameManager@@@std@@@std@@V?$_Vector_val@U?$_Simple_types@PAVFrameManager@@@std@@@2@$00@std@@QAE@U_Zero_then_variadic_args_t@1@@Z 00460ae0 f i RD1Engined:SpriteObjectManager.obj
 0001:0005fb30       ??$?0$$V@?$_Compressed_pair@U?$_Wrap_alloc@V?$allocator@UGFXData@@@std@@@std@@V?$_Vector_val@U?$_Simple_types@UGFXData@@@std@@@2@$00@std@@QAE@U_Zero_then_variadic_args_t@1@@Z 00460b30 f i RD1Engined:SpriteObjectManager.obj
 0001:0005fb80       ??$?0$$V@?$_Compressed_pair@U?$_Wrap_alloc@V?$allocator@UnEnemies@@@std@@@std@@V?$_Vector_val@U?$_Simple_types@UnEnemies@@@std@@@2@$00@std@@QAE@U_Zero_then_variadic_args_t@1@@Z 00460b80 f i RD1Engined:SpriteObjectManager.obj
 0001:0005fbd0       ??$?0$$V@?$_Compressed_pair@U?$_Wrap_alloc@V?$allocator@UnEnemyList@@@std@@@std@@V?$_Vector_val@U?$_Simple_types@UnEnemyList@@@std@@@2@$00@std@@QAE@U_Zero_then_variadic_args_t@1@@Z 00460bd0 f i RD1Engined:SpriteObjectManager.obj
 0001:0005fc20       ??$?0AAU?$_Wrap_alloc@V?$allocator@UGFXData@@@std@@@std@@@?$_Wrap_alloc@V?$allocator@U_Container_proxy@std@@@std@@@std@@QAE@AAU?$_Wrap_alloc@V?$allocator@UGFXData@@@std@@@1@@Z 00460c20 f i RD1Engined:SpriteObjectManager.obj
 0001:0005fc80       ??$?0AAU?$_Wrap_alloc@V?$allocator@UnEnemies@@@std@@@std@@@?$_Wrap_alloc@V?$allocator@U_Container_proxy@std@@@std@@@std@@QAE@AAU?$_Wrap_alloc@V?$allocator@UnEnemies@@@std@@@1@@Z 00460c80 f i RD1Engined:SpriteObjectManager.obj
 0001:0005fce0       ??$?0AAU?$_Wrap_alloc@V?$allocator@UnEnemyList@@@std@@@std@@@?$_Wrap_alloc@V?$allocator@U_Container_proxy@std@@@std@@@std@@QAE@AAU?$_Wrap_alloc@V?$allocator@UnEnemyList@@@std@@@1@@Z 00460ce0 f i RD1Engined:SpriteObjectManager.obj
 0001:0005fd40       ??$?0U?$_Wrap_alloc@V?$allocator@UnEnemies@@@std@@@std@@$$V@?$_Compressed_pair@U?$_Wrap_alloc@V?$allocator@UnEnemies@@@std@@@std@@V?$_Vector_val@U?$_Simple_types@UnEnemies@@@std@@@2@$00@std@@QAE@U_One_then_variadic_args_t@1@$$QAU?$_Wrap_alloc@V?$allocator@UnEnemies@@@std@@@1@@Z 00460d40 f i RD1Engined:SpriteObjectManager.obj
 0001:0005fda0       ??$?0U?$_Wrap_alloc@V?$allocator@UnEnemies@@@std@@@std@@X@?$_Vector_alloc@U?$_Vec_base_types@UnEnemies@@V?$allocator@UnEnemies@@@std@@@std@@@std@@QAE@$$QAU?$_Wrap_alloc@V?$allocator@UnEnemies@@@std@@@1@@Z 00460da0 f i RD1Engined:SpriteObjectManager.obj
 0001:0005fe40       ??$?0UGFXData@@@?$allocator@U_Container_proxy@std@@@std@@QAE@ABV?$allocator@UGFXData@@@1@@Z 00460e40 f i RD1Engined:SpriteObjectManager.obj
 0001:0005fe70       ??$?0UnEnemies@@@?$allocator@U_Container_proxy@std@@@std@@QAE@ABV?$allocator@UnEnemies@@@1@@Z 00460e70 f i RD1Engined:SpriteObjectManager.obj
 0001:0005fea0       ??$?0UnEnemyList@@@?$allocator@U_Container_proxy@std@@@std@@QAE@ABV?$allocator@UnEnemyList@@@1@@Z 00460ea0 f i RD1Engined:SpriteObjectManager.obj
 0001:0005fed0       ??$?0V?$allocator@UnEnemies@@@std@@@?$_Wrap_alloc@V?$allocator@UnEnemies@@@std@@@std@@QAE@$$QAV?$allocator@UnEnemies@@@1@@Z 00460ed0 f i RD1Engined:SpriteObjectManager.obj
 0001:0005ff30       ??$_Copy_memmove@PAUGFXData@@PAU1@@std@@YAPAUGFXData@@PAU1@00@Z 00460f30 f i RD1Engined:SpriteObjectManager.obj
 0001:0005ffb0       ??$_Copy_memmove@PAUnEnemies@@PAU1@@std@@YAPAUnEnemies@@PAU1@00@Z 00460fb0 f i RD1Engined:SpriteObjectManager.obj
 0001:00060030       ??$_Copy_memmove@PBUnEnemies@@PAU1@@std@@YAPAUnEnemies@@PBU1@0PAU1@@Z 00461030 f i RD1Engined:SpriteObjectManager.obj
 0001:000600b0       ??$_Destroy_range1@V?$allocator@UGFXData@@@std@@PAUGFXData@@@std@@YAXPAUGFXData@@0AAU?$_Wrap_alloc@V?$allocator@UGFXData@@@std@@@0@U?$integral_constant@_N$00@0@@Z 004610b0 f i RD1Engined:SpriteObjectManager.obj
 0001:000600e0       ??$_Destroy_range1@V?$allocator@UnEnemies@@@std@@PAUnEnemies@@@std@@YAXPAUnEnemies@@0AAU?$_Wrap_alloc@V?$allocator@UnEnemies@@@std@@@0@U?$integral_constant@_N$00@0@@Z 004610e0 f i RD1Engined:SpriteObjectManager.obj
 0001:00060110       ??$_Destroy_range1@V?$allocator@UnEnemyList@@@std@@PAUnEnemyList@@@std@@YAXPAUnEnemyList@@0AAU?$_Wrap_alloc@V?$allocator@UnEnemyList@@@std@@@0@U?$integral_constant@_N$0A@@0@@Z 00461110 f i RD1Engined:SpriteObjectManager.obj
 0001:00060170       ??$_Destroy_range@V?$allocator@UGFXData@@@std@@PAUGFXData@@@std@@YAXPAUGFXData@@0AAU?$_Wrap_alloc@V?$allocator@UGFXData@@@std@@@0@@Z 00461170 f i RD1Engined:SpriteObjectManager.obj
 0001:000601c0       ??$_Destroy_range@V?$allocator@UnEnemies@@@std@@PAUnEnemies@@@std@@YAXPAUnEnemies@@0AAU?$_Wrap_alloc@V?$allocator@UnEnemies@@@std@@@0@@Z 004611c0 f i RD1Engined:SpriteObjectManager.obj
 0001:00060210       ??$_Destroy_range@V?$allocator@UnEnemyList@@@std@@PAUnEnemyList@@@std@@YAXPAUnEnemyList@@0AAU?$_Wrap_alloc@V?$allocator@UnEnemyList@@@std@@@0@@Z 00461210 f i RD1Engined:SpriteObjectManager.obj
 0001:00060260       ??$_Move_unchecked1@PAUnEnemies@@PAU1@@std@@YAPAUnEnemies@@PAU1@00U_Trivially_copyable_ptr_iterator_tag@0@@Z 00461260 f i RD1Engined:SpriteObjectManager.obj
 0001:000602b0       ??$_Move_unchecked@PAUnEnemies@@PAU1@@std@@YAPAUnEnemies@@PAU1@00@Z 004612b0 f i RD1Engined:SpriteObjectManager.obj
 0001:00060320       ??$_Ptr_copy_cat@$$CBUnEnemies@@U1@@std@@YA?AU_Really_trivial_ptr_iterator_tag@0@ABQBUnEnemies@@ABQAU2@@Z 00461320 f i RD1Engined:SpriteObjectManager.obj
 0001:00060350       ??$_Ptr_move_cat@UGFXData@@U1@@std@@YA?AU_Really_trivial_ptr_iterator_tag@0@ABQAUGFXData@@0@Z 00461350 f i RD1Engined:SpriteObjectManager.obj
 0001:00060380       ??$_Ptr_move_cat@UnEnemies@@U1@@std@@YA?AU_Really_trivial_ptr_iterator_tag@0@ABQAUnEnemies@@0@Z 00461380 f i RD1Engined:SpriteObjectManager.obj
 0001:000603b0       ??$_Ptr_move_cat@UnEnemyList@@U1@@std@@YA?AU_General_ptr_iterator_tag@0@ABQAUnEnemyList@@0@Z 004613b0 f i RD1Engined:SpriteObjectManager.obj
 0001:000603f0       ??$_Rechecked@PAUGFXData@@PAU1@@std@@YAAAPAUGFXData@@AAPAU1@PAU1@@Z 004613f0 f i RD1Engined:SpriteObjectManager.obj
 0001:00060420       ??$_Rechecked@PAUnEnemies@@PAU1@@std@@YAAAPAUnEnemies@@AAPAU1@PAU1@@Z 00461420 f i RD1Engined:SpriteObjectManager.obj
 0001:00060450       ??$_Rechecked@PAUnEnemyList@@PAU1@@std@@YAAAPAUnEnemyList@@AAPAU1@PAU1@@Z 00461450 f i RD1Engined:SpriteObjectManager.obj
 0001:00060480       ??$_Ucopy@V?$_Vector_const_iterator@V?$_Vector_val@U?$_Simple_types@UnEnemies@@@std@@@std@@@std@@@?$vector@UnEnemies@@V?$allocator@UnEnemies@@@std@@@std@@IAEPAUnEnemies@@V?$_Vector_const_iterator@V?$_Vector_val@U?$_Simple_types@UnEnemies@@@std@@@std@@@1@0PAU2@@Z 00461480 f i RD1Engined:SpriteObjectManager.obj
 0001:00060580       ??$_Umove@PAUGFXData@@@?$vector@UGFXData@@V?$allocator@UGFXData@@@std@@@std@@IAEPAUGFXData@@PAU2@00@Z 00461580 f i RD1Engined:SpriteObjectManager.obj
 0001:000605e0       ??$_Umove@PAUnEnemies@@@?$vector@UnEnemies@@V?$allocator@UnEnemies@@@std@@@std@@IAEPAUnEnemies@@PAU2@00@Z 004615e0 f i RD1Engined:SpriteObjectManager.obj
 0001:00060640       ??$_Umove@PAUnEnemyList@@@?$vector@UnEnemyList@@V?$allocator@UnEnemyList@@@std@@@std@@IAEPAUnEnemyList@@PAU2@00@Z 00461640 f i RD1Engined:SpriteObjectManager.obj
 0001:000606a0       ??$_Unchecked@PAUGFXData@@@std@@YAPAUGFXData@@PAU1@@Z 004616a0 f i RD1Engined:SpriteObjectManager.obj
 0001:000606d0       ??$_Unchecked@PAUnEnemies@@@std@@YAPAUnEnemies@@PAU1@@Z 004616d0 f i RD1Engined:SpriteObjectManager.obj
 0001:00060700       ??$_Unchecked@PAUnEnemyList@@@std@@YAPAUnEnemyList@@PAU1@@Z 00461700 f i RD1Engined:SpriteObjectManager.obj
 0001:00060730       ??$_Unchecked@V?$_Vector_val@U?$_Simple_types@UnEnemies@@@std@@@std@@@std@@YAPBUnEnemies@@V?$_Vector_const_iterator@V?$_Vector_val@U?$_Simple_types@UnEnemies@@@std@@@std@@@0@@Z 00461730 f i RD1Engined:SpriteObjectManager.obj
 0001:000607c0       ??$_Unfancy@UGFXData@@@std@@YAPAUGFXData@@PAU1@@Z 004617c0 f i RD1Engined:SpriteObjectManager.obj
 0001:000607f0       ??$_Unfancy@UnEnemies@@@std@@YAPAUnEnemies@@PAU1@@Z 004617f0 f i RD1Engined:SpriteObjectManager.obj
 0001:00060820       ??$_Unfancy@UnEnemyList@@@std@@YAPAUnEnemyList@@PAU1@@Z 00461820 f i RD1Engined:SpriteObjectManager.obj
 0001:00060850       ??$_Uninitialized_copy@V?$_Vector_const_iterator@V?$_Vector_val@U?$_Simple_types@UnEnemies@@@std@@@std@@@std@@PAUnEnemies@@V?$allocator@UnEnemies@@@2@@std@@YAPAUnEnemies@@V?$_Vector_const_iterator@V?$_Vector_val@U?$_Simple_types@UnEnemies@@@std@@@std@@@0@0PAU1@AAU?$_Wrap_alloc@V?$allocator@UnEnemies@@@std@@@0@@Z 00461850 f i RD1Engined:SpriteObjectManager.obj
 0001:00060970       ??$_Uninitialized_copy_al_unchecked1@$$CBUnEnemies@@U1@V?$allocator@UnEnemies@@@std@@@std@@YAPAUnEnemies@@PBU1@0PAU1@AAU?$_Wrap_alloc@V?$allocator@UnEnemies@@@std@@@0@U_Really_trivial_ptr_iterator_tag@0@U?$integral_constant@_N$00@0@@Z 00461970 f i RD1Engined:SpriteObjectManager.obj
 0001:000609c0       ??$_Uninitialized_copy_al_unchecked@PBUnEnemies@@PAU1@V?$allocator@UnEnemies@@@std@@@std@@YAPAUnEnemies@@PBU1@0PAU1@AAU?$_Wrap_alloc@V?$allocator@UnEnemies@@@std@@@0@@Z 004619c0 f i RD1Engined:SpriteObjectManager.obj
 0001:00060a30       ??$_Uninitialized_default_fill_n1@PAUGFXData@@IV?$allocator@UGFXData@@@std@@@std@@YAXPAUGFXData@@IAAU?$_Wrap_alloc@V?$allocator@UGFXData@@@std@@@0@U?$integral_constant@_N$0A@@0@@Z 00461a30 f i RD1Engined:SpriteObjectManager.obj
 0001:00060b10       ??$_Uninitialized_default_fill_n@PAUGFXData@@IV?$allocator@UGFXData@@@std@@@std@@YAXPAUGFXData@@IAAU?$_Wrap_alloc@V?$allocator@UGFXData@@@std@@@0@@Z 00461b10 f i RD1Engined:SpriteObjectManager.obj
 0001:00060b60       ??$_Uninitialized_move@PAUGFXData@@PAU1@V?$allocator@UGFXData@@@std@@@std@@YAPAUGFXData@@PAU1@00AAU?$_Wrap_alloc@V?$allocator@UGFXData@@@std@@@0@@Z 00461b60 f i RD1Engined:SpriteObjectManager.obj
 0001:00060be0       ??$_Uninitialized_move@PAUnEnemies@@PAU1@V?$allocator@UnEnemies@@@std@@@std@@YAPAUnEnemies@@PAU1@00AAU?$_Wrap_alloc@V?$allocator@UnEnemies@@@std@@@0@@Z 00461be0 f i RD1Engined:SpriteObjectManager.obj
 0001:00060c60       ??$_Uninitialized_move@PAUnEnemyList@@PAU1@V?$allocator@UnEnemyList@@@std@@@std@@YAPAUnEnemyList@@PAU1@00AAU?$_Wrap_alloc@V?$allocator@UnEnemyList@@@std@@@0@@Z 00461c60 f i RD1Engined:SpriteObjectManager.obj
 0001:00060ce0       ??$_Uninitialized_move_al_unchecked1@PAUnEnemyList@@PAU1@V?$allocator@UnEnemyList@@@std@@@std@@YAPAUnEnemyList@@PAU1@00AAU?$_Wrap_alloc@V?$allocator@UnEnemyList@@@std@@@0@U_General_ptr_iterator_tag@0@U_Any_tag@0@@Z 00461ce0 f i RD1Engined:SpriteObjectManager.obj
 0001:00060de0       ??$_Uninitialized_move_al_unchecked1@UGFXData@@U1@V?$allocator@UGFXData@@@std@@@std@@YAPAUGFXData@@PAU1@00AAU?$_Wrap_alloc@V?$allocator@UGFXData@@@std@@@0@U_Really_trivial_ptr_iterator_tag@0@U?$integral_constant@_N$00@0@@Z 00461de0 f i RD1Engined:SpriteObjectManager.obj
 0001:00060e30       ??$_Uninitialized_move_al_unchecked1@UnEnemies@@U1@V?$allocator@UnEnemies@@@std@@@std@@YAPAUnEnemies@@PAU1@00AAU?$_Wrap_alloc@V?$allocator@UnEnemies@@@std@@@0@U_Really_trivial_ptr_iterator_tag@0@U?$integral_constant@_N$00@0@@Z 00461e30 f i RD1Engined:SpriteObjectManager.obj
 0001:00060e80       ??$_Uninitialized_move_al_unchecked@PAUGFXData@@PAU1@V?$allocator@UGFXData@@@std@@@std@@YAPAUGFXData@@PAU1@00AAU?$_Wrap_alloc@V?$allocator@UGFXData@@@std@@@0@@Z 00461e80 f i RD1Engined:SpriteObjectManager.obj
 0001:00060ef0       ??$_Uninitialized_move_al_unchecked@PAUnEnemies@@PAU1@V?$allocator@UnEnemies@@@std@@@std@@YAPAUnEnemies@@PAU1@00AAU?$_Wrap_alloc@V?$allocator@UnEnemies@@@std@@@0@@Z 00461ef0 f i RD1Engined:SpriteObjectManager.obj
 0001:00060f60       ??$_Uninitialized_move_al_unchecked@PAUnEnemyList@@PAU1@V?$allocator@UnEnemyList@@@std@@@std@@YAPAUnEnemyList@@PAU1@00AAU?$_Wrap_alloc@V?$allocator@UnEnemyList@@@std@@@0@@Z 00461f60 f i RD1Engined:SpriteObjectManager.obj
 0001:00060fe0       ??$addressof@$$CBUnEnemies@@@std@@YAPBUnEnemies@@ABU1@@Z 00461fe0 f i RD1Engined:SpriteObjectManager.obj
 0001:00061010       ??$addressof@$$CBUnEnemyList@@@std@@YAPBUnEnemyList@@ABU1@@Z 00462010 f i RD1Engined:SpriteObjectManager.obj
 0001:00061040       ??$construct@UGFXData@@$$V@?$_Wrap_alloc@V?$allocator@UGFXData@@@std@@@std@@QAEXPAUGFXData@@@Z 00462040 f i RD1Engined:SpriteObjectManager.obj
 0001:00061090       ??$construct@UGFXData@@$$V@?$allocator@UGFXData@@@std@@QAEXPAUGFXData@@@Z 00462090 f i RD1Engined:SpriteObjectManager.obj
 0001:00061110       ??$construct@UGFXData@@$$V@?$allocator_traits@V?$allocator@UGFXData@@@std@@@std@@SAXAAV?$allocator@UGFXData@@@1@PAUGFXData@@@Z 00462110 f i RD1Engined:SpriteObjectManager.obj
 0001:00061150       ??$construct@UnEnemies@@AAU1@@?$_Wrap_alloc@V?$allocator@UnEnemies@@@std@@@std@@QAEXPAUnEnemies@@AAU2@@Z 00462150 f i RD1Engined:SpriteObjectManager.obj
 0001:000611b0       ??$construct@UnEnemies@@AAU1@@?$allocator@UnEnemies@@@std@@QAEXPAUnEnemies@@AAU2@@Z 004621b0 f i RD1Engined:SpriteObjectManager.obj
 0001:00061240       ??$construct@UnEnemies@@AAU1@@?$allocator_traits@V?$allocator@UnEnemies@@@std@@@std@@SAXAAV?$allocator@UnEnemies@@@1@PAUnEnemies@@AAU3@@Z 00462240 f i RD1Engined:SpriteObjectManager.obj
 0001:00061290       ??$construct@UnEnemies@@ABU1@@?$_Wrap_alloc@V?$allocator@UnEnemies@@@std@@@std@@QAEXPAUnEnemies@@ABU2@@Z 00462290 f i RD1Engined:SpriteObjectManager.obj
 0001:000612f0       ??$construct@UnEnemies@@ABU1@@?$allocator@UnEnemies@@@std@@QAEXPAUnEnemies@@ABU2@@Z 004622f0 f i RD1Engined:SpriteObjectManager.obj
 0001:00061380       ??$construct@UnEnemies@@ABU1@@?$allocator_traits@V?$allocator@UnEnemies@@@std@@@std@@SAXAAV?$allocator@UnEnemies@@@1@PAUnEnemies@@ABU3@@Z 00462380 f i RD1Engined:SpriteObjectManager.obj
 0001:000613d0       ??$construct@UnEnemyList@@AAU1@@?$_Wrap_alloc@V?$allocator@UnEnemyList@@@std@@@std@@QAEXPAUnEnemyList@@AAU2@@Z 004623d0 f i RD1Engined:SpriteObjectManager.obj
 0001:00061430       ??$construct@UnEnemyList@@AAU1@@?$allocator@UnEnemyList@@@std@@QAEXPAUnEnemyList@@AAU2@@Z 00462430 f i RD1Engined:SpriteObjectManager.obj
 0001:00061500       ??$construct@UnEnemyList@@AAU1@@?$allocator_traits@V?$allocator@UnEnemyList@@@std@@@std@@SAXAAV?$allocator@UnEnemyList@@@1@PAUnEnemyList@@AAU3@@Z 00462500 f i RD1Engined:SpriteObjectManager.obj
 0001:00061550       ??$construct@UnEnemyList@@ABU1@@?$_Wrap_alloc@V?$allocator@UnEnemyList@@@std@@@std@@QAEXPAUnEnemyList@@ABU2@@Z 00462550 f i RD1Engined:SpriteObjectManager.obj
 0001:000615b0       ??$construct@UnEnemyList@@ABU1@@?$allocator@UnEnemyList@@@std@@QAEXPAUnEnemyList@@ABU2@@Z 004625b0 f i RD1Engined:SpriteObjectManager.obj
 0001:00061680       ??$construct@UnEnemyList@@ABU1@@?$allocator_traits@V?$allocator@UnEnemyList@@@std@@@std@@SAXAAV?$allocator@UnEnemyList@@@1@PAUnEnemyList@@ABU3@@Z 00462680 f i RD1Engined:SpriteObjectManager.obj
 0001:000616d0       ??$construct@UnEnemyList@@U1@@?$_Wrap_alloc@V?$allocator@UnEnemyList@@@std@@@std@@QAEXPAUnEnemyList@@$$QAU2@@Z 004626d0 f i RD1Engined:SpriteObjectManager.obj
 0001:00061730       ??$construct@UnEnemyList@@U1@@?$allocator@UnEnemyList@@@std@@QAEXPAUnEnemyList@@$$QAU2@@Z 00462730 f i RD1Engined:SpriteObjectManager.obj
 0001:000617b0       ??$construct@UnEnemyList@@U1@@?$allocator_traits@V?$allocator@UnEnemyList@@@std@@@std@@SAXAAV?$allocator@UnEnemyList@@@1@PAUnEnemyList@@$$QAU3@@Z 004627b0 f i RD1Engined:SpriteObjectManager.obj
 0001:00061800       ??$destroy@UnEnemyList@@@?$_Wrap_alloc@V?$allocator@UnEnemyList@@@std@@@std@@QAEXPAUnEnemyList@@@Z 00462800 f i RD1Engined:SpriteObjectManager.obj
 0001:00061850       ??$destroy@UnEnemyList@@@?$allocator@UnEnemyList@@@std@@QAEXPAUnEnemyList@@@Z 00462850 f i RD1Engined:SpriteObjectManager.obj
 0001:000618a0       ??$destroy@UnEnemyList@@@?$allocator_traits@V?$allocator@UnEnemyList@@@std@@@std@@SAXAAV?$allocator@UnEnemyList@@@1@PAUnEnemyList@@@Z 004628a0 f i RD1Engined:SpriteObjectManager.obj
 0001:000618e0       ??$forward@AAU?$_Wrap_alloc@V?$allocator@UGFXData@@@std@@@std@@@std@@YAAAU?$_Wrap_alloc@V?$allocator@UGFXData@@@std@@@0@AAU10@@Z 004628e0 f i RD1Engined:SpriteObjectManager.obj
 0001:00061910       ??$forward@AAU?$_Wrap_alloc@V?$allocator@UnEnemies@@@std@@@std@@@std@@YAAAU?$_Wrap_alloc@V?$allocator@UnEnemies@@@std@@@0@AAU10@@Z 00462910 f i RD1Engined:SpriteObjectManager.obj
 0001:00061940       ??$forward@AAU?$_Wrap_alloc@V?$allocator@UnEnemyList@@@std@@@std@@@std@@YAAAU?$_Wrap_alloc@V?$allocator@UnEnemyList@@@std@@@0@AAU10@@Z 00462940 f i RD1Engined:SpriteObjectManager.obj
 0001:00061970       ??$forward@AAUnEnemies@@@std@@YAAAUnEnemies@@AAU1@@Z 00462970 f i RD1Engined:SpriteObjectManager.obj
 0001:000619a0       ??$forward@AAUnEnemyList@@@std@@YAAAUnEnemyList@@AAU1@@Z 004629a0 f i RD1Engined:SpriteObjectManager.obj
 0001:000619d0       ??$forward@ABUnEnemies@@@std@@YAABUnEnemies@@ABU1@@Z 004629d0 f i RD1Engined:SpriteObjectManager.obj
 0001:00061a00       ??$forward@ABUnEnemyList@@@std@@YAABUnEnemyList@@ABU1@@Z 00462a00 f i RD1Engined:SpriteObjectManager.obj
 0001:00061a30       ??$forward@U?$_Wrap_alloc@V?$allocator@UnEnemies@@@std@@@std@@@std@@YA$$QAU?$_Wrap_alloc@V?$allocator@UnEnemies@@@std@@@0@AAU10@@Z 00462a30 f i RD1Engined:SpriteObjectManager.obj
 0001:00061a60       ??$forward@UnEnemyList@@@std@@YA$$QAUnEnemyList@@AAU1@@Z 00462a60 f i RD1Engined:SpriteObjectManager.obj
 0001:00061a90       ??$forward@V?$allocator@UnEnemies@@@std@@@std@@YA$$QAV?$allocator@UnEnemies@@@0@AAV10@@Z 00462a90 f i RD1Engined:SpriteObjectManager.obj
 0001:00061ac0       ??$forward@V?$vector@UnEnemies@@V?$allocator@UnEnemies@@@std@@@std@@@std@@YA$$QAV?$vector@UnEnemies@@V?$allocator@UnEnemies@@@std@@@0@AAV10@@Z 00462ac0 f i RD1Engined:SpriteObjectManager.obj
 0001:00061af0       ??$move@AAU?$_Wrap_alloc@V?$allocator@UnEnemies@@@std@@@std@@@std@@YA$$QAU?$_Wrap_alloc@V?$allocator@UnEnemies@@@std@@@0@AAU10@@Z 00462af0 f i RD1Engined:SpriteObjectManager.obj
 0001:00061b20       ??$move@AAUnEnemyList@@@std@@YA$$QAUnEnemyList@@AAU1@@Z 00462b20 f i RD1Engined:SpriteObjectManager.obj
 0001:00061b50       ??0?$_Iterator012@Urandom_access_iterator_tag@std@@PAVFrameManager@@HPBQAV3@ABQAV3@U_Iterator_base12@2@@std@@QAE@$$QAU01@@Z 00462b50 f i RD1Engined:SpriteObjectManager.obj
 0001:00061ba0       ??0?$_Iterator012@Urandom_access_iterator_tag@std@@UnEnemies@@HPBU3@ABU3@U_Iterator_base12@2@@std@@QAE@$$QAU01@@Z 00462ba0 f i RD1Engined:SpriteObjectManager.obj
 0001:00061bf0       ??0?$_Iterator012@Urandom_access_iterator_tag@std@@UnEnemies@@HPBU3@ABU3@U_Iterator_base12@2@@std@@QAE@ABU01@@Z 00462bf0 f i RD1Engined:SpriteObjectManager.obj
 0001:00061c40       ??0?$_Iterator012@Urandom_access_iterator_tag@std@@UnEnemies@@HPBU3@ABU3@U_Iterator_base12@2@@std@@QAE@XZ 00462c40 f i RD1Engined:SpriteObjectManager.obj
 0001:00061c90       ??0?$_Vector_alloc@U?$_Vec_base_types@PAVFrameManager@@V?$allocator@PAVFrameManager@@@std@@@std@@@std@@QAE@XZ 00462c90 f i RD1Engined:SpriteObjectManager.obj
 0001:00061d20       ??0?$_Vector_alloc@U?$_Vec_base_types@UGFXData@@V?$allocator@UGFXData@@@std@@@std@@@std@@QAE@XZ 00462d20 f i RD1Engined:SpriteObjectManager.obj
 0001:00061db0       ??0?$_Vector_alloc@U?$_Vec_base_types@UnEnemies@@V?$allocator@UnEnemies@@@std@@@std@@@std@@QAE@XZ 00462db0 f i RD1Engined:SpriteObjectManager.obj
 0001:00061e40       ??0?$_Vector_alloc@U?$_Vec_base_types@UnEnemyList@@V?$allocator@UnEnemyList@@@std@@@std@@@std@@QAE@XZ 00462e40 f i RD1Engined:SpriteObjectManager.obj
 0001:00061ed0       ??0?$_Vector_const_iterator@V?$_Vector_val@U?$_Simple_types@PAVFrameManager@@@std@@@std@@@std@@QAE@$$QAV01@@Z 00462ed0 f i RD1Engined:SpriteObjectManager.obj
 0001:00061f30       ??0?$_Vector_const_iterator@V?$_Vector_val@U?$_Simple_types@UnEnemies@@@std@@@std@@@std@@QAE@$$QAV01@@Z 00462f30 f i RD1Engined:SpriteObjectManager.obj
 0001:00061f90       ??0?$_Vector_const_iterator@V?$_Vector_val@U?$_Simple_types@UnEnemies@@@std@@@std@@@std@@QAE@ABV01@@Z 00462f90 f i RD1Engined:SpriteObjectManager.obj
 0001:00061ff0       ??0?$_Vector_const_iterator@V?$_Vector_val@U?$_Simple_types@UnEnemies@@@std@@@std@@@std@@QAE@PAUnEnemies@@PBU_Container_base12@1@@Z 00462ff0 f i RD1Engined:SpriteObjectManager.obj
 0001:00062090       ??0?$_Vector_iterator@V?$_Vector_val@U?$_Simple_types@PAVFrameManager@@@std@@@std@@@std@@QAE@PAPAVFrameManager@@PBU_Container_base12@1@@Z 00463090 f i RD1Engined:SpriteObjectManager.obj
 0001:000620e0       ??0?$_Vector_iterator@V?$_Vector_val@U?$_Simple_types@UnEnemies@@@std@@@std@@@std@@QAE@ABV01@@Z 004630e0 f i RD1Engined:SpriteObjectManager.obj
 0001:00062130       ??0?$_Vector_iterator@V?$_Vector_val@U?$_Simple_types@UnEnemies@@@std@@@std@@@std@@QAE@PAUnEnemies@@PBU_Container_base12@1@@Z 00463130 f i RD1Engined:SpriteObjectManager.obj
 0001:00062180       ??0?$_Vector_val@U?$_Simple_types@UGFXData@@@std@@@std@@QAE@XZ 00463180 f i RD1Engined:SpriteObjectManager.obj
 0001:000621e0       ??0?$_Vector_val@U?$_Simple_types@UnEnemies@@@std@@@std@@QAE@XZ 004631e0 f i RD1Engined:SpriteObjectManager.obj
 0001:00062240       ??0?$_Vector_val@U?$_Simple_types@UnEnemyList@@@std@@@std@@QAE@XZ 00463240 f i RD1Engined:SpriteObjectManager.obj
 0001:000622a0       ??0?$_Wrap_alloc@V?$allocator@PAVFrameManager@@@std@@@std@@QAE@XZ 004632a0 f i RD1Engined:SpriteObjectManager.obj
 0001:000622f0       ??0?$_Wrap_alloc@V?$allocator@UGFXData@@@std@@@std@@QAE@XZ 004632f0 f i RD1Engined:SpriteObjectManager.obj
 0001:00062340       ??0?$_Wrap_alloc@V?$allocator@UnEnemies@@@std@@@std@@QAE@$$QAU01@@Z 00463340 f i RD1Engined:SpriteObjectManager.obj
 0001:000623a0       ??0?$_Wrap_alloc@V?$allocator@UnEnemies@@@std@@@std@@QAE@XZ 004633a0 f i RD1Engined:SpriteObjectManager.obj
 0001:000623f0       ??0?$_Wrap_alloc@V?$allocator@UnEnemyList@@@std@@@std@@QAE@XZ 004633f0 f i RD1Engined:SpriteObjectManager.obj
 0001:00062440       ??0?$allocator@PAVFrameManager@@@std@@QAE@XZ 00463440 f i RD1Engined:SpriteObjectManager.obj
 0001:00062470       ??0?$allocator@UGFXData@@@std@@QAE@XZ 00463470 f i RD1Engined:SpriteObjectManager.obj
 0001:000624a0       ??0?$allocator@UnEnemies@@@std@@QAE@ABV01@@Z 004634a0 f i RD1Engined:SpriteObjectManager.obj
 0001:000624d0       ??0?$allocator@UnEnemies@@@std@@QAE@XZ 004634d0 f i RD1Engined:SpriteObjectManager.obj
 0001:00062500       ??0?$allocator@UnEnemyList@@@std@@QAE@XZ 00463500 f i RD1Engined:SpriteObjectManager.obj
 0001:00062530       ??0?$vector@PAVFrameManager@@V?$allocator@PAVFrameManager@@@std@@@std@@QAE@XZ 00463530 f i RD1Engined:SpriteObjectManager.obj
 0001:000625a0       ??0?$vector@UGFXData@@V?$allocator@UGFXData@@@std@@@std@@QAE@XZ 004635a0 f i RD1Engined:SpriteObjectManager.obj
 0001:00062610       ??0?$vector@UnEnemies@@V?$allocator@UnEnemies@@@std@@@std@@QAE@$$QAV01@@Z 00463610 f i RD1Engined:SpriteObjectManager.obj
 0001:000626b0       ??0?$vector@UnEnemies@@V?$allocator@UnEnemies@@@std@@@std@@QAE@ABV01@@Z 004636b0 f i RD1Engined:SpriteObjectManager.obj
 0001:00062800       ??0?$vector@UnEnemies@@V?$allocator@UnEnemies@@@std@@@std@@QAE@XZ 00463800 f i RD1Engined:SpriteObjectManager.obj
 0001:00062870       ??0?$vector@UnEnemyList@@V?$allocator@UnEnemyList@@@std@@@std@@QAE@XZ 00463870 f i RD1Engined:SpriteObjectManager.obj
 0001:000628e0       ??0SpriteObjectManager@@QAE@PAUSpritesetData@@PAVGBAMethods@@PAV?$map@HV?$vector@KV?$allocator@K@std@@@std@@U?$less@H@2@V?$allocator@U?$pair@$$CBHV?$vector@KV?$allocator@K@std@@@std@@@std@@@2@@std@@PAVFrameManager@@H@Z 004638e0 f   RD1Engined:SpriteObjectManager.obj
 0001:00062a40       ??0nEnemyList@@QAE@$$QAU0@@Z 00463a40 f i RD1Engined:SpriteObjectManager.obj
 0001:00062aa0       ??0nEnemyList@@QAE@ABU0@@Z 00463aa0 f i RD1Engined:SpriteObjectManager.obj
 0001:00062b00       ??0nEnemyList@@QAE@XZ      00463b00 f i RD1Engined:SpriteObjectManager.obj
 0001:00062b50       ??1?$_Compressed_pair@U?$_Wrap_alloc@V?$allocator@UGFXData@@@std@@@std@@V?$_Vector_val@U?$_Simple_types@UGFXData@@@std@@@2@$00@std@@QAE@XZ 00463b50 f i RD1Engined:SpriteObjectManager.obj
 0001:00062b90       ??1?$_Compressed_pair@U?$_Wrap_alloc@V?$allocator@UnEnemies@@@std@@@std@@V?$_Vector_val@U?$_Simple_types@UnEnemies@@@std@@@2@$00@std@@QAE@XZ 00463b90 f i RD1Engined:SpriteObjectManager.obj
 0001:00062bd0       ??1?$_Compressed_pair@U?$_Wrap_alloc@V?$allocator@UnEnemyList@@@std@@@std@@V?$_Vector_val@U?$_Simple_types@UnEnemyList@@@std@@@2@$00@std@@QAE@XZ 00463bd0 f i RD1Engined:SpriteObjectManager.obj
 0001:00062c10       ??1?$_Iterator012@Urandom_access_iterator_tag@std@@UnEnemies@@HPBU3@ABU3@U_Iterator_base12@2@@std@@QAE@XZ 00463c10 f i RD1Engined:SpriteObjectManager.obj
 0001:00062c50       ??1?$_Vector_alloc@U?$_Vec_base_types@UGFXData@@V?$allocator@UGFXData@@@std@@@std@@@std@@QAE@XZ 00463c50 f i RD1Engined:SpriteObjectManager.obj
 0001:00062cd0       ??1?$_Vector_alloc@U?$_Vec_base_types@UnEnemies@@V?$allocator@UnEnemies@@@std@@@std@@@std@@QAE@XZ 00463cd0 f i RD1Engined:SpriteObjectManager.obj
 0001:00062d50       ??1?$_Vector_alloc@U?$_Vec_base_types@UnEnemyList@@V?$allocator@UnEnemyList@@@std@@@std@@@std@@QAE@XZ 00463d50 f i RD1Engined:SpriteObjectManager.obj
 0001:00062dd0       ??1?$_Vector_const_iterator@V?$_Vector_val@U?$_Simple_types@UnEnemies@@@std@@@std@@@std@@QAE@XZ 00463dd0 f i RD1Engined:SpriteObjectManager.obj
 0001:00062e10       ??1?$_Vector_iterator@V?$_Vector_val@U?$_Simple_types@PAVFrameManager@@@std@@@std@@@std@@QAE@XZ 00463e10 f i RD1Engined:SpriteObjectManager.obj
 0001:00062e50       ??1?$_Vector_iterator@V?$_Vector_val@U?$_Simple_types@UnEnemies@@@std@@@std@@@std@@QAE@XZ 00463e50 f i RD1Engined:SpriteObjectManager.obj
 0001:00062e90       ??1?$_Vector_val@U?$_Simple_types@UGFXData@@@std@@@std@@QAE@XZ 00463e90 f i RD1Engined:SpriteObjectManager.obj
 0001:00062ed0       ??1?$_Vector_val@U?$_Simple_types@UnEnemies@@@std@@@std@@QAE@XZ 00463ed0 f i RD1Engined:SpriteObjectManager.obj
 0001:00062f10       ??1?$_Vector_val@U?$_Simple_types@UnEnemyList@@@std@@@std@@QAE@XZ 00463f10 f i RD1Engined:SpriteObjectManager.obj
 0001:00062f50       ??1?$vector@UGFXData@@V?$allocator@UGFXData@@@std@@@std@@QAE@XZ 00463f50 f i RD1Engined:SpriteObjectManager.obj
 0001:00062fe0       ??1?$vector@UnEnemies@@V?$allocator@UnEnemies@@@std@@@std@@QAE@XZ 00463fe0 f i RD1Engined:SpriteObjectManager.obj
 0001:00063060       ??1?$vector@UnEnemyList@@V?$allocator@UnEnemyList@@@std@@@std@@QAE@XZ 00464060 f i RD1Engined:SpriteObjectManager.obj
 0001:000630e0       ??1SpriteObjectManager@@QAE@XZ 004640e0 f   RD1Engined:SpriteObjectManager.obj
 0001:000632a0       ??1nEnemyList@@QAE@XZ      004642a0 f i RD1Engined:SpriteObjectManager.obj
 0001:000632f0       ??8?$_Vector_const_iterator@V?$_Vector_val@U?$_Simple_types@PAVFrameManager@@@std@@@std@@@std@@QBE_NABV01@@Z 004642f0 f i RD1Engined:SpriteObjectManager.obj
 0001:00063360       ??9?$_Vector_const_iterator@V?$_Vector_val@U?$_Simple_types@PAVFrameManager@@@std@@@std@@@std@@QBE_NABV01@@Z 00464360 f i RD1Engined:SpriteObjectManager.obj
 0001:000633d0       ??D?$_Vector_const_iterator@V?$_Vector_val@U?$_Simple_types@PAVFrameManager@@@std@@@std@@@std@@QBEABQAVFrameManager@@XZ 004643d0 f i RD1Engined:SpriteObjectManager.obj
 0001:000634c0       ??E?$_Vector_const_iterator@V?$_Vector_val@U?$_Simple_types@PAVFrameManager@@@std@@@std@@@std@@QAEAAV01@XZ 004644c0 f i RD1Engined:SpriteObjectManager.obj
 0001:000635b0       ??H?$_Vector_iterator@V?$_Vector_val@U?$_Simple_types@UnEnemies@@@std@@@std@@@std@@QBE?AV01@H@Z 004645b0 f i RD1Engined:SpriteObjectManager.obj
 0001:000636b0       ??Y?$_Vector_const_iterator@V?$_Vector_val@U?$_Simple_types@UnEnemies@@@std@@@std@@@std@@QAEAAV01@H@Z 004646b0 f i RD1Engined:SpriteObjectManager.obj
 0001:000637d0       ??Y?$_Vector_iterator@V?$_Vector_val@U?$_Simple_types@UnEnemies@@@std@@@std@@@std@@QAEAAV01@H@Z 004647d0 f i RD1Engined:SpriteObjectManager.obj
 0001:00063820       ??_GnEnemyList@@QAEPAXI@Z  00464820 f i RD1Engined:SpriteObjectManager.obj
 0001:00063880       ?AddSpriteObject@SpriteObjectManager@@QAEXH@Z 00464880 f   RD1Engined:SpriteObjectManager.obj
 0001:00063950       ?DeleteSpriteObject@SpriteObjectManager@@QAEXHH@Z 00464950 f   RD1Engined:SpriteObjectManager.obj
 0001:00063ad0       ?DumpLayers@@YAXXZ         00464ad0 f   RD1Engined:SpriteObjectManager.obj
 0001:00063c60       ?ExportGFX@SpriteObjectManager@@QAEHXZ 00464c60 f   RD1Engined:SpriteObjectManager.obj
 0001:00063d70       ?ExportPal@SpriteObjectManager@@QAEHXZ 00464d70 f   RD1Engined:SpriteObjectManager.obj
 0001:00063ed0       ?ImportGFX@SpriteObjectManager@@QAEHXZ 00464ed0 f   RD1Engined:SpriteObjectManager.obj
 0001:00064000       ?ImportPal@SpriteObjectManager@@QAEHH@Z 00465000 f   RD1Engined:SpriteObjectManager.obj
 0001:00064030       ?LoadEnemies@SpriteObjectManager@@QAEHPAURHeader@@@Z 00465030 f   RD1Engined:SpriteObjectManager.obj
 0001:00064220       ?SaveGFX@SpriteObjectManager@@QAEHH@Z 00465220 f   RD1Engined:SpriteObjectManager.obj
 0001:000645a0       ?SavePal@SpriteObjectManager@@QAEHH@Z 004655a0 f   RD1Engined:SpriteObjectManager.obj
 0001:00064730       ?SavePal@SpriteObjectManager@@QAEHPAUPalData@@PAUsprite_entry@@PAJ@Z 00465730 f   RD1Engined:SpriteObjectManager.obj
 0001:00064870       ?SaveSprites@SpriteObjectManager@@QAEHPAURHeader@@@Z 00465870 f   RD1Engined:SpriteObjectManager.obj
 0001:00064aa0       ?ShowSprites@SpriteObjectManager@@QAEH_NEPAVBackBuffer@@@Z 00465aa0 f   RD1Engined:SpriteObjectManager.obj
 0001:00065040       ?_Alloc_proxy@?$_Vector_alloc@U?$_Vec_base_types@UGFXData@@V?$allocator@UGFXData@@@std@@@std@@@std@@QAEXXZ 00466040 f i RD1Engined:SpriteObjectManager.obj
 0001:00065130       ?_Alloc_proxy@?$_Vector_alloc@U?$_Vec_base_types@UnEnemies@@V?$allocator@UnEnemies@@@std@@@std@@@std@@QAEXXZ 00466130 f i RD1Engined:SpriteObjectManager.obj
 0001:00065220       ?_Alloc_proxy@?$_Vector_alloc@U?$_Vec_base_types@UnEnemyList@@V?$allocator@UnEnemyList@@@std@@@std@@@std@@QAEXXZ 00466220 f i RD1Engined:SpriteObjectManager.obj
 0001:00065310       ?_Assign_rv@?$vector@UnEnemies@@V?$allocator@UnEnemies@@@std@@@std@@QAEX$$QAV12@U?$integral_constant@_N$00@2@@Z 00466310 f i RD1Engined:SpriteObjectManager.obj
 0001:000653d0       ?_Buy@?$vector@UnEnemies@@V?$allocator@UnEnemies@@@std@@@std@@IAE_NI@Z 004663d0 f i RD1Engined:SpriteObjectManager.obj
 0001:000654b0       ?_Compat@?$_Vector_const_iterator@V?$_Vector_val@U?$_Simple_types@PAVFrameManager@@@std@@@std@@@std@@QBEXABV12@@Z 004664b0 f i RD1Engined:SpriteObjectManager.obj
 0001:00065590       ?_Destroy@?$vector@UGFXData@@V?$allocator@UGFXData@@@std@@@std@@IAEXPAUGFXData@@0@Z 00466590 f i RD1Engined:SpriteObjectManager.obj
 0001:000655f0       ?_Destroy@?$vector@UnEnemies@@V?$allocator@UnEnemies@@@std@@@std@@IAEXPAUnEnemies@@0@Z 004665f0 f i RD1Engined:SpriteObjectManager.obj
 0001:00065650       ?_Destroy@?$vector@UnEnemyList@@V?$allocator@UnEnemyList@@@std@@@std@@IAEXPAUnEnemyList@@0@Z 00466650 f i RD1Engined:SpriteObjectManager.obj
 0001:000656b0       ?_Free_proxy@?$_Vector_alloc@U?$_Vec_base_types@UGFXData@@V?$allocator@UGFXData@@@std@@@std@@@std@@QAEXXZ 004666b0 f i RD1Engined:SpriteObjectManager.obj
 0001:00065790       ?_Free_proxy@?$_Vector_alloc@U?$_Vec_base_types@UnEnemies@@V?$allocator@UnEnemies@@@std@@@std@@@std@@QAEXXZ 00466790 f i RD1Engined:SpriteObjectManager.obj
 0001:00065870       ?_Free_proxy@?$_Vector_alloc@U?$_Vec_base_types@UnEnemyList@@V?$allocator@UnEnemyList@@@std@@@std@@@std@@QAEXXZ 00466870 f i RD1Engined:SpriteObjectManager.obj
 0001:00065950       ?_Get_first@?$_Compressed_pair@U?$_Wrap_alloc@V?$allocator@UGFXData@@@std@@@std@@V?$_Vector_val@U?$_Simple_types@UGFXData@@@std@@@2@$00@std@@QAEAAU?$_Wrap_alloc@V?$allocator@UGFXData@@@std@@@2@XZ 00466950 f i RD1Engined:SpriteObjectManager.obj
 0001:00065980       ?_Get_first@?$_Compressed_pair@U?$_Wrap_alloc@V?$allocator@UGFXData@@@std@@@std@@V?$_Vector_val@U?$_Simple_types@UGFXData@@@std@@@2@$00@std@@QBEABU?$_Wrap_alloc@V?$allocator@UGFXData@@@std@@@2@XZ 00466980 f i RD1Engined:SpriteObjectManager.obj
 0001:000659b0       ?_Get_first@?$_Compressed_pair@U?$_Wrap_alloc@V?$allocator@UnEnemies@@@std@@@std@@V?$_Vector_val@U?$_Simple_types@UnEnemies@@@std@@@2@$00@std@@QAEAAU?$_Wrap_alloc@V?$allocator@UnEnemies@@@std@@@2@XZ 004669b0 f i RD1Engined:SpriteObjectManager.obj
 0001:000659e0       ?_Get_first@?$_Compressed_pair@U?$_Wrap_alloc@V?$allocator@UnEnemies@@@std@@@std@@V?$_Vector_val@U?$_Simple_types@UnEnemies@@@std@@@2@$00@std@@QBEABU?$_Wrap_alloc@V?$allocator@UnEnemies@@@std@@@2@XZ 004669e0 f i RD1Engined:SpriteObjectManager.obj
 0001:00065a10       ?_Get_first@?$_Compressed_pair@U?$_Wrap_alloc@V?$allocator@UnEnemyList@@@std@@@std@@V?$_Vector_val@U?$_Simple_types@UnEnemyList@@@std@@@2@$00@std@@QAEAAU?$_Wrap_alloc@V?$allocator@UnEnemyList@@@std@@@2@XZ 00466a10 f i RD1Engined:SpriteObjectManager.obj
 0001:00065a40       ?_Get_first@?$_Compressed_pair@U?$_Wrap_alloc@V?$allocator@UnEnemyList@@@std@@@std@@V?$_Vector_val@U?$_Simple_types@UnEnemyList@@@std@@@2@$00@std@@QBEABU?$_Wrap_alloc@V?$allocator@UnEnemyList@@@std@@@2@XZ 00466a40 f i RD1Engined:SpriteObjectManager.obj
 0001:00065a70       ?_Getal@?$_Vector_alloc@U?$_Vec_base_types@UGFXData@@V?$allocator@UGFXData@@@std@@@std@@@std@@QAEAAU?$_Wrap_alloc@V?$allocator@UGFXData@@@std@@@2@XZ 00466a70 f i RD1Engined:SpriteObjectManager.obj
 0001:00065ab0       ?_Getal@?$_Vector_alloc@U?$_Vec_base_types@UGFXData@@V?$allocator@UGFXData@@@std@@@std@@@std@@QBEABU?$_Wrap_alloc@V?$allocator@UGFXData@@@std@@@2@XZ 00466ab0 f i RD1Engined:SpriteObjectManager.obj
 0001:00065af0       ?_Getal@?$_Vector_alloc@U?$_Vec_base_types@UnEnemies@@V?$allocator@UnEnemies@@@std@@@std@@@std@@QAEAAU?$_Wrap_alloc@V?$allocator@UnEnemies@@@std@@@2@XZ 00466af0 f i RD1Engined:SpriteObjectManager.obj
 0001:00065b30       ?_Getal@?$_Vector_alloc@U?$_Vec_base_types@UnEnemies@@V?$allocator@UnEnemies@@@std@@@std@@@std@@QBEABU?$_Wrap_alloc@V?$allocator@UnEnemies@@@std@@@2@XZ 00466b30 f i RD1Engined:SpriteObjectManager.obj
 0001:00065b70       ?_Getal@?$_Vector_alloc@U?$_Vec_base_types@UnEnemyList@@V?$allocator@UnEnemyList@@@std@@@std@@@std@@QAEAAU?$_Wrap_alloc@V?$allocator@UnEnemyList@@@std@@@2@XZ 00466b70 f i RD1Engined:SpriteObjectManager.obj
 0001:00065bb0       ?_Getal@?$_Vector_alloc@U?$_Vec_base_types@UnEnemyList@@V?$allocator@UnEnemyList@@@std@@@std@@@std@@QBEABU?$_Wrap_alloc@V?$allocator@UnEnemyList@@@std@@@2@XZ 00466bb0 f i RD1Engined:SpriteObjectManager.obj
 0001:00065bf0       ?_Getpfirst@?$_Vector_alloc@U?$_Vec_base_types@UGFXData@@V?$allocator@UGFXData@@@std@@@std@@@std@@QBEPAPAU_Iterator_base12@2@XZ 00466bf0 f i RD1Engined:SpriteObjectManager.obj
 0001:00065c40       ?_Getpfirst@?$_Vector_alloc@U?$_Vec_base_types@UnEnemies@@V?$allocator@UnEnemies@@@std@@@std@@@std@@QBEPAPAU_Iterator_base12@2@XZ 00466c40 f i RD1Engined:SpriteObjectManager.obj
 0001:00065c90       ?_Getpfirst@?$_Vector_alloc@U?$_Vec_base_types@UnEnemyList@@V?$allocator@UnEnemyList@@@std@@@std@@@std@@QBEPAPAU_Iterator_base12@2@XZ 00466c90 f i RD1Engined:SpriteObjectManager.obj
 0001:00065ce0       ?_Grow_to@?$vector@UGFXData@@V?$allocator@UGFXData@@@std@@@std@@IBEII@Z 00466ce0 f i RD1Engined:SpriteObjectManager.obj
 0001:00065d70       ?_Grow_to@?$vector@UnEnemies@@V?$allocator@UnEnemies@@@std@@@std@@IBEII@Z 00466d70 f i RD1Engined:SpriteObjectManager.obj
 0001:00065e00       ?_Grow_to@?$vector@UnEnemyList@@V?$allocator@UnEnemyList@@@std@@@std@@IBEII@Z 00466e00 f i RD1Engined:SpriteObjectManager.obj
 0001:00065e90       ?_Inside@?$vector@UnEnemies@@V?$allocator@UnEnemies@@@std@@@std@@IBE_NPBUnEnemies@@@Z 00466e90 f i RD1Engined:SpriteObjectManager.obj
 0001:00065f20       ?_Inside@?$vector@UnEnemyList@@V?$allocator@UnEnemyList@@@std@@@std@@IBE_NPBUnEnemyList@@@Z 00466f20 f i RD1Engined:SpriteObjectManager.obj
 0001:00065fb0       ?_Make_iter@?$vector@UnEnemies@@V?$allocator@UnEnemies@@@std@@@std@@QBE?AV?$_Vector_iterator@V?$_Vector_val@U?$_Simple_types@UnEnemies@@@std@@@std@@@2@V?$_Vector_const_iterator@V?$_Vector_val@U?$_Simple_types@UnEnemies@@@std@@@std@@@2@@Z 00466fb0 f i RD1Engined:SpriteObjectManager.obj
 0001:00066060       ?_Myend@?$_Vector_alloc@U?$_Vec_base_types@UGFXData@@V?$allocator@UGFXData@@@std@@@std@@@std@@QAEAAPAUGFXData@@XZ 00467060 f i RD1Engined:SpriteObjectManager.obj
 0001:000660b0       ?_Myend@?$_Vector_alloc@U?$_Vec_base_types@UGFXData@@V?$allocator@UGFXData@@@std@@@std@@@std@@QBEABQAUGFXData@@XZ 004670b0 f i RD1Engined:SpriteObjectManager.obj
 0001:00066100       ?_Myend@?$_Vector_alloc@U?$_Vec_base_types@UnEnemies@@V?$allocator@UnEnemies@@@std@@@std@@@std@@QAEAAPAUnEnemies@@XZ 00467100 f i RD1Engined:SpriteObjectManager.obj
 0001:00066150       ?_Myend@?$_Vector_alloc@U?$_Vec_base_types@UnEnemies@@V?$allocator@UnEnemies@@@std@@@std@@@std@@QBEABQAUnEnemies@@XZ 00467150 f i RD1Engined:SpriteObjectManager.obj
 0001:000661a0       ?_Myend@?$_Vector_alloc@U?$_Vec_base_types@UnEnemyList@@V?$allocator@UnEnemyList@@@std@@@std@@@std@@QAEAAPAUnEnemyList@@XZ 004671a0 f i RD1Engined:SpriteObjectManager.obj
 0001:000661f0       ?_Myend@?$_Vector_alloc@U?$_Vec_base_types@UnEnemyList@@V?$allocator@UnEnemyList@@@std@@@std@@@std@@QBEABQAUnEnemyList@@XZ 004671f0 f i RD1Engined:SpriteObjectManager.obj
 0001:00066240       ?_Mylast@?$_Vector_alloc@U?$_Vec_base_types@UGFXData@@V?$allocator@UGFXData@@@std@@@std@@@std@@QAEAAPAUGFXData@@XZ 00467240 f i RD1Engined:SpriteObjectManager.obj
 0001:00066290       ?_Mylast@?$_Vector_alloc@U?$_Vec_base_types@UnEnemies@@V?$allocator@UnEnemies@@@std@@@std@@@std@@QAEAAPAUnEnemies@@XZ 00467290 f i RD1Engined:SpriteObjectManager.obj
 0001:000662e0       ?_Mylast@?$_Vector_alloc@U?$_Vec_base_types@UnEnemyList@@V?$allocator@UnEnemyList@@@std@@@std@@@std@@QAEAAPAUnEnemyList@@XZ 004672e0 f i RD1Engined:SpriteObjectManager.obj
 0001:00066330       ?_Myproxy@?$_Vector_alloc@U?$_Vec_base_types@UGFXData@@V?$allocator@UGFXData@@@std@@@std@@@std@@QAEAAPAU_Container_proxy@2@XZ 00467330 f i RD1Engined:SpriteObjectManager.obj
 0001:00066370       ?_Myproxy@?$_Vector_alloc@U?$_Vec_base_types@UnEnemies@@V?$allocator@UnEnemies@@@std@@@std@@@std@@QAEAAPAU_Container_proxy@2@XZ 00467370 f i RD1Engined:SpriteObjectManager.obj
 0001:000663b0       ?_Myproxy@?$_Vector_alloc@U?$_Vec_base_types@UnEnemyList@@V?$allocator@UnEnemyList@@@std@@@std@@@std@@QAEAAPAU_Container_proxy@2@XZ 004673b0 f i RD1Engined:SpriteObjectManager.obj
 0001:000663f0       ?_Orphan_all@?$_Vector_alloc@U?$_Vec_base_types@UGFXData@@V?$allocator@UGFXData@@@std@@@std@@@std@@QAEXXZ 004673f0 f i RD1Engined:SpriteObjectManager.obj
 0001:00066440       ?_Orphan_all@?$_Vector_alloc@U?$_Vec_base_types@UnEnemies@@V?$allocator@UnEnemies@@@std@@@std@@@std@@QAEXXZ 00467440 f i RD1Engined:SpriteObjectManager.obj
 0001:00066490       ?_Orphan_all@?$_Vector_alloc@U?$_Vec_base_types@UnEnemyList@@V?$allocator@UnEnemyList@@@std@@@std@@@std@@QAEXXZ 00467490 f i RD1Engined:SpriteObjectManager.obj
 0001:000664e0       ?_Orphan_range@?$vector@UGFXData@@V?$allocator@UGFXData@@@std@@@std@@IBEXPAUGFXData@@0@Z 004674e0 f i RD1Engined:SpriteObjectManager.obj
 0001:00066610       ?_Orphan_range@?$vector@UnEnemies@@V?$allocator@UnEnemies@@@std@@@std@@IBEXPAUnEnemies@@0@Z 00467610 f i RD1Engined:SpriteObjectManager.obj
 0001:00066740       ?_Orphan_range@?$vector@UnEnemyList@@V?$allocator@UnEnemyList@@@std@@@std@@IBEXPAUnEnemyList@@0@Z 00467740 f i RD1Engined:SpriteObjectManager.obj
 0001:00066870       ?_Pop_back_n@?$vector@UGFXData@@V?$allocator@UGFXData@@@std@@@std@@QAEXI@Z 00467870 f i RD1Engined:SpriteObjectManager.obj
 0001:00066900       ?_Reallocate@?$vector@UGFXData@@V?$allocator@UGFXData@@@std@@@std@@IAEXI@Z 00467900 f i RD1Engined:SpriteObjectManager.obj
 0001:00066a90       ?_Reallocate@?$vector@UnEnemies@@V?$allocator@UnEnemies@@@std@@@std@@IAEXI@Z 00467a90 f i RD1Engined:SpriteObjectManager.obj
 0001:00066c20       ?_Reallocate@?$vector@UnEnemyList@@V?$allocator@UnEnemyList@@@std@@@std@@IAEXI@Z 00467c20 f i RD1Engined:SpriteObjectManager.obj
 0001:00066db0       ?_Reserve@?$vector@UGFXData@@V?$allocator@UGFXData@@@std@@@std@@IAEXI@Z 00467db0 f i RD1Engined:SpriteObjectManager.obj
 0001:00066e40       ?_Reserve@?$vector@UnEnemies@@V?$allocator@UnEnemies@@@std@@@std@@IAEXI@Z 00467e40 f i RD1Engined:SpriteObjectManager.obj
 0001:00066ed0       ?_Reserve@?$vector@UnEnemyList@@V?$allocator@UnEnemyList@@@std@@@std@@IAEXI@Z 00467ed0 f i RD1Engined:SpriteObjectManager.obj
 0001:00066f60       ?_Swap_all@?$_Vector_alloc@U?$_Vec_base_types@UnEnemies@@V?$allocator@UnEnemies@@@std@@@std@@@std@@QAEXAAV12@@Z 00467f60 f i RD1Engined:SpriteObjectManager.obj
 0001:00066fc0       ?_Swap_all@_Container_base12@std@@QAEXAAU12@@Z 00467fc0 f i RD1Engined:SpriteObjectManager.obj
 0001:000670a0       ?_Tidy@?$vector@UGFXData@@V?$allocator@UGFXData@@@std@@@std@@IAEXXZ 004680a0 f i RD1Engined:SpriteObjectManager.obj
 0001:00067170       ?_Tidy@?$vector@UnEnemies@@V?$allocator@UnEnemies@@@std@@@std@@IAEXXZ 00468170 f i RD1Engined:SpriteObjectManager.obj
 0001:00067250       ?_Tidy@?$vector@UnEnemyList@@V?$allocator@UnEnemyList@@@std@@@std@@IAEXXZ 00468250 f i RD1Engined:SpriteObjectManager.obj
 0001:00067330       ?_Unchecked@?$_Vector_const_iterator@V?$_Vector_val@U?$_Simple_types@UnEnemies@@@std@@@std@@@std@@QBEPBUnEnemies@@XZ 00468330 f i RD1Engined:SpriteObjectManager.obj
 0001:00067360       ?_Unused_capacity@?$vector@UGFXData@@V?$allocator@UGFXData@@@std@@@std@@QBEIXZ 00468360 f i RD1Engined:SpriteObjectManager.obj
 0001:000673c0       ?_Unused_capacity@?$vector@UnEnemies@@V?$allocator@UnEnemies@@@std@@@std@@QBEIXZ 004683c0 f i RD1Engined:SpriteObjectManager.obj
 0001:00067420       ?_Unused_capacity@?$vector@UnEnemyList@@V?$allocator@UnEnemyList@@@std@@@std@@QBEIXZ 00468420 f i RD1Engined:SpriteObjectManager.obj
 0001:00067480       ?_Xlen@?$vector@UGFXData@@V?$allocator@UGFXData@@@std@@@std@@IBEXXZ 00468480 f i RD1Engined:SpriteObjectManager.obj
 0001:000674d0       ?_Xlen@?$vector@UnEnemies@@V?$allocator@UnEnemies@@@std@@@std@@IBEXXZ 004684d0 f i RD1Engined:SpriteObjectManager.obj
 0001:00067520       ?_Xlen@?$vector@UnEnemyList@@V?$allocator@UnEnemyList@@@std@@@std@@IBEXXZ 00468520 f i RD1Engined:SpriteObjectManager.obj
 0001:00067570       ?__autoclassinit2@?$_Vector_const_iterator@V?$_Vector_val@U?$_Simple_types@PAVFrameManager@@@std@@@std@@@std@@QAEXI@Z 00468570 f i RD1Engined:SpriteObjectManager.obj
 0001:000675c0       ?__autoclassinit2@?$_Vector_iterator@V?$_Vector_val@U?$_Simple_types@UnEnemies@@@std@@@std@@@std@@QAEXI@Z 004685c0 f i RD1Engined:SpriteObjectManager.obj
 0001:00067610       ?allocate@?$_Wrap_alloc@V?$allocator@UGFXData@@@std@@@std@@QAEPAUGFXData@@I@Z 00468610 f i RD1Engined:SpriteObjectManager.obj
 0001:00067660       ?allocate@?$_Wrap_alloc@V?$allocator@UnEnemies@@@std@@@std@@QAEPAUnEnemies@@I@Z 00468660 f i RD1Engined:SpriteObjectManager.obj
 0001:000676b0       ?allocate@?$_Wrap_alloc@V?$allocator@UnEnemyList@@@std@@@std@@QAEPAUnEnemyList@@I@Z 004686b0 f i RD1Engined:SpriteObjectManager.obj
 0001:00067700       ?allocate@?$allocator@UGFXData@@@std@@QAEPAUGFXData@@I@Z 00468700 f i RD1Engined:SpriteObjectManager.obj
 0001:00067750       ?allocate@?$allocator@UnEnemies@@@std@@QAEPAUnEnemies@@I@Z 00468750 f i RD1Engined:SpriteObjectManager.obj
 0001:000677a0       ?allocate@?$allocator@UnEnemyList@@@std@@QAEPAUnEnemyList@@I@Z 004687a0 f i RD1Engined:SpriteObjectManager.obj
 0001:000677f0       ?begin@?$vector@PAVFrameManager@@V?$allocator@PAVFrameManager@@@std@@@std@@QAE?AV?$_Vector_iterator@V?$_Vector_val@U?$_Simple_types@PAVFrameManager@@@std@@@std@@@2@XZ 004687f0 f i RD1Engined:SpriteObjectManager.obj
 0001:00067880       ?begin@?$vector@UnEnemies@@V?$allocator@UnEnemies@@@std@@@std@@QAE?AV?$_Vector_iterator@V?$_Vector_val@U?$_Simple_types@UnEnemies@@@std@@@std@@@2@XZ 00468880 f i RD1Engined:SpriteObjectManager.obj
 0001:00067910       ?begin@?$vector@UnEnemies@@V?$allocator@UnEnemies@@@std@@@std@@QBE?AV?$_Vector_const_iterator@V?$_Vector_val@U?$_Simple_types@UnEnemies@@@std@@@std@@@2@XZ 00468910 f i RD1Engined:SpriteObjectManager.obj
 0001:000679a0       ?capacity@?$vector@UGFXData@@V?$allocator@UGFXData@@@std@@@std@@QBEIXZ 004689a0 f i RD1Engined:SpriteObjectManager.obj
 0001:00067a00       ?capacity@?$vector@UnEnemies@@V?$allocator@UnEnemies@@@std@@@std@@QBEIXZ 00468a00 f i RD1Engined:SpriteObjectManager.obj
 0001:00067a60       ?capacity@?$vector@UnEnemyList@@V?$allocator@UnEnemyList@@@std@@@std@@QBEIXZ 00468a60 f i RD1Engined:SpriteObjectManager.obj
 0001:00067ac0       ?clear@?$vector@PAVFrameManager@@V?$allocator@PAVFrameManager@@@std@@@std@@QAEXXZ 00468ac0 f i RD1Engined:SpriteObjectManager.obj
 0001:00067b60       ?clear@?$vector@UnEnemies@@V?$allocator@UnEnemies@@@std@@@std@@QAEXXZ 00468b60 f i RD1Engined:SpriteObjectManager.obj
 0001:00067c00       ?deallocate@?$_Wrap_alloc@V?$allocator@UGFXData@@@std@@@std@@QAEXPAUGFXData@@I@Z 00468c00 f i RD1Engined:SpriteObjectManager.obj
 0001:00067c50       ?deallocate@?$_Wrap_alloc@V?$allocator@UnEnemies@@@std@@@std@@QAEXPAUnEnemies@@I@Z 00468c50 f i RD1Engined:SpriteObjectManager.obj
 0001:00067ca0       ?deallocate@?$_Wrap_alloc@V?$allocator@UnEnemyList@@@std@@@std@@QAEXPAUnEnemyList@@I@Z 00468ca0 f i RD1Engined:SpriteObjectManager.obj
 0001:00067cf0       ?deallocate@?$allocator@UGFXData@@@std@@QAEXPAUGFXData@@I@Z 00468cf0 f i RD1Engined:SpriteObjectManager.obj
 0001:00067d40       ?deallocate@?$allocator@UnEnemies@@@std@@QAEXPAUnEnemies@@I@Z 00468d40 f i RD1Engined:SpriteObjectManager.obj
 0001:00067d90       ?deallocate@?$allocator@UnEnemyList@@@std@@QAEXPAUnEnemyList@@I@Z 00468d90 f i RD1Engined:SpriteObjectManager.obj
 0001:00067de0       ?end@?$vector@PAVFrameManager@@V?$allocator@PAVFrameManager@@@std@@@std@@QAE?AV?$_Vector_iterator@V?$_Vector_val@U?$_Simple_types@PAVFrameManager@@@std@@@std@@@2@XZ 00468de0 f i RD1Engined:SpriteObjectManager.obj
 0001:00067e70       ?end@?$vector@UnEnemies@@V?$allocator@UnEnemies@@@std@@@std@@QBE?AV?$_Vector_const_iterator@V?$_Vector_val@U?$_Simple_types@UnEnemies@@@std@@@std@@@2@XZ 00468e70 f i RD1Engined:SpriteObjectManager.obj
 0001:00067f00       ?erase@?$vector@UnEnemies@@V?$allocator@UnEnemies@@@std@@@std@@QAE?AV?$_Vector_iterator@V?$_Vector_val@U?$_Simple_types@UnEnemies@@@std@@@std@@@2@V?$_Vector_const_iterator@V?$_Vector_val@U?$_Simple_types@UnEnemies@@@std@@@std@@@2@@Z 00468f00 f i RD1Engined:SpriteObjectManager.obj
 0001:00068090       ?max_size@?$_Wrap_alloc@V?$allocator@UGFXData@@@std@@@std@@QBEIU_Nil@2@@Z 00469090 f i RD1Engined:SpriteObjectManager.obj
 0001:000680e0       ?max_size@?$_Wrap_alloc@V?$allocator@UnEnemies@@@std@@@std@@QBEIU_Nil@2@@Z 004690e0 f i RD1Engined:SpriteObjectManager.obj
 0001:00068130       ?max_size@?$_Wrap_alloc@V?$allocator@UnEnemyList@@@std@@@std@@QBEIU_Nil@2@@Z 00469130 f i RD1Engined:SpriteObjectManager.obj
 0001:00068180       ?max_size@?$allocator@UGFXData@@@std@@QBEIXZ 00469180 f i RD1Engined:SpriteObjectManager.obj
 0001:000681b0       ?max_size@?$allocator@UnEnemies@@@std@@QBEIXZ 004691b0 f i RD1Engined:SpriteObjectManager.obj
 0001:000681e0       ?max_size@?$allocator@UnEnemyList@@@std@@QBEIXZ 004691e0 f i RD1Engined:SpriteObjectManager.obj
 0001:00068210       ?max_size@?$allocator_traits@V?$allocator@UGFXData@@@std@@@std@@SAIABV?$allocator@UGFXData@@@2@@Z 00469210 f i RD1Engined:SpriteObjectManager.obj
 0001:00068250       ?max_size@?$allocator_traits@V?$allocator@UnEnemies@@@std@@@std@@SAIABV?$allocator@UnEnemies@@@2@@Z 00469250 f i RD1Engined:SpriteObjectManager.obj
 0001:00068290       ?max_size@?$allocator_traits@V?$allocator@UnEnemyList@@@std@@@std@@SAIABV?$allocator@UnEnemyList@@@2@@Z 00469290 f i RD1Engined:SpriteObjectManager.obj
 0001:000682d0       ?max_size@?$vector@UGFXData@@V?$allocator@UGFXData@@@std@@@std@@QBEIXZ 004692d0 f i RD1Engined:SpriteObjectManager.obj
 0001:00068320       ?max_size@?$vector@UnEnemies@@V?$allocator@UnEnemies@@@std@@@std@@QBEIXZ 00469320 f i RD1Engined:SpriteObjectManager.obj
 0001:00068370       ?max_size@?$vector@UnEnemyList@@V?$allocator@UnEnemyList@@@std@@@std@@QBEIXZ 00469370 f i RD1Engined:SpriteObjectManager.obj
 0001:000683c0       ?push_back@?$vector@UnEnemies@@V?$allocator@UnEnemies@@@std@@@std@@QAEXABUnEnemies@@@Z 004693c0 f i RD1Engined:SpriteObjectManager.obj
 0001:00068570       ?push_back@?$vector@UnEnemyList@@V?$allocator@UnEnemyList@@@std@@@std@@QAEXABUnEnemyList@@@Z 00469570 f i RD1Engined:SpriteObjectManager.obj
 0001:00068720       ?resize@?$vector@UGFXData@@V?$allocator@UGFXData@@@std@@@std@@QAEXI@Z 00469720 f i RD1Engined:SpriteObjectManager.obj
 0001:00068860       ?select_on_container_copy_construction@?$_Wrap_alloc@V?$allocator@UnEnemies@@@std@@@std@@QBE?AU12@U_Nil@2@@Z 00469860 f i RD1Engined:SpriteObjectManager.obj
 0001:000688c0       ?select_on_container_copy_construction@?$allocator_traits@V?$allocator@UnEnemies@@@std@@@std@@SA?AV?$allocator@UnEnemies@@@2@ABV32@@Z 004698c0 f i RD1Engined:SpriteObjectManager.obj
 0001:00068910       ??1type_info@@UAE@XZ       00469910 f   RD1Engined:std_type_info_static.obj
 0001:00068930       ??_Gtype_info@@UAEPAXI@Z   00469930 f i RD1Engined:std_type_info_static.obj
 0001:00068930       ??_Etype_info@@UAEPAXI@Z   00469930 f i RD1Engined:std_type_info_static.obj
 0001:00068960       ??_U@YAPAXI@Z              00469960 f   RD1Engined:new_array.obj
 0001:00068980       ??_V@YAXPAX@Z              00469980 f   RD1Engined:delete_array.obj
 0001:000689a0       ___raise_securityfailure   004699a0 f   RD1Engined:gs_report.obj
 0001:000689d0       ___report_gsfailure        004699d0 f   RD1Engined:gs_report.obj
 0001:00068ae0       ___report_rangecheckfailure 00469ae0 f   RD1Engined:gs_report.obj
 0001:00068af0       ___report_securityfailure  00469af0 f   RD1Engined:gs_report.obj
 0001:00068bd0       ??0TileBuffer@@QAE@XZ      00469bd0 f   RD1Engined:tilebuffer.obj
 0001:00068c20       ??1TileBuffer@@QAE@XZ      00469c20 f   RD1Engined:tilebuffer.obj
 0001:00068c90       ??ATileBuffer@@QAEPBEH@Z   00469c90 f   RD1Engined:tilebuffer.obj
 0001:00068cf0       ?Destroy@TileBuffer@@QAEXXZ 00469cf0 f   RD1Engined:tilebuffer.obj
 0001:00068d80       ?Load@TileBuffer@@QAEXPAEH@Z 00469d80 f   RD1Engined:tilebuffer.obj
 0001:00068ec0       ?Zero@TileBuffer@@IAEXXZ   00469ec0 f   RD1Engined:tilebuffer.obj
 0001:00068f10       ??0Image@@QAE@HH@Z         00469f10 f   RD1Engined:image.obj
 0001:00068f80       ??0Image@@QAE@XZ           00469f80 f   RD1Engined:image.obj
 0001:00068fe0       ??1Image@@QAE@XZ           00469fe0 f   RD1Engined:image.obj
 0001:000690f0       ?Blit@Image@@QAEXPAUHDC__@@HHHHHH@Z 0046a0f0 f   RD1Engined:image.obj
 0001:00069170       ?Clear@Image@@QAEXXZ       0046a170 f   RD1Engined:image.obj
 0001:000691d0       ?Create@Image@@QAEXHH@Z    0046a1d0 f   RD1Engined:image.obj
 0001:00069460       ?DC@Image@@QAEPAUHDC__@@XZ 0046a460 f   RD1Engined:image.obj
 0001:00069490       ?Destroy@Image@@QAEXXZ     0046a490 f   RD1Engined:image.obj
 0001:00069580       ?DestroyImage@Image@@IAEXPAUHDC__@@PAUHBITMAP__@@1@Z 0046a580 f   RD1Engined:image.obj
 0001:00069660       ?Draw@Image@@QAEXAAVTileBuffer@@JJHH@Z 0046a660 f   RD1Engined:image.obj
 0001:00069700       ?Draw@Image@@QAEXPBEJJHHH@Z 0046a700 f   RD1Engined:image.obj
 0001:00069940       ?Fill@Image@@QAEXHHHHE@Z   0046a940 f   RD1Engined:image.obj
 0001:00069a40       ?RebuildMask@Image@@IAEXXZ 0046aa40 f   RD1Engined:image.obj
 0001:00069b90       ?SetPalette@Image@@QAEXPAJHH@Z 0046ab90 f   RD1Engined:image.obj
 0001:00069cd0       ?TransBlit@Image@@QAEXPAUHDC__@@HHHHHH@Z 0046acd0 f   RD1Engined:image.obj
 0001:00069da0       ?Zero@Image@@IAEXXZ        0046ada0 f   RD1Engined:image.obj
 0001:00069e50       ?__autoclassinit2@TileBuffer@@QAEXI@Z 0046ae50 f i RD1Engined:image.obj
 0001:00069ea0       ??0MemFile@@QAE@PADH@Z     0046aea0 f   RD1Engined:MemFile.obj
 0001:00069fe0       ??1MemFile@@QAE@XZ         0046afe0 f   RD1Engined:MemFile.obj
 0001:0006a040       ?FileSize@MemFile@@QAEHXZ  0046b040 f   RD1Engined:MemFile.obj
 0001:0006a070       ?GetFile@MemFile@@QAEPAEXZ 0046b070 f   RD1Engined:MemFile.obj
 0001:0006a0a0       ?ValidFileSize@MemFile@@QAE_NXZ 0046b0a0 f   RD1Engined:MemFile.obj
 0001:0006a100       ?fgetc@MemFile@@QAEEXZ     0046b100 f   RD1Engined:MemFile.obj
 0001:0006a160       ?fputc@MemFile@@QAEEE@Z    0046b160 f   RD1Engined:MemFile.obj
 0001:0006a1c0       ?fread@MemFile@@QAEXPAXHH@Z 0046b1c0 f   RD1Engined:MemFile.obj
 0001:0006a260       ?ftell@MemFile@@QAEHXZ     0046b260 f   RD1Engined:MemFile.obj
 0001:0006a290       ?fwrite@MemFile@@QAEXPAXHH@Z 0046b290 f   RD1Engined:MemFile.obj
 0001:0006a410       ?save@MemFile@@QAEXPAD@Z   0046b410 f   RD1Engined:MemFile.obj
 0001:0006a4c0       ?save@MemFile@@QAEXXZ      0046b4c0 f   RD1Engined:MemFile.obj
 0001:0006a510       ?seek@MemFile@@QAEXK@Z     0046b510 f   RD1Engined:MemFile.obj
 0001:0006a640       ??$?0$$V@?$_Compressed_pair@U?$_Wrap_alloc@V?$allocator@UgTileData@@@std@@@std@@V?$_Vector_val@U?$_Simple_types@UgTileData@@@std@@@2@$00@std@@QAE@U_Zero_then_variadic_args_t@1@@Z 0046b640 f i RD1Engined:TilesetMananger.obj
 0001:0006a690       ??$?0AAU?$_Wrap_alloc@V?$allocator@UgTileData@@@std@@@std@@@?$_Wrap_alloc@V?$allocator@U_Container_proxy@std@@@std@@@std@@QAE@AAU?$_Wrap_alloc@V?$allocator@UgTileData@@@std@@@1@@Z 0046b690 f i RD1Engined:TilesetMananger.obj
 0001:0006a6f0       ??$?0UgTileData@@@?$allocator@U_Container_proxy@std@@@std@@QAE@ABV?$allocator@UgTileData@@@1@@Z 0046b6f0 f i RD1Engined:TilesetMananger.obj
 0001:0006a720       ??$_Copy_memmove@PAUgTileData@@PAU1@@std@@YAPAUgTileData@@PAU1@00@Z 0046b720 f i RD1Engined:TilesetMananger.obj
 0001:0006a7a0       ??$_Destroy_range1@V?$allocator@UgTileData@@@std@@PAUgTileData@@@std@@YAXPAUgTileData@@0AAU?$_Wrap_alloc@V?$allocator@UgTileData@@@std@@@0@U?$integral_constant@_N$00@0@@Z 0046b7a0 f i RD1Engined:TilesetMananger.obj
 0001:0006a7d0       ??$_Destroy_range@V?$allocator@UgTileData@@@std@@PAUgTileData@@@std@@YAXPAUgTileData@@0AAU?$_Wrap_alloc@V?$allocator@UgTileData@@@std@@@0@@Z 0046b7d0 f i RD1Engined:TilesetMananger.obj
 0001:0006a820       ??$_Ptr_move_cat@UgTileData@@U1@@std@@YA?AU_Really_trivial_ptr_iterator_tag@0@ABQAUgTileData@@0@Z 0046b820 f i RD1Engined:TilesetMananger.obj
 0001:0006a850       ??$_Rechecked@PAUgTileData@@PAU1@@std@@YAAAPAUgTileData@@AAPAU1@PAU1@@Z 0046b850 f i RD1Engined:TilesetMananger.obj
 0001:0006a880       ??$_Umove@PAUgTileData@@@?$vector@UgTileData@@V?$allocator@UgTileData@@@std@@@std@@IAEPAUgTileData@@PAU2@00@Z 0046b880 f i RD1Engined:TilesetMananger.obj
 0001:0006a8e0       ??$_Unchecked@PAUgTileData@@@std@@YAPAUgTileData@@PAU1@@Z 0046b8e0 f i RD1Engined:TilesetMananger.obj
 0001:0006a910       ??$_Unfancy@UgTileData@@@std@@YAPAUgTileData@@PAU1@@Z 0046b910 f i RD1Engined:TilesetMananger.obj
 0001:0006a940       ??$_Uninitialized_move@PAUgTileData@@PAU1@V?$allocator@UgTileData@@@std@@@std@@YAPAUgTileData@@PAU1@00AAU?$_Wrap_alloc@V?$allocator@UgTileData@@@std@@@0@@Z 0046b940 f i RD1Engined:TilesetMananger.obj
 0001:0006a9c0       ??$_Uninitialized_move_al_unchecked1@UgTileData@@U1@V?$allocator@UgTileData@@@std@@@std@@YAPAUgTileData@@PAU1@00AAU?$_Wrap_alloc@V?$allocator@UgTileData@@@std@@@0@U_Really_trivial_ptr_iterator_tag@0@U?$integral_constant@_N$00@0@@Z 0046b9c0 f i RD1Engined:TilesetMananger.obj
 0001:0006aa10       ??$_Uninitialized_move_al_unchecked@PAUgTileData@@PAU1@V?$allocator@UgTileData@@@std@@@std@@YAPAUgTileData@@PAU1@00AAU?$_Wrap_alloc@V?$allocator@UgTileData@@@std@@@0@@Z 0046ba10 f i RD1Engined:TilesetMananger.obj
 0001:0006aa80       ??$addressof@$$CBUgTileData@@@std@@YAPBUgTileData@@ABU1@@Z 0046ba80 f i RD1Engined:TilesetMananger.obj
 0001:0006aab0       ??$construct@UgTileData@@AAU1@@?$_Wrap_alloc@V?$allocator@UgTileData@@@std@@@std@@QAEXPAUgTileData@@AAU2@@Z 0046bab0 f i RD1Engined:TilesetMananger.obj
 0001:0006ab10       ??$construct@UgTileData@@AAU1@@?$allocator@UgTileData@@@std@@QAEXPAUgTileData@@AAU2@@Z 0046bb10 f i RD1Engined:TilesetMananger.obj
 0001:0006abb0       ??$construct@UgTileData@@AAU1@@?$allocator_traits@V?$allocator@UgTileData@@@std@@@std@@SAXAAV?$allocator@UgTileData@@@1@PAUgTileData@@AAU3@@Z 0046bbb0 f i RD1Engined:TilesetMananger.obj
 0001:0006ac00       ??$construct@UgTileData@@ABU1@@?$_Wrap_alloc@V?$allocator@UgTileData@@@std@@@std@@QAEXPAUgTileData@@ABU2@@Z 0046bc00 f i RD1Engined:TilesetMananger.obj
 0001:0006ac60       ??$construct@UgTileData@@ABU1@@?$allocator@UgTileData@@@std@@QAEXPAUgTileData@@ABU2@@Z 0046bc60 f i RD1Engined:TilesetMananger.obj
 0001:0006ad00       ??$construct@UgTileData@@ABU1@@?$allocator_traits@V?$allocator@UgTileData@@@std@@@std@@SAXAAV?$allocator@UgTileData@@@1@PAUgTileData@@ABU3@@Z 0046bd00 f i RD1Engined:TilesetMananger.obj
 0001:0006ad50       ??$forward@AAU?$_Wrap_alloc@V?$allocator@UgTileData@@@std@@@std@@@std@@YAAAU?$_Wrap_alloc@V?$allocator@UgTileData@@@std@@@0@AAU10@@Z 0046bd50 f i RD1Engined:TilesetMananger.obj
 0001:0006ad80       ??$forward@AAUgTileData@@@std@@YAAAUgTileData@@AAU1@@Z 0046bd80 f i RD1Engined:TilesetMananger.obj
 0001:0006adb0       ??$forward@ABUgTileData@@@std@@YAABUgTileData@@ABU1@@Z 0046bdb0 f i RD1Engined:TilesetMananger.obj
 0001:0006ade0       ??0?$_Vector_alloc@U?$_Vec_base_types@UgTileData@@V?$allocator@UgTileData@@@std@@@std@@@std@@QAE@XZ 0046bde0 f i RD1Engined:TilesetMananger.obj
 0001:0006ae70       ??0?$_Vector_val@U?$_Simple_types@UgTileData@@@std@@@std@@QAE@XZ 0046be70 f i RD1Engined:TilesetMananger.obj
 0001:0006aed0       ??0?$_Wrap_alloc@V?$allocator@UgTileData@@@std@@@std@@QAE@XZ 0046bed0 f i RD1Engined:TilesetMananger.obj
 0001:0006af20       ??0?$allocator@UgTileData@@@std@@QAE@XZ 0046bf20 f i RD1Engined:TilesetMananger.obj
 0001:0006af50       ??0?$vector@UgTileData@@V?$allocator@UgTileData@@@std@@@std@@QAE@XZ 0046bf50 f i RD1Engined:TilesetMananger.obj
 0001:0006afc0       ??0TilesetManager@@QAE@PAVGBAMethods@@HPAVTileBuffer@@1@Z 0046bfc0 f   RD1Engined:TilesetMananger.obj
 0001:0006b050       ??1?$_Compressed_pair@U?$_Wrap_alloc@V?$allocator@UgTileData@@@std@@@std@@V?$_Vector_val@U?$_Simple_types@UgTileData@@@std@@@2@$00@std@@QAE@XZ 0046c050 f i RD1Engined:TilesetMananger.obj
 0001:0006b090       ??1?$_Vector_alloc@U?$_Vec_base_types@UgTileData@@V?$allocator@UgTileData@@@std@@@std@@@std@@QAE@XZ 0046c090 f i RD1Engined:TilesetMananger.obj
 0001:0006b110       ??1?$_Vector_val@U?$_Simple_types@UgTileData@@@std@@@std@@QAE@XZ 0046c110 f i RD1Engined:TilesetMananger.obj
 0001:0006b150       ??1?$vector@UgTileData@@V?$allocator@UgTileData@@@std@@@std@@QAE@XZ 0046c150 f i RD1Engined:TilesetMananger.obj
 0001:0006b1d0       ??1TilesetManager@@QAE@XZ  0046c1d0 f   RD1Engined:TilesetMananger.obj
 0001:0006b260       ??_GAnimatedTiles@@QAEPAXI@Z 0046c260 f i RD1Engined:TilesetMananger.obj
 0001:0006b2c0       ?DrawBlock@TilesetManager@@QAEHPAVImage@@FHH@Z 0046c2c0 f   RD1Engined:TilesetMananger.obj
 0001:0006b3b0       ?DrawTileset@TilesetManager@@QAEXPAPAVImage@@@Z 0046c3b0 f   RD1Engined:TilesetMananger.obj
 0001:0006b490       ?GetBackground@TilesetManager@@QAEHPAUgTileData@@@Z 0046c490 f   RD1Engined:TilesetMananger.obj
 0001:0006b620       ?GetBaseGFX@TilesetManager@@QAEXPAUgTileData@@@Z 0046c620 f   RD1Engined:TilesetMananger.obj
 0001:0006b820       ?GetBaseTileset@TilesetManager@@QAEXE@Z 0046c820 f   RD1Engined:TilesetMananger.obj
 0001:0006b920       ?GetPal@TilesetManager@@QAEXPAUgTileData@@@Z 0046c920 f   RD1Engined:TilesetMananger.obj
 0001:0006bad0       ?GetTileset@TilesetManager@@QAEHPAVImage@@EH@Z 0046cad0 f   RD1Engined:TilesetMananger.obj
 0001:0006bc60       ?ReadTSA@TilesetManager@@QAEXPAUgTileData@@@Z 0046cc60 f   RD1Engined:TilesetMananger.obj
 0001:0006bda0       ?ReadTable@TilesetManager@@QAEXXZ 0046cda0 f   RD1Engined:TilesetMananger.obj
 0001:0006bee0       ?Render@TilesetManager@@QAEXPAVImage@@@Z 0046cee0 f   RD1Engined:TilesetMananger.obj
 0001:0006bfc0       ?SaveTileset@TilesetManager@@QAEHE@Z 0046cfc0 f   RD1Engined:TilesetMananger.obj
 0001:0006c110       ?SaveTilesetPal@TilesetManager@@QAEHHE@Z 0046d110 f   RD1Engined:TilesetMananger.obj
 0001:0006c140       ?_Alloc_proxy@?$_Vector_alloc@U?$_Vec_base_types@UgTileData@@V?$allocator@UgTileData@@@std@@@std@@@std@@QAEXXZ 0046d140 f i RD1Engined:TilesetMananger.obj
 0001:0006c230       ?_Destroy@?$vector@UgTileData@@V?$allocator@UgTileData@@@std@@@std@@IAEXPAUgTileData@@0@Z 0046d230 f i RD1Engined:TilesetMananger.obj
 0001:0006c290       ?_Free_proxy@?$_Vector_alloc@U?$_Vec_base_types@UgTileData@@V?$allocator@UgTileData@@@std@@@std@@@std@@QAEXXZ 0046d290 f i RD1Engined:TilesetMananger.obj
 0001:0006c370       ?_Get_first@?$_Compressed_pair@U?$_Wrap_alloc@V?$allocator@UgTileData@@@std@@@std@@V?$_Vector_val@U?$_Simple_types@UgTileData@@@std@@@2@$00@std@@QAEAAU?$_Wrap_alloc@V?$allocator@UgTileData@@@std@@@2@XZ 0046d370 f i RD1Engined:TilesetMananger.obj
 0001:0006c3a0       ?_Get_first@?$_Compressed_pair@U?$_Wrap_alloc@V?$allocator@UgTileData@@@std@@@std@@V?$_Vector_val@U?$_Simple_types@UgTileData@@@std@@@2@$00@std@@QBEABU?$_Wrap_alloc@V?$allocator@UgTileData@@@std@@@2@XZ 0046d3a0 f i RD1Engined:TilesetMananger.obj
 0001:0006c3d0       ?_Getal@?$_Vector_alloc@U?$_Vec_base_types@UgTileData@@V?$allocator@UgTileData@@@std@@@std@@@std@@QAEAAU?$_Wrap_alloc@V?$allocator@UgTileData@@@std@@@2@XZ 0046d3d0 f i RD1Engined:TilesetMananger.obj
 0001:0006c410       ?_Getal@?$_Vector_alloc@U?$_Vec_base_types@UgTileData@@V?$allocator@UgTileData@@@std@@@std@@@std@@QBEABU?$_Wrap_alloc@V?$allocator@UgTileData@@@std@@@2@XZ 0046d410 f i RD1Engined:TilesetMananger.obj
 0001:0006c450       ?_Getpfirst@?$_Vector_alloc@U?$_Vec_base_types@UgTileData@@V?$allocator@UgTileData@@@std@@@std@@@std@@QBEPAPAU_Iterator_base12@2@XZ 0046d450 f i RD1Engined:TilesetMananger.obj
 0001:0006c4a0       ?_Grow_to@?$vector@UgTileData@@V?$allocator@UgTileData@@@std@@@std@@IBEII@Z 0046d4a0 f i RD1Engined:TilesetMananger.obj
 0001:0006c530       ?_Inside@?$vector@UgTileData@@V?$allocator@UgTileData@@@std@@@std@@IBE_NPBUgTileData@@@Z 0046d530 f i RD1Engined:TilesetMananger.obj
 0001:0006c5c0       ?_Myend@?$_Vector_alloc@U?$_Vec_base_types@UgTileData@@V?$allocator@UgTileData@@@std@@@std@@@std@@QAEAAPAUgTileData@@XZ 0046d5c0 f i RD1Engined:TilesetMananger.obj
 0001:0006c610       ?_Myend@?$_Vector_alloc@U?$_Vec_base_types@UgTileData@@V?$allocator@UgTileData@@@std@@@std@@@std@@QBEABQAUgTileData@@XZ 0046d610 f i RD1Engined:TilesetMananger.obj
 0001:0006c660       ?_Mylast@?$_Vector_alloc@U?$_Vec_base_types@UgTileData@@V?$allocator@UgTileData@@@std@@@std@@@std@@QAEAAPAUgTileData@@XZ 0046d660 f i RD1Engined:TilesetMananger.obj
 0001:0006c6b0       ?_Myproxy@?$_Vector_alloc@U?$_Vec_base_types@UgTileData@@V?$allocator@UgTileData@@@std@@@std@@@std@@QAEAAPAU_Container_proxy@2@XZ 0046d6b0 f i RD1Engined:TilesetMananger.obj
 0001:0006c6f0       ?_Orphan_all@?$_Vector_alloc@U?$_Vec_base_types@UgTileData@@V?$allocator@UgTileData@@@std@@@std@@@std@@QAEXXZ 0046d6f0 f i RD1Engined:TilesetMananger.obj
 0001:0006c740       ?_Orphan_range@?$vector@UgTileData@@V?$allocator@UgTileData@@@std@@@std@@IBEXPAUgTileData@@0@Z 0046d740 f i RD1Engined:TilesetMananger.obj
 0001:0006c870       ?_Reallocate@?$vector@UgTileData@@V?$allocator@UgTileData@@@std@@@std@@IAEXI@Z 0046d870 f i RD1Engined:TilesetMananger.obj
 0001:0006ca00       ?_Reserve@?$vector@UgTileData@@V?$allocator@UgTileData@@@std@@@std@@IAEXI@Z 0046da00 f i RD1Engined:TilesetMananger.obj
 0001:0006ca90       ?_Tidy@?$vector@UgTileData@@V?$allocator@UgTileData@@@std@@@std@@IAEXXZ 0046da90 f i RD1Engined:TilesetMananger.obj
 0001:0006cb70       ?_Unused_capacity@?$vector@UgTileData@@V?$allocator@UgTileData@@@std@@@std@@QBEIXZ 0046db70 f i RD1Engined:TilesetMananger.obj
 0001:0006cbd0       ?_Xlen@?$vector@UgTileData@@V?$allocator@UgTileData@@@std@@@std@@IBEXXZ 0046dbd0 f i RD1Engined:TilesetMananger.obj
 0001:0006cc20       ?_Xran@?$vector@UgTileData@@V?$allocator@UgTileData@@@std@@@std@@IBEXXZ 0046dc20 f i RD1Engined:TilesetMananger.obj
 0001:0006cc70       ?__autoclassinit2@AnimatedTiles@@QAEXI@Z 0046dc70 f i RD1Engined:TilesetMananger.obj
 0001:0006ccc0       ?allocate@?$_Wrap_alloc@V?$allocator@UgTileData@@@std@@@std@@QAEPAUgTileData@@I@Z 0046dcc0 f i RD1Engined:TilesetMananger.obj
 0001:0006cd10       ?allocate@?$allocator@UgTileData@@@std@@QAEPAUgTileData@@I@Z 0046dd10 f i RD1Engined:TilesetMananger.obj
 0001:0006cd60       ?at@?$vector@UgTileData@@V?$allocator@UgTileData@@@std@@@std@@QAEAAUgTileData@@I@Z 0046dd60 f i RD1Engined:TilesetMananger.obj
 0001:0006cdc0       ?capacity@?$vector@UgTileData@@V?$allocator@UgTileData@@@std@@@std@@QBEIXZ 0046ddc0 f i RD1Engined:TilesetMananger.obj
 0001:0006ce20       ?deallocate@?$_Wrap_alloc@V?$allocator@UgTileData@@@std@@@std@@QAEXPAUgTileData@@I@Z 0046de20 f i RD1Engined:TilesetMananger.obj
 0001:0006ce70       ?deallocate@?$allocator@UgTileData@@@std@@QAEXPAUgTileData@@I@Z 0046de70 f i RD1Engined:TilesetMananger.obj
 0001:0006cec0       ?max_size@?$_Wrap_alloc@V?$allocator@UgTileData@@@std@@@std@@QBEIU_Nil@2@@Z 0046dec0 f i RD1Engined:TilesetMananger.obj
 0001:0006cf10       ?max_size@?$allocator@UgTileData@@@std@@QBEIXZ 0046df10 f i RD1Engined:TilesetMananger.obj
 0001:0006cf40       ?max_size@?$allocator_traits@V?$allocator@UgTileData@@@std@@@std@@SAIABV?$allocator@UgTileData@@@2@@Z 0046df40 f i RD1Engined:TilesetMananger.obj
 0001:0006cf80       ?max_size@?$vector@UgTileData@@V?$allocator@UgTileData@@@std@@@std@@QBEIXZ 0046df80 f i RD1Engined:TilesetMananger.obj
 0001:0006cfd0       ?push_back@?$vector@UgTileData@@V?$allocator@UgTileData@@@std@@@std@@QAEXABUgTileData@@@Z 0046dfd0 f i RD1Engined:TilesetMananger.obj
 0001:0006d180       __chkstk                   0046e180 f   RD1Engined:chkstk.obj
 0001:0006d180       __alloca_probe             0046e180 f   RD1Engined:chkstk.obj
 0001:0006d1b0       ??0GBAGraphics@@QAE@XZ     0046e1b0 f   RD1Engined:GBAGraphics.obj
 0001:0006d260       ??1GBAGraphics@@QAE@XZ     0046e260 f   RD1Engined:GBAGraphics.obj
 0001:0006d290       ??_L@YGXPAXIIP6EX0@Z1@Z    0046e290 f   RD1Engined:ehvecctr.obj
 0001:0006d350       ??_M@YGXPAXIIP6EX0@Z@Z     0046e350 f   RD1Engined:ehvecdtr.obj
 0001:0006d440       ?__ArrayUnwind@@YGXPAXIIP6EX0@Z@Z 0046e440 f   RD1Engined:ehvecdtr.obj
 0001:0006d4f0       ??$?0$$V@?$_Compressed_pair@U?$_Wrap_alloc@V?$allocator@PAVFrame@@@std@@@std@@V?$_Vector_val@U?$_Simple_types@PAVFrame@@@std@@@2@$00@std@@QAE@U_Zero_then_variadic_args_t@1@@Z 0046e4f0 f i RD1Engined:FrameManager.obj
 0001:0006d540       ??$?0AAU?$_Wrap_alloc@V?$allocator@PAVFrame@@@std@@@std@@@?$_Wrap_alloc@V?$allocator@U_Container_proxy@std@@@std@@@std@@QAE@AAU?$_Wrap_alloc@V?$allocator@PAVFrame@@@std@@@1@@Z 0046e540 f i RD1Engined:FrameManager.obj
 0001:0006d5a0       ??$?0PAVFrame@@@?$allocator@U_Container_proxy@std@@@std@@QAE@ABV?$allocator@PAVFrame@@@1@@Z 0046e5a0 f i RD1Engined:FrameManager.obj
 0001:0006d5d0       ??$_Copy_memmove@PAPAVFrame@@PAPAV1@@std@@YAPAPAVFrame@@PAPAV1@00@Z 0046e5d0 f i RD1Engined:FrameManager.obj
 0001:0006d650       ??$_Destroy_range1@V?$allocator@PAVFrame@@@std@@PAPAVFrame@@@std@@YAXPAPAVFrame@@0AAU?$_Wrap_alloc@V?$allocator@PAVFrame@@@std@@@0@U?$integral_constant@_N$00@0@@Z 0046e650 f i RD1Engined:FrameManager.obj
 0001:0006d680       ??$_Destroy_range@V?$allocator@PAVFrame@@@std@@PAPAVFrame@@@std@@YAXPAPAVFrame@@0AAU?$_Wrap_alloc@V?$allocator@PAVFrame@@@std@@@0@@Z 0046e680 f i RD1Engined:FrameManager.obj
 0001:0006d6d0       ??$_Move_unchecked1@PAPAVFrame@@PAPAV1@@std@@YAPAPAVFrame@@PAPAV1@00U_Trivially_copyable_ptr_iterator_tag@0@@Z 0046e6d0 f i RD1Engined:FrameManager.obj
 0001:0006d720       ??$_Move_unchecked@PAPAVFrame@@PAPAV1@@std@@YAPAPAVFrame@@PAPAV1@00@Z 0046e720 f i RD1Engined:FrameManager.obj
 0001:0006d790       ??$_Ptr_move_cat@PAVFrame@@PAV1@@std@@YA?AU_Really_trivial_ptr_iterator_tag@0@ABQAPAVFrame@@0@Z 0046e790 f i RD1Engined:FrameManager.obj
 0001:0006d7c0       ??$_Rechecked@PAPAVFrame@@PAPAV1@@std@@YAAAPAPAVFrame@@AAPAPAV1@PAPAV1@@Z 0046e7c0 f i RD1Engined:FrameManager.obj
 0001:0006d7f0       ??$_Umove@PAPAVFrame@@@?$vector@PAVFrame@@V?$allocator@PAVFrame@@@std@@@std@@IAEPAPAVFrame@@PAPAV2@00@Z 0046e7f0 f i RD1Engined:FrameManager.obj
 0001:0006d850       ??$_Unchecked@PAPAVFrame@@@std@@YAPAPAVFrame@@PAPAV1@@Z 0046e850 f i RD1Engined:FrameManager.obj
 0001:0006d880       ??$_Unfancy@PAVFrame@@@std@@YAPAPAVFrame@@PAPAV1@@Z 0046e880 f i RD1Engined:FrameManager.obj
 0001:0006d8b0       ??$_Uninitialized_move@PAPAVFrame@@PAPAV1@V?$allocator@PAVFrame@@@std@@@std@@YAPAPAVFrame@@PAPAV1@00AAU?$_Wrap_alloc@V?$allocator@PAVFrame@@@std@@@0@@Z 0046e8b0 f i RD1Engined:FrameManager.obj
 0001:0006d930       ??$_Uninitialized_move_al_unchecked1@PAVFrame@@PAV1@V?$allocator@PAVFrame@@@std@@@std@@YAPAPAVFrame@@PAPAV1@00AAU?$_Wrap_alloc@V?$allocator@PAVFrame@@@std@@@0@U_Really_trivial_ptr_iterator_tag@0@U?$integral_constant@_N$00@0@@Z 0046e930 f i RD1Engined:FrameManager.obj
 0001:0006d980       ??$_Uninitialized_move_al_unchecked@PAPAVFrame@@PAPAV1@V?$allocator@PAVFrame@@@std@@@std@@YAPAPAVFrame@@PAPAV1@00AAU?$_Wrap_alloc@V?$allocator@PAVFrame@@@std@@@0@@Z 0046e980 f i RD1Engined:FrameManager.obj
 0001:0006d9f0       ??$addressof@QAVFrame@@@std@@YAPBQAVFrame@@ABQAV1@@Z 0046e9f0 f i RD1Engined:FrameManager.obj
 0001:0006da20       ??$construct@PAVFrame@@AAPAV1@@?$_Wrap_alloc@V?$allocator@PAVFrame@@@std@@@std@@QAEXPAPAVFrame@@AAPAV2@@Z 0046ea20 f i RD1Engined:FrameManager.obj
 0001:0006da80       ??$construct@PAVFrame@@AAPAV1@@?$allocator@PAVFrame@@@std@@QAEXPAPAVFrame@@AAPAV2@@Z 0046ea80 f i RD1Engined:FrameManager.obj
 0001:0006db10       ??$construct@PAVFrame@@AAPAV1@@?$allocator_traits@V?$allocator@PAVFrame@@@std@@@std@@SAXAAV?$allocator@PAVFrame@@@1@PAPAVFrame@@AAPAV3@@Z 0046eb10 f i RD1Engined:FrameManager.obj
 0001:0006db60       ??$construct@PAVFrame@@ABQAV1@@?$_Wrap_alloc@V?$allocator@PAVFrame@@@std@@@std@@QAEXPAPAVFrame@@ABQAV2@@Z 0046eb60 f i RD1Engined:FrameManager.obj
 0001:0006dbc0       ??$construct@PAVFrame@@ABQAV1@@?$allocator@PAVFrame@@@std@@QAEXPAPAVFrame@@ABQAV2@@Z 0046ebc0 f i RD1Engined:FrameManager.obj
 0001:0006dc50       ??$construct@PAVFrame@@ABQAV1@@?$allocator_traits@V?$allocator@PAVFrame@@@std@@@std@@SAXAAV?$allocator@PAVFrame@@@1@PAPAVFrame@@ABQAV3@@Z 0046ec50 f i RD1Engined:FrameManager.obj
 0001:0006dca0       ??$forward@AAPAVFrame@@@std@@YAAAPAVFrame@@AAPAV1@@Z 0046eca0 f i RD1Engined:FrameManager.obj
 0001:0006dcd0       ??$forward@AAU?$_Wrap_alloc@V?$allocator@PAVFrame@@@std@@@std@@@std@@YAAAU?$_Wrap_alloc@V?$allocator@PAVFrame@@@std@@@0@AAU10@@Z 0046ecd0 f i RD1Engined:FrameManager.obj
 0001:0006dd00       ??$forward@ABQAVFrame@@@std@@YAABQAVFrame@@ABQAV1@@Z 0046ed00 f i RD1Engined:FrameManager.obj
 0001:0006dd30       ??0?$_Iterator012@Urandom_access_iterator_tag@std@@PAVFrame@@HPBQAV3@ABQAV3@U_Iterator_base12@2@@std@@QAE@$$QAU01@@Z 0046ed30 f i RD1Engined:FrameManager.obj
 0001:0006dd80       ??0?$_Iterator012@Urandom_access_iterator_tag@std@@PAVFrame@@HPBQAV3@ABQAV3@U_Iterator_base12@2@@std@@QAE@ABU01@@Z 0046ed80 f i RD1Engined:FrameManager.obj
 0001:0006ddd0       ??0?$_Iterator012@Urandom_access_iterator_tag@std@@PAVFrame@@HPBQAV3@ABQAV3@U_Iterator_base12@2@@std@@QAE@XZ 0046edd0 f i RD1Engined:FrameManager.obj
 0001:0006de20       ??0?$_Vector_alloc@U?$_Vec_base_types@PAVFrame@@V?$allocator@PAVFrame@@@std@@@std@@@std@@QAE@XZ 0046ee20 f i RD1Engined:FrameManager.obj
 0001:0006deb0       ??0?$_Vector_const_iterator@V?$_Vector_val@U?$_Simple_types@PAVFrame@@@std@@@std@@@std@@QAE@$$QAV01@@Z 0046eeb0 f i RD1Engined:FrameManager.obj
 0001:0006df10       ??0?$_Vector_const_iterator@V?$_Vector_val@U?$_Simple_types@PAVFrame@@@std@@@std@@@std@@QAE@ABV01@@Z 0046ef10 f i RD1Engined:FrameManager.obj
 0001:0006df70       ??0?$_Vector_const_iterator@V?$_Vector_val@U?$_Simple_types@PAVFrame@@@std@@@std@@@std@@QAE@PAPAVFrame@@PBU_Container_base12@1@@Z 0046ef70 f i RD1Engined:FrameManager.obj
 0001:0006e010       ??0?$_Vector_iterator@V?$_Vector_val@U?$_Simple_types@PAVFrame@@@std@@@std@@@std@@QAE@ABV01@@Z 0046f010 f i RD1Engined:FrameManager.obj
 0001:0006e060       ??0?$_Vector_iterator@V?$_Vector_val@U?$_Simple_types@PAVFrame@@@std@@@std@@@std@@QAE@PAPAVFrame@@PBU_Container_base12@1@@Z 0046f060 f i RD1Engined:FrameManager.obj
 0001:0006e0b0       ??0?$_Vector_val@U?$_Simple_types@PAVFrame@@@std@@@std@@QAE@XZ 0046f0b0 f i RD1Engined:FrameManager.obj
 0001:0006e110       ??0?$_Wrap_alloc@V?$allocator@PAVFrame@@@std@@@std@@QAE@XZ 0046f110 f i RD1Engined:FrameManager.obj
 0001:0006e160       ??0?$allocator@PAVFrame@@@std@@QAE@XZ 0046f160 f i RD1Engined:FrameManager.obj
 0001:0006e190       ??0?$vector@PAVFrame@@V?$allocator@PAVFrame@@@std@@@std@@QAE@XZ 0046f190 f i RD1Engined:FrameManager.obj
 0001:0006e200       ??0FrameManager@@QAE@PAVGBAMethods@@KHHPAEPAJ_N@Z 0046f200 f   RD1Engined:FrameManager.obj
 0001:0006e2d0       ??0FrameManager@@QAE@PAVGBAMethods@@KHH_N@Z 0046f2d0 f   RD1Engined:FrameManager.obj
 0001:0006e3a0       ??1?$_Compressed_pair@U?$_Wrap_alloc@V?$allocator@PAVFrame@@@std@@@std@@V?$_Vector_val@U?$_Simple_types@PAVFrame@@@std@@@2@$00@std@@QAE@XZ 0046f3a0 f i RD1Engined:FrameManager.obj
 0001:0006e3e0       ??1?$_Iterator012@Urandom_access_iterator_tag@std@@PAVFrame@@HPBQAV3@ABQAV3@U_Iterator_base12@2@@std@@QAE@XZ 0046f3e0 f i RD1Engined:FrameManager.obj
 0001:0006e420       ??1?$_Vector_alloc@U?$_Vec_base_types@PAVFrame@@V?$allocator@PAVFrame@@@std@@@std@@@std@@QAE@XZ 0046f420 f i RD1Engined:FrameManager.obj
 0001:0006e4a0       ??1?$_Vector_const_iterator@V?$_Vector_val@U?$_Simple_types@PAVFrame@@@std@@@std@@@std@@QAE@XZ 0046f4a0 f i RD1Engined:FrameManager.obj
 0001:0006e4e0       ??1?$_Vector_iterator@V?$_Vector_val@U?$_Simple_types@PAVFrame@@@std@@@std@@@std@@QAE@XZ 0046f4e0 f i RD1Engined:FrameManager.obj
 0001:0006e520       ??1?$_Vector_val@U?$_Simple_types@PAVFrame@@@std@@@std@@QAE@XZ 0046f520 f i RD1Engined:FrameManager.obj
 0001:0006e560       ??1?$vector@PAVFrame@@V?$allocator@PAVFrame@@@std@@@std@@QAE@XZ 0046f560 f i RD1Engined:FrameManager.obj
 0001:0006e5e0       ??1FrameManager@@QAE@XZ    0046f5e0 f   RD1Engined:FrameManager.obj
 0001:0006e790       ??8?$_Vector_const_iterator@V?$_Vector_val@U?$_Simple_types@PAVFrame@@@std@@@std@@@std@@QBE_NABV01@@Z 0046f790 f i RD1Engined:FrameManager.obj
 0001:0006e800       ??9?$_Vector_const_iterator@V?$_Vector_val@U?$_Simple_types@PAVFrame@@@std@@@std@@@std@@QBE_NABV01@@Z 0046f800 f i RD1Engined:FrameManager.obj
 0001:0006e870       ??D?$_Vector_const_iterator@V?$_Vector_val@U?$_Simple_types@PAVFrame@@@std@@@std@@@std@@QBEABQAVFrame@@XZ 0046f870 f i RD1Engined:FrameManager.obj
 0001:0006e960       ??D?$_Vector_iterator@V?$_Vector_val@U?$_Simple_types@PAVFrame@@@std@@@std@@@std@@QBEAAPAVFrame@@XZ 0046f960 f i RD1Engined:FrameManager.obj
 0001:0006e9a0       ??E?$_Vector_const_iterator@V?$_Vector_val@U?$_Simple_types@PAVFrame@@@std@@@std@@@std@@QAEAAV01@XZ 0046f9a0 f i RD1Engined:FrameManager.obj
 0001:0006ea90       ??H?$_Vector_iterator@V?$_Vector_val@U?$_Simple_types@PAVFrame@@@std@@@std@@@std@@QBE?AV01@H@Z 0046fa90 f i RD1Engined:FrameManager.obj
 0001:0006eb90       ??Y?$_Vector_const_iterator@V?$_Vector_val@U?$_Simple_types@PAVFrame@@@std@@@std@@@std@@QAEAAV01@H@Z 0046fb90 f i RD1Engined:FrameManager.obj
 0001:0006ecb0       ??Y?$_Vector_iterator@V?$_Vector_val@U?$_Simple_types@PAVFrame@@@std@@@std@@@std@@QAEAAV01@H@Z 0046fcb0 f i RD1Engined:FrameManager.obj
 0001:0006ed00       ??_GFrame@@QAEPAXI@Z       0046fd00 f i RD1Engined:FrameManager.obj
 0001:0006ed60       ?AddFrame@FrameManager@@QAEXPAVFrame@@H@Z 0046fd60 f   RD1Engined:FrameManager.obj
 0001:0006f170       ?Animate@FrameManager@@QAE_NXZ 00470170 f   RD1Engined:FrameManager.obj
 0001:0006f270       ?DeleteFrame@FrameManager@@QAEHH@Z 00470270 f   RD1Engined:FrameManager.obj
 0001:0006f3a0       ?Empty@FrameManager@@QAEXXZ 004703a0 f   RD1Engined:FrameManager.obj
 0001:0006f5f0       ?GetAnimatedFrame@FrameManager@@QAEPAVFrame@@XZ 004705f0 f   RD1Engined:FrameManager.obj
 0001:0006f630       ?GetStaticFrame@FrameManager@@QAEPAVFrame@@XZ 00470630 f   RD1Engined:FrameManager.obj
 0001:0006f720       ?LoadFrames@FrameManager@@QAEXKHH@Z 00470720 f   RD1Engined:FrameManager.obj
 0001:0006f940       ?LoadFrames@FrameManager@@QAEXKHHPAEPAJ_N@Z 00470940 f   RD1Engined:FrameManager.obj
 0001:0006fcf0       ?Save@FrameManager@@QAEXW4SaveOptions@@PAXH@Z 00470cf0 f   RD1Engined:FrameManager.obj
 0001:0006fdb0       ?SetStaticFrame@FrameManager@@QAEXH@Z 00470db0 f   RD1Engined:FrameManager.obj
 0001:0006fe20       ?UpdateSprite@FrameManager@@QAEHHHGGCHH_N0H@Z 00470e20 f   RD1Engined:FrameManager.obj
 0001:00070210       ?_Alloc_proxy@?$_Vector_alloc@U?$_Vec_base_types@PAVFrame@@V?$allocator@PAVFrame@@@std@@@std@@@std@@QAEXXZ 00471210 f i RD1Engined:FrameManager.obj
 0001:00070300       ?_Compat@?$_Vector_const_iterator@V?$_Vector_val@U?$_Simple_types@PAVFrame@@@std@@@std@@@std@@QBEXABV12@@Z 00471300 f i RD1Engined:FrameManager.obj
 0001:000703e0       ?_Destroy@?$vector@PAVFrame@@V?$allocator@PAVFrame@@@std@@@std@@IAEXPAPAVFrame@@0@Z 004713e0 f i RD1Engined:FrameManager.obj
 0001:00070440       ?_Free_proxy@?$_Vector_alloc@U?$_Vec_base_types@PAVFrame@@V?$allocator@PAVFrame@@@std@@@std@@@std@@QAEXXZ 00471440 f i RD1Engined:FrameManager.obj
 0001:00070520       ?_Get_first@?$_Compressed_pair@U?$_Wrap_alloc@V?$allocator@PAVFrame@@@std@@@std@@V?$_Vector_val@U?$_Simple_types@PAVFrame@@@std@@@2@$00@std@@QAEAAU?$_Wrap_alloc@V?$allocator@PAVFrame@@@std@@@2@XZ 00471520 f i RD1Engined:FrameManager.obj
 0001:00070550       ?_Get_first@?$_Compressed_pair@U?$_Wrap_alloc@V?$allocator@PAVFrame@@@std@@@std@@V?$_Vector_val@U?$_Simple_types@PAVFrame@@@std@@@2@$00@std@@QBEABU?$_Wrap_alloc@V?$allocator@PAVFrame@@@std@@@2@XZ 00471550 f i RD1Engined:FrameManager.obj
 0001:00070580       ?_Getal@?$_Vector_alloc@U?$_Vec_base_types@PAVFrame@@V?$allocator@PAVFrame@@@std@@@std@@@std@@QAEAAU?$_Wrap_alloc@V?$allocator@PAVFrame@@@std@@@2@XZ 00471580 f i RD1Engined:FrameManager.obj
 0001:000705c0       ?_Getal@?$_Vector_alloc@U?$_Vec_base_types@PAVFrame@@V?$allocator@PAVFrame@@@std@@@std@@@std@@QBEABU?$_Wrap_alloc@V?$allocator@PAVFrame@@@std@@@2@XZ 004715c0 f i RD1Engined:FrameManager.obj
 0001:00070600       ?_Getpfirst@?$_Vector_alloc@U?$_Vec_base_types@PAVFrame@@V?$allocator@PAVFrame@@@std@@@std@@@std@@QBEPAPAU_Iterator_base12@2@XZ 00471600 f i RD1Engined:FrameManager.obj
 0001:00070650       ?_Grow_to@?$vector@PAVFrame@@V?$allocator@PAVFrame@@@std@@@std@@IBEII@Z 00471650 f i RD1Engined:FrameManager.obj
 0001:000706e0       ?_Inside@?$vector@PAVFrame@@V?$allocator@PAVFrame@@@std@@@std@@IBE_NPBQAVFrame@@@Z 004716e0 f i RD1Engined:FrameManager.obj
 0001:00070770       ?_Make_iter@?$vector@PAVFrame@@V?$allocator@PAVFrame@@@std@@@std@@QBE?AV?$_Vector_iterator@V?$_Vector_val@U?$_Simple_types@PAVFrame@@@std@@@std@@@2@V?$_Vector_const_iterator@V?$_Vector_val@U?$_Simple_types@PAVFrame@@@std@@@std@@@2@@Z 00471770 f i RD1Engined:FrameManager.obj
 0001:00070820       ?_Myend@?$_Vector_alloc@U?$_Vec_base_types@PAVFrame@@V?$allocator@PAVFrame@@@std@@@std@@@std@@QAEAAPAPAVFrame@@XZ 00471820 f i RD1Engined:FrameManager.obj
 0001:00070870       ?_Myend@?$_Vector_alloc@U?$_Vec_base_types@PAVFrame@@V?$allocator@PAVFrame@@@std@@@std@@@std@@QBEABQAPAVFrame@@XZ 00471870 f i RD1Engined:FrameManager.obj
 0001:000708c0       ?_Mylast@?$_Vector_alloc@U?$_Vec_base_types@PAVFrame@@V?$allocator@PAVFrame@@@std@@@std@@@std@@QAEAAPAPAVFrame@@XZ 004718c0 f i RD1Engined:FrameManager.obj
 0001:00070910       ?_Myproxy@?$_Vector_alloc@U?$_Vec_base_types@PAVFrame@@V?$allocator@PAVFrame@@@std@@@std@@@std@@QAEAAPAU_Container_proxy@2@XZ 00471910 f i RD1Engined:FrameManager.obj
 0001:00070950       ?_Orphan_all@?$_Vector_alloc@U?$_Vec_base_types@PAVFrame@@V?$allocator@PAVFrame@@@std@@@std@@@std@@QAEXXZ 00471950 f i RD1Engined:FrameManager.obj
 0001:000709a0       ?_Orphan_range@?$vector@PAVFrame@@V?$allocator@PAVFrame@@@std@@@std@@IBEXPAPAVFrame@@0@Z 004719a0 f i RD1Engined:FrameManager.obj
 0001:00070ad0       ?_Reallocate@?$vector@PAVFrame@@V?$allocator@PAVFrame@@@std@@@std@@IAEXI@Z 00471ad0 f i RD1Engined:FrameManager.obj
 0001:00070c60       ?_Reserve@?$vector@PAVFrame@@V?$allocator@PAVFrame@@@std@@@std@@IAEXI@Z 00471c60 f i RD1Engined:FrameManager.obj
 0001:00070cf0       ?_Tidy@?$vector@PAVFrame@@V?$allocator@PAVFrame@@@std@@@std@@IAEXXZ 00471cf0 f i RD1Engined:FrameManager.obj
 0001:00070dc0       ?_Unused_capacity@?$vector@PAVFrame@@V?$allocator@PAVFrame@@@std@@@std@@QBEIXZ 00471dc0 f i RD1Engined:FrameManager.obj
 0001:00070e20       ?_Xlen@?$vector@PAVFrame@@V?$allocator@PAVFrame@@@std@@@std@@IBEXXZ 00471e20 f i RD1Engined:FrameManager.obj
 0001:00070e70       ?_Xran@?$vector@PAVFrame@@V?$allocator@PAVFrame@@@std@@@std@@IBEXXZ 00471e70 f i RD1Engined:FrameManager.obj
 0001:00070ec0       ?__autoclassinit2@?$_Vector_const_iterator@V?$_Vector_val@U?$_Simple_types@PAVFrame@@@std@@@std@@@std@@QAEXI@Z 00471ec0 f i RD1Engined:FrameManager.obj
 0001:00070f10       ?__autoclassinit2@?$_Vector_iterator@V?$_Vector_val@U?$_Simple_types@PAVFrame@@@std@@@std@@@std@@QAEXI@Z 00471f10 f i RD1Engined:FrameManager.obj
 0001:00070f60       ?__autoclassinit2@Frame@@QAEXI@Z 00471f60 f i RD1Engined:FrameManager.obj
 0001:00070fb0       ?__autoclassinit2@SpriteObject@@QAEXI@Z 00471fb0 f i RD1Engined:FrameManager.obj
 0001:00071000       ?allocate@?$_Wrap_alloc@V?$allocator@PAVFrame@@@std@@@std@@QAEPAPAVFrame@@I@Z 00472000 f i RD1Engined:FrameManager.obj
 0001:00071050       ?allocate@?$allocator@PAVFrame@@@std@@QAEPAPAVFrame@@I@Z 00472050 f i RD1Engined:FrameManager.obj
 0001:000710a0       ?at@?$vector@PAVFrame@@V?$allocator@PAVFrame@@@std@@@std@@QAEAAPAVFrame@@I@Z 004720a0 f i RD1Engined:FrameManager.obj
 0001:00071100       ?begin@?$vector@PAVFrame@@V?$allocator@PAVFrame@@@std@@@std@@QAE?AV?$_Vector_iterator@V?$_Vector_val@U?$_Simple_types@PAVFrame@@@std@@@std@@@2@XZ 00472100 f i RD1Engined:FrameManager.obj
 0001:00071190       ?capacity@?$vector@PAVFrame@@V?$allocator@PAVFrame@@@std@@@std@@QBEIXZ 00472190 f i RD1Engined:FrameManager.obj
 0001:000711f0       ?clear@?$vector@PAVFrame@@V?$allocator@PAVFrame@@@std@@@std@@QAEXXZ 004721f0 f i RD1Engined:FrameManager.obj
 0001:00071290       ?deallocate@?$_Wrap_alloc@V?$allocator@PAVFrame@@@std@@@std@@QAEXPAPAVFrame@@I@Z 00472290 f i RD1Engined:FrameManager.obj
 0001:000712e0       ?deallocate@?$allocator@PAVFrame@@@std@@QAEXPAPAVFrame@@I@Z 004722e0 f i RD1Engined:FrameManager.obj
 0001:00071330       ?end@?$vector@PAVFrame@@V?$allocator@PAVFrame@@@std@@@std@@QAE?AV?$_Vector_iterator@V?$_Vector_val@U?$_Simple_types@PAVFrame@@@std@@@std@@@2@XZ 00472330 f i RD1Engined:FrameManager.obj
 0001:000713c0       ?erase@?$vector@PAVFrame@@V?$allocator@PAVFrame@@@std@@@std@@QAE?AV?$_Vector_iterator@V?$_Vector_val@U?$_Simple_types@PAVFrame@@@std@@@std@@@2@V?$_Vector_const_iterator@V?$_Vector_val@U?$_Simple_types@PAVFrame@@@std@@@std@@@2@@Z 004723c0 f i RD1Engined:FrameManager.obj
 0001:00071550       ?front@?$vector@PAVFrame@@V?$allocator@PAVFrame@@@std@@@std@@QAEAAPAVFrame@@XZ 00472550 f i RD1Engined:FrameManager.obj
 0001:00071610       ?max_size@?$_Wrap_alloc@V?$allocator@PAVFrame@@@std@@@std@@QBEIU_Nil@2@@Z 00472610 f i RD1Engined:FrameManager.obj
 0001:00071660       ?max_size@?$allocator@PAVFrame@@@std@@QBEIXZ 00472660 f i RD1Engined:FrameManager.obj
 0001:00071690       ?max_size@?$allocator_traits@V?$allocator@PAVFrame@@@std@@@std@@SAIABV?$allocator@PAVFrame@@@2@@Z 00472690 f i RD1Engined:FrameManager.obj
 0001:000716d0       ?max_size@?$vector@PAVFrame@@V?$allocator@PAVFrame@@@std@@@std@@QBEIXZ 004726d0 f i RD1Engined:FrameManager.obj
 0001:00071720       ?maxframe@FrameManager@@QAEHXZ 00472720 f   RD1Engined:FrameManager.obj
 0001:00071760       ?push_back@?$vector@PAVFrame@@V?$allocator@PAVFrame@@@std@@@std@@QAEXABQAVFrame@@@Z 00472760 f i RD1Engined:FrameManager.obj
 0001:00071910       ??$?0$$V@?$_Compressed_pair@U?$_Wrap_alloc@V?$allocator@UOverAllOAM@@@std@@@std@@V?$_Vector_val@U?$_Simple_types@UOverAllOAM@@@std@@@2@$00@std@@QAE@U_Zero_then_variadic_args_t@1@@Z 00472910 f i RD1Engined:cOAMManager.obj
 0001:00071960       ??$?0AAU?$_Wrap_alloc@V?$allocator@UOverAllOAM@@@std@@@std@@@?$_Wrap_alloc@V?$allocator@U_Container_proxy@std@@@std@@@std@@QAE@AAU?$_Wrap_alloc@V?$allocator@UOverAllOAM@@@std@@@1@@Z 00472960 f i RD1Engined:cOAMManager.obj
 0001:000719c0       ??$?0UOverAllOAM@@@?$allocator@U_Container_proxy@std@@@std@@QAE@ABV?$allocator@UOverAllOAM@@@1@@Z 004729c0 f i RD1Engined:cOAMManager.obj
 0001:000719f0       ??$_Copy_memmove@PAPAVFrameManager@@PAPAV1@@std@@YAPAPAVFrameManager@@PAPAV1@00@Z 004729f0 f i RD1Engined:cOAMManager.obj
 0001:00071a70       ??$_Debug_pointer@UOverAllOAM@@@std@@YAXPAUOverAllOAM@@PB_WI@Z 00472a70 f i RD1Engined:cOAMManager.obj
 0001:00071ad0       ??$_Debug_pointer@V?$_Vector_iterator@V?$_Vector_val@U?$_Simple_types@UOverAllOAM@@@std@@@std@@@std@@@std@@YAXAAV?$_Vector_iterator@V?$_Vector_val@U?$_Simple_types@UOverAllOAM@@@std@@@std@@@0@PB_WI@Z 00472ad0 f i RD1Engined:cOAMManager.obj
 0001:00071b00       ??$_Debug_range2@PAUOverAllOAM@@@std@@YAXPAUOverAllOAM@@0PB_WIUrandom_access_iterator_tag@0@@Z 00472b00 f i RD1Engined:cOAMManager.obj
 0001:00071b90       ??$_Debug_range2@V?$_Vector_iterator@V?$_Vector_val@U?$_Simple_types@UOverAllOAM@@@std@@@std@@@std@@@std@@YAXV?$_Vector_iterator@V?$_Vector_val@U?$_Simple_types@UOverAllOAM@@@std@@@std@@@0@0PB_WIUrandom_access_iterator_tag@0@@Z 00472b90 f i RD1Engined:cOAMManager.obj
 0001:00071c80       ??$_Debug_range@PAUOverAllOAM@@@std@@YAXPAUOverAllOAM@@0PB_WI@Z 00472c80 f i RD1Engined:cOAMManager.obj
 0001:00071ce0       ??$_Debug_range@V?$_Vector_iterator@V?$_Vector_val@U?$_Simple_types@UOverAllOAM@@@std@@@std@@@std@@@std@@YAXV?$_Vector_iterator@V?$_Vector_val@U?$_Simple_types@UOverAllOAM@@@std@@@std@@@0@0PB_WI@Z 00472ce0 f i RD1Engined:cOAMManager.obj
 0001:00071dd0       ??$_Distance1@V?$_Vector_iterator@V?$_Vector_val@U?$_Simple_types@UOverAllOAM@@@std@@@std@@@std@@@std@@YAHV?$_Vector_iterator@V?$_Vector_val@U?$_Simple_types@UOverAllOAM@@@std@@@std@@@0@0Urandom_access_iterator_tag@0@@Z 00472dd0 f i RD1Engined:cOAMManager.obj
 0001:00071eb0       ??$_Insert@V?$_Vector_iterator@V?$_Vector_val@U?$_Simple_types@UOverAllOAM@@@std@@@std@@@std@@@?$vector@UOverAllOAM@@V?$allocator@UOverAllOAM@@@std@@@std@@QAEXV?$_Vector_const_iterator@V?$_Vector_val@U?$_Simple_types@UOverAllOAM@@@std@@@std@@@1@V?$_Vector_iterator@V?$_Vector_val@U?$_Simple_types@UOverAllOAM@@@std@@@std@@@1@1Uforward_iterator_tag@1@@Z 00472eb0 f i RD1Engined:cOAMManager.obj
 0001:00072320       ??$_Ptr_copy_cat@UOverAllOAM@@U1@@std@@YA?AU_Really_trivial_ptr_iterator_tag@0@ABQAUOverAllOAM@@0@Z 00473320 f i RD1Engined:cOAMManager.obj
 0001:00072350       ??$_Ptr_move_cat@PAVFrameManager@@PAV1@@std@@YA?AU_Really_trivial_ptr_iterator_tag@0@ABQAPAVFrameManager@@0@Z 00473350 f i RD1Engined:cOAMManager.obj
 0001:00072380       ??$_Reverse_unchecked@PAUOverAllOAM@@@std@@YAXPAUOverAllOAM@@0@Z 00473380 f i RD1Engined:cOAMManager.obj
 0001:000723f0       ??$_Rotate_unchecked1@PAUOverAllOAM@@@std@@YAPAUOverAllOAM@@PAU1@00Urandom_access_iterator_tag@0@@Z 004733f0 f i RD1Engined:cOAMManager.obj
 0001:00072470       ??$_Rotate_unchecked@PAUOverAllOAM@@@std@@YAPAUOverAllOAM@@PAU1@00@Z 00473470 f i RD1Engined:cOAMManager.obj
 0001:000724e0       ??$_Ucopy@V?$_Vector_iterator@V?$_Vector_val@U?$_Simple_types@UOverAllOAM@@@std@@@std@@@std@@@?$vector@UOverAllOAM@@V?$allocator@UOverAllOAM@@@std@@@std@@IAEPAUOverAllOAM@@V?$_Vector_iterator@V?$_Vector_val@U?$_Simple_types@UOverAllOAM@@@std@@@std@@@1@0PAU2@@Z 004734e0 f i RD1Engined:cOAMManager.obj
 0001:000725e0       ??$_Umove@PAPAVFrameManager@@@?$vector@PAVFrameManager@@V?$allocator@PAVFrameManager@@@std@@@std@@IAEPAPAVFrameManager@@PAPAV2@00@Z 004735e0 f i RD1Engined:cOAMManager.obj
 0001:00072640       ??$_Unchecked@V?$_Vector_val@U?$_Simple_types@UOverAllOAM@@@std@@@std@@@std@@YAPAUOverAllOAM@@V?$_Vector_iterator@V?$_Vector_val@U?$_Simple_types@UOverAllOAM@@@std@@@std@@@0@@Z 00473640 f i RD1Engined:cOAMManager.obj
 0001:000726d0       ??$_Unfancy@PAVFrameManager@@@std@@YAPAPAVFrameManager@@PAPAV1@@Z 004736d0 f i RD1Engined:cOAMManager.obj
 0001:00072700       ??$_Uninitialized_copy@V?$_Vector_iterator@V?$_Vector_val@U?$_Simple_types@UOverAllOAM@@@std@@@std@@@std@@PAUOverAllOAM@@V?$allocator@UOverAllOAM@@@2@@std@@YAPAUOverAllOAM@@V?$_Vector_iterator@V?$_Vector_val@U?$_Simple_types@UOverAllOAM@@@std@@@std@@@0@0PAU1@AAU?$_Wrap_alloc@V?$allocator@UOverAllOAM@@@std@@@0@@Z 00473700 f i RD1Engined:cOAMManager.obj
 0001:00072820       ??$_Uninitialized_copy_al_unchecked1@UOverAllOAM@@U1@V?$allocator@UOverAllOAM@@@std@@@std@@YAPAUOverAllOAM@@PAU1@00AAU?$_Wrap_alloc@V?$allocator@UOverAllOAM@@@std@@@0@U_Really_trivial_ptr_iterator_tag@0@U?$integral_constant@_N$00@0@@Z 00473820 f i RD1Engined:cOAMManager.obj
 0001:00072870       ??$_Uninitialized_copy_al_unchecked@PAUOverAllOAM@@PAU1@V?$allocator@UOverAllOAM@@@std@@@std@@YAPAUOverAllOAM@@PAU1@00AAU?$_Wrap_alloc@V?$allocator@UOverAllOAM@@@std@@@0@@Z 00473870 f i RD1Engined:cOAMManager.obj
 0001:000728e0       ??$_Uninitialized_move@PAPAVFrameManager@@PAPAV1@V?$allocator@PAVFrameManager@@@std@@@std@@YAPAPAVFrameManager@@PAPAV1@00AAU?$_Wrap_alloc@V?$allocator@PAVFrameManager@@@std@@@0@@Z 004738e0 f i RD1Engined:cOAMManager.obj
 0001:00072960       ??$_Uninitialized_move_al_unchecked1@PAVFrameManager@@PAV1@V?$allocator@PAVFrameManager@@@std@@@std@@YAPAPAVFrameManager@@PAPAV1@00AAU?$_Wrap_alloc@V?$allocator@PAVFrameManager@@@std@@@0@U_Really_trivial_ptr_iterator_tag@0@U?$integral_constant@_N$00@0@@Z 00473960 f i RD1Engined:cOAMManager.obj
 0001:000729b0       ??$_Uninitialized_move_al_unchecked@PAPAVFrameManager@@PAPAV1@V?$allocator@PAVFrameManager@@@std@@@std@@YAPAPAVFrameManager@@PAPAV1@00AAU?$_Wrap_alloc@V?$allocator@PAVFrameManager@@@std@@@0@@Z 004739b0 f i RD1Engined:cOAMManager.obj
 0001:00072a20       ??$addressof@QAVFrameManager@@@std@@YAPBQAVFrameManager@@ABQAV1@@Z 00473a20 f i RD1Engined:cOAMManager.obj
 0001:00072a50       ??$construct@PAVFrameManager@@AAPAV1@@?$_Wrap_alloc@V?$allocator@PAVFrameManager@@@std@@@std@@QAEXPAPAVFrameManager@@AAPAV2@@Z 00473a50 f i RD1Engined:cOAMManager.obj
 0001:00072ab0       ??$construct@PAVFrameManager@@AAPAV1@@?$allocator@PAVFrameManager@@@std@@QAEXPAPAVFrameManager@@AAPAV2@@Z 00473ab0 f i RD1Engined:cOAMManager.obj
 0001:00072b40       ??$construct@PAVFrameManager@@AAPAV1@@?$allocator_traits@V?$allocator@PAVFrameManager@@@std@@@std@@SAXAAV?$allocator@PAVFrameManager@@@1@PAPAVFrameManager@@AAPAV3@@Z 00473b40 f i RD1Engined:cOAMManager.obj
 0001:00072b90       ??$construct@PAVFrameManager@@ABQAV1@@?$_Wrap_alloc@V?$allocator@PAVFrameManager@@@std@@@std@@QAEXPAPAVFrameManager@@ABQAV2@@Z 00473b90 f i RD1Engined:cOAMManager.obj
 0001:00072bf0       ??$construct@PAVFrameManager@@ABQAV1@@?$allocator@PAVFrameManager@@@std@@QAEXPAPAVFrameManager@@ABQAV2@@Z 00473bf0 f i RD1Engined:cOAMManager.obj
 0001:00072c80       ??$construct@PAVFrameManager@@ABQAV1@@?$allocator_traits@V?$allocator@PAVFrameManager@@@std@@@std@@SAXAAV?$allocator@PAVFrameManager@@@1@PAPAVFrameManager@@ABQAV3@@Z 00473c80 f i RD1Engined:cOAMManager.obj
 0001:00072cd0       ??$distance@V?$_Vector_iterator@V?$_Vector_val@U?$_Simple_types@UOverAllOAM@@@std@@@std@@@std@@@std@@YAHV?$_Vector_iterator@V?$_Vector_val@U?$_Simple_types@UOverAllOAM@@@std@@@std@@@0@0@Z 00473cd0 f i RD1Engined:cOAMManager.obj
 0001:00072dd0       ??$forward@AAPAVFrameManager@@@std@@YAAAPAVFrameManager@@AAPAV1@@Z 00473dd0 f i RD1Engined:cOAMManager.obj
 0001:00072e00       ??$forward@AAU?$_Wrap_alloc@V?$allocator@UOverAllOAM@@@std@@@std@@@std@@YAAAU?$_Wrap_alloc@V?$allocator@UOverAllOAM@@@std@@@0@AAU10@@Z 00473e00 f i RD1Engined:cOAMManager.obj
 0001:00072e30       ??$forward@ABQAVFrameManager@@@std@@YAABQAVFrameManager@@ABQAV1@@Z 00473e30 f i RD1Engined:cOAMManager.obj
 0001:00072e60       ??$insert@V?$_Vector_iterator@V?$_Vector_val@U?$_Simple_types@UOverAllOAM@@@std@@@std@@@std@@@?$vector@UOverAllOAM@@V?$allocator@UOverAllOAM@@@std@@@std@@QAE?AV?$_Vector_iterator@V?$_Vector_val@U?$_Simple_types@UOverAllOAM@@@std@@@std@@@1@V?$_Vector_const_iterator@V?$_Vector_val@U?$_Simple_types@UOverAllOAM@@@std@@@std@@@1@V21@1@Z 00473e60 f i RD1Engined:cOAMManager.obj
 0001:00073010       ??$iter_swap@PAUOverAllOAM@@PAU1@@std@@YAXPAUOverAllOAM@@0@Z 00474010 f i RD1Engined:cOAMManager.obj
 0001:00073060       ??$move@AAUOverAllOAM@@@std@@YA$$QAUOverAllOAM@@AAU1@@Z 00474060 f i RD1Engined:cOAMManager.obj
 0001:00073090       ??$rotate@PAUOverAllOAM@@@std@@YAPAUOverAllOAM@@PAU1@00@Z 00474090 f i RD1Engined:cOAMManager.obj
 0001:00073140       ??$swap@UOverAllOAM@@X@std@@YAXAAUOverAllOAM@@0@Z 00474140 f i RD1Engined:cOAMManager.obj
 0001:00073200       ??0?$_Iterator012@Urandom_access_iterator_tag@std@@UOverAllOAM@@HPBU3@ABU3@U_Iterator_base12@2@@std@@QAE@$$QAU01@@Z 00474200 f i RD1Engined:cOAMManager.obj
 0001:00073250       ??0?$_Iterator012@Urandom_access_iterator_tag@std@@UOverAllOAM@@HPBU3@ABU3@U_Iterator_base12@2@@std@@QAE@ABU01@@Z 00474250 f i RD1Engined:cOAMManager.obj
 0001:000732a0       ??0?$_Iterator012@Urandom_access_iterator_tag@std@@UOverAllOAM@@HPBU3@ABU3@U_Iterator_base12@2@@std@@QAE@XZ 004742a0 f i RD1Engined:cOAMManager.obj
 0001:000732f0       ??0?$_Vector_alloc@U?$_Vec_base_types@UOverAllOAM@@V?$allocator@UOverAllOAM@@@std@@@std@@@std@@QAE@XZ 004742f0 f i RD1Engined:cOAMManager.obj
 0001:00073380       ??0?$_Vector_const_iterator@V?$_Vector_val@U?$_Simple_types@UOverAllOAM@@@std@@@std@@@std@@QAE@$$QAV01@@Z 00474380 f i RD1Engined:cOAMManager.obj
 0001:000733e0       ??0?$_Vector_const_iterator@V?$_Vector_val@U?$_Simple_types@UOverAllOAM@@@std@@@std@@@std@@QAE@ABV01@@Z 004743e0 f i RD1Engined:cOAMManager.obj
 0001:00073440       ??0?$_Vector_const_iterator@V?$_Vector_val@U?$_Simple_types@UOverAllOAM@@@std@@@std@@@std@@QAE@PAUOverAllOAM@@PBU_Container_base12@1@@Z 00474440 f i RD1Engined:cOAMManager.obj
 0001:000734e0       ??0?$_Vector_iterator@V?$_Vector_val@U?$_Simple_types@UOverAllOAM@@@std@@@std@@@std@@QAE@ABV01@@Z 004744e0 f i RD1Engined:cOAMManager.obj
 0001:00073530       ??0?$_Vector_iterator@V?$_Vector_val@U?$_Simple_types@UOverAllOAM@@@std@@@std@@@std@@QAE@PAUOverAllOAM@@PBU_Container_base12@1@@Z 00474530 f i RD1Engined:cOAMManager.obj
 0001:00073580       ??0?$_Vector_val@U?$_Simple_types@UOverAllOAM@@@std@@@std@@QAE@XZ 00474580 f i RD1Engined:cOAMManager.obj
 0001:000735e0       ??0?$_Wrap_alloc@V?$allocator@UOverAllOAM@@@std@@@std@@QAE@XZ 004745e0 f i RD1Engined:cOAMManager.obj
 0001:00073630       ??0?$allocator@UOverAllOAM@@@std@@QAE@XZ 00474630 f i RD1Engined:cOAMManager.obj
 0001:00073660       ??0?$vector@UOverAllOAM@@V?$allocator@UOverAllOAM@@@std@@@std@@QAE@XZ 00474660 f i RD1Engined:cOAMManager.obj
 0001:000736d0       ??0cOAMManager@@QAE@PAV?$map@HV?$vector@KV?$allocator@K@std@@@std@@U?$less@H@2@V?$allocator@U?$pair@$$CBHV?$vector@KV?$allocator@K@std@@@std@@@std@@@2@@std@@PAVGBAMethods@@H@Z 004746d0 f   RD1Engined:cOAMManager.obj
 0001:00073810       ??1?$_Compressed_pair@U?$_Wrap_alloc@V?$allocator@UOverAllOAM@@@std@@@std@@V?$_Vector_val@U?$_Simple_types@UOverAllOAM@@@std@@@2@$00@std@@QAE@XZ 00474810 f i RD1Engined:cOAMManager.obj
 0001:00073850       ??1?$_Iterator012@Urandom_access_iterator_tag@std@@UOverAllOAM@@HPBU3@ABU3@U_Iterator_base12@2@@std@@QAE@XZ 00474850 f i RD1Engined:cOAMManager.obj
 0001:00073890       ??1?$_Vector_alloc@U?$_Vec_base_types@UOverAllOAM@@V?$allocator@UOverAllOAM@@@std@@@std@@@std@@QAE@XZ 00474890 f i RD1Engined:cOAMManager.obj
 0001:00073910       ??1?$_Vector_const_iterator@V?$_Vector_val@U?$_Simple_types@UOverAllOAM@@@std@@@std@@@std@@QAE@XZ 00474910 f i RD1Engined:cOAMManager.obj
 0001:00073950       ??1?$_Vector_iterator@V?$_Vector_val@U?$_Simple_types@UOverAllOAM@@@std@@@std@@@std@@QAE@XZ 00474950 f i RD1Engined:cOAMManager.obj
 0001:00073990       ??1?$_Vector_val@U?$_Simple_types@UOverAllOAM@@@std@@@std@@QAE@XZ 00474990 f i RD1Engined:cOAMManager.obj
 0001:000739d0       ??1?$vector@UOverAllOAM@@V?$allocator@UOverAllOAM@@@std@@@std@@QAE@XZ 004749d0 f i RD1Engined:cOAMManager.obj
