 DoubleHelix

 Timestamp is 5a604f3c (Thu Jan 18 01:39:40 2018)

 Preferred load address is 00400000

 Start         Length     Name                   Class
 0001:00000000 00000cc0H .text$di                CODE
 0001:00000cc0 0009ec50H .text$mn                CODE
 0001:0009f910 000033c0H .text$x                 CODE
 0001:000a2cd0 00000a3fH .text$yd                CODE
 0002:00000000 00000228H .idata$5                DATA
 0002:00000228 00000004H .00cfg                  DATA
 0002:0000022c 00000004H .CRT$XCA                DATA
 0002:00000230 00000004H .CRT$XCAA               DATA
 0002:00000234 00000004H .CRT$XCC                DATA
 0002:00000238 000000a0H .CRT$XCU                DATA
 0002:000002d8 00000004H .CRT$XCZ                DATA
 0002:000002dc 00000004H .CRT$XIA                DATA
 0002:000002e0 00000004H .CRT$XIAA               DATA
 0002:000002e4 00000004H .CRT$XIAC               DATA
 0002:000002e8 00000010H .CRT$XIC                DATA
 0002:000002f8 00000004H .CRT$XIZ                DATA
 0002:000002fc 00000004H .CRT$XPA                DATA
 0002:00000300 00000008H .CRT$XPX                DATA
 0002:00000308 00000004H .CRT$XPXA               DATA
 0002:0000030c 00000004H .CRT$XPZ                DATA
 0002:00000310 00000004H .CRT$XTA                DATA
 0002:00000314 0000000cH .CRT$XTZ                DATA
 0002:00000320 000146e4H .rdata                  DATA
 0002:00014a04 00000264H .rdata$r                DATA
 0002:00014c68 00000380H .rdata$zzzdbg           DATA
 0002:00014fe8 00000004H .rtc$IAA                DATA
 0002:00014fec 00000000H .rtc$IMZ                DATA
 0002:00014fec 00000004H .rtc$IZZ                DATA
 0002:00014ff0 00000004H .rtc$TAA                DATA
 0002:00014ff4 00000000H .rtc$TMZ                DATA
 0002:00014ff4 00000004H .rtc$TZZ                DATA
 0002:00014ff8 00003f44H .xdata$x                DATA
 0002:00018f3c 00000000H .edata                  DATA
 0002:00018f3c 00000064H .idata$2                DATA
 0002:00018fa0 00000014H .idata$3                DATA
 0002:00018fb4 00000228H .idata$4                DATA
 0002:000191dc 0000093cH .idata$6                DATA
 0003:00000000 000008f0H .data                   DATA
 0003:000008f0 00000118H .data$r                 DATA
 0003:00000a08 0003c0c8H .bss                    DATA
 0004:00000000 00000094H .gfids$x                DATA
 0004:00000094 000000a0H .gfids$y                DATA
 0005:00000000 00000860H .rsrc$01                DATA
 0005:00000860 000062a8H .rsrc$02                DATA

  Address         Publics by Value              Rva+Base       Lib:Object

 0000:00000000       ___guard_fids_count        00000000     <absolute>
 0000:00000000       ___guard_longjmp_count     00000000     <absolute>
 0000:00000000       ___guard_longjmp_table     00000000     <absolute>
 0000:00000000       __except_list              00000000     <absolute>
 0000:00000000       ___guard_iat_table         00000000     <absolute>
 0000:00000000       ___guard_iat_count         00000000     <absolute>
 0000:00000000       ___safe_se_handler_table   00000000     <absolute>
 0000:00000000       ___dynamic_value_reloc_table 00000000     <absolute>
 0000:00000000       ___guard_fids_table        00000000     <absolute>
 0000:00000000       ___safe_se_handler_count   00000000     <absolute>
 0000:00000100       ___guard_flags             00000100     <absolute>
 0000:00000000       ___ImageBase               00400000     <linker-defined>
 0001:00000cc0       ??0BackBuffer@@QAE@XZ      00401cc0 f   backbuffer.obj
 0001:00000d10       ??1BackBuffer@@QAE@XZ      00401d10 f   backbuffer.obj
 0001:00000d80       ?Create@BackBuffer@@QAEXHH@Z 00401d80 f   backbuffer.obj
 0001:00000ee0       ?Destroy@BackBuffer@@QAEXXZ 00401ee0 f   backbuffer.obj
 0001:00000f80       ?SaveToFile@BackBuffer@@QAEXPAU_iobuf@@@Z 00401f80 f   backbuffer.obj
 0001:00001350       ?Zero@BackBuffer@@IAEXXZ   00402350 f   backbuffer.obj
 0001:000013b0       ??$__vcrt_va_start_verify_argument_type@QBD@@YAXXZ 004023b0 f i BGImportEditor.obj
 0001:000013e0       ??0wndBGImport@@QAE@XZ     004023e0 f   BGImportEditor.obj
 0001:00001480       ?BGiProc@@YGHPAUHWND__@@IIJ@Z 00402480 f   BGImportEditor.obj
 0001:00001a50       ?DelFiles@wndBGImport@@QAEHXZ 00402a50 f   BGImportEditor.obj
 0001:00001a80       ?Draw@wndBGImport@@QAEHXZ  00402a80 f   BGImportEditor.obj
 0001:00001c00       ?LoadFiles@wndBGImport@@QAEHXZ 00402c00 f   BGImportEditor.obj
 0001:000021d0       ?MakeFiles@wndBGImport@@QAEHXZ 004031d0 f   BGImportEditor.obj
 0001:00002650       ?SaveCustBGROM@wndBGImport@@QAEHXZ 00403650 f   BGImportEditor.obj
 0001:00002d80       ?SaveCustTileset@wndBGImport@@QAEHXZ 00403d80 f   BGImportEditor.obj
 0001:000033d0       ___local_stdio_printf_options 004043d0 f i BGImportEditor.obj
 0001:00003400       __vsnprintf_l              00404400 f i BGImportEditor.obj
 0001:00003490       __vsprintf_l               00404490 f i BGImportEditor.obj
 0001:000034e0       _sprintf                   004044e0 f i BGImportEditor.obj
 0001:00003540       ??0cClipboard@@QAE@XZ      00404540 f   cClipboard.obj
 0001:000035e0       ??1cClipboard@@QAE@XZ      004045e0 f   cClipboard.obj
 0001:00003670       ?Erase@cClipboard@@QAEHHH@Z 00404670 f   cClipboard.obj
 0001:000036d0       ??$?0$$V@?$_Compressed_pair@U?$_Wrap_alloc@V?$allocator@G@std@@@std@@V?$_Vector_val@U?$_Simple_types@G@std@@@2@$00@std@@QAE@U_Zero_then_variadic_args_t@1@@Z 004046d0 f i cCopyData.obj
 0001:00003720       ??$?0AAU?$_Wrap_alloc@V?$allocator@G@std@@@std@@@?$_Wrap_alloc@V?$allocator@U_Container_proxy@std@@@std@@@std@@QAE@AAU?$_Wrap_alloc@V?$allocator@G@std@@@1@@Z 00404720 f i cCopyData.obj
 0001:00003780       ??$?0G@?$allocator@U_Container_proxy@std@@@std@@QAE@ABV?$allocator@G@1@@Z 00404780 f i cCopyData.obj
 0001:000037b0       ??$_Copy_memmove@PAGPAG@std@@YAPAGPAG00@Z 004047b0 f i cCopyData.obj
 0001:00003820       ??$_Debug_pointer@V?$_Vector_iterator@V?$_Vector_val@U?$_Simple_types@G@std@@@std@@@std@@@std@@YAXAAV?$_Vector_iterator@V?$_Vector_val@U?$_Simple_types@G@std@@@std@@@0@PB_WI@Z 00404820 f i cCopyData.obj
 0001:00003850       ??$_Debug_range2@V?$_Vector_iterator@V?$_Vector_val@U?$_Simple_types@G@std@@@std@@@std@@@std@@YAXV?$_Vector_iterator@V?$_Vector_val@U?$_Simple_types@G@std@@@std@@@0@0PB_WIUrandom_access_iterator_tag@0@@Z 00404850 f i cCopyData.obj
 0001:00003940       ??$_Debug_range@V?$_Vector_iterator@V?$_Vector_val@U?$_Simple_types@G@std@@@std@@@std@@@std@@YAXV?$_Vector_iterator@V?$_Vector_val@U?$_Simple_types@G@std@@@std@@@0@0PB_WI@Z 00404940 f i cCopyData.obj
 0001:00003a30       ??$_Destroy_range1@V?$allocator@G@std@@PAG@std@@YAXPAG0AAU?$_Wrap_alloc@V?$allocator@G@std@@@0@U?$integral_constant@_N$00@0@@Z 00404a30 f i cCopyData.obj
 0001:00003a60       ??$_Destroy_range@V?$allocator@G@std@@PAG@std@@YAXPAG0AAU?$_Wrap_alloc@V?$allocator@G@std@@@0@@Z 00404a60 f i cCopyData.obj
 0001:00003ab0       ??$_Fill_memset_is_safe@PAGH@std@@YA?AU?$integral_constant@_N$0A@@0@ABQAGABH@Z 00404ab0 f i cCopyData.obj
 0001:00003af0       ??$_Fill_unchecked1@PAGH@std@@YAXPAG0ABHU?$integral_constant@_N$0A@@0@@Z 00404af0 f i cCopyData.obj
 0001:00003b40       ??$_Fill_unchecked@PAGH@std@@YAXPAG0ABH@Z 00404b40 f i cCopyData.obj
 0001:00003bb0       ??$_Ptr_move_cat@GG@std@@YA?AU_Really_trivial_ptr_iterator_tag@0@ABQAG0@Z 00404bb0 f i cCopyData.obj
 0001:00003be0       ??$_Rechecked@PAGPAG@std@@YAAAPAGAAPAGPAG@Z 00404be0 f i cCopyData.obj
 0001:00003c10       ??$_Umove@PAG@?$vector@GV?$allocator@G@std@@@std@@IAEPAGPAG00@Z 00404c10 f i cCopyData.obj
 0001:00003c70       ??$_Unchecked@PAG@std@@YAPAGPAG@Z 00404c70 f i cCopyData.obj
 0001:00003ca0       ??$_Unchecked@V?$_Vector_val@U?$_Simple_types@G@std@@@std@@@std@@YAPAGV?$_Vector_iterator@V?$_Vector_val@U?$_Simple_types@G@std@@@std@@@0@@Z 00404ca0 f i cCopyData.obj
 0001:00003d30       ??$_Unfancy@U_Container_proxy@std@@@std@@YAPAU_Container_proxy@0@PAU10@@Z 00404d30 f i cCopyData.obj
 0001:00003d60       ??$_Uninitialized_default_fill_n1@PAGIV?$allocator@G@std@@@std@@YAXPAGIAAU?$_Wrap_alloc@V?$allocator@G@std@@@0@U?$integral_constant@_N$00@0@@Z 00404d60 f i cCopyData.obj
 0001:00003db0       ??$_Uninitialized_default_fill_n@PAGIV?$allocator@G@std@@@std@@YAXPAGIAAU?$_Wrap_alloc@V?$allocator@G@std@@@0@@Z 00404db0 f i cCopyData.obj
 0001:00003e00       ??$_Uninitialized_move@PAGPAGV?$allocator@G@std@@@std@@YAPAGPAG00AAU?$_Wrap_alloc@V?$allocator@G@std@@@0@@Z 00404e00 f i cCopyData.obj
 0001:00003e80       ??$_Uninitialized_move_al_unchecked1@GGV?$allocator@G@std@@@std@@YAPAGPAG00AAU?$_Wrap_alloc@V?$allocator@G@std@@@0@U_Really_trivial_ptr_iterator_tag@0@U?$integral_constant@_N$00@0@@Z 00404e80 f i cCopyData.obj
 0001:00003ed0       ??$_Uninitialized_move_al_unchecked@PAGPAGV?$allocator@G@std@@@std@@YAPAGPAG00AAU?$_Wrap_alloc@V?$allocator@G@std@@@0@@Z 00404ed0 f i cCopyData.obj
 0001:00003f40       ??$addressof@U_Container_proxy@std@@@std@@YAPAU_Container_proxy@0@AAU10@@Z 00404f40 f i cCopyData.obj
 0001:00003f70       ??$construct@U_Container_proxy@std@@U12@@?$_Wrap_alloc@V?$allocator@U_Container_proxy@std@@@std@@@std@@QAEXPAU_Container_proxy@1@$$QAU21@@Z 00404f70 f i cCopyData.obj
 0001:00003fd0       ??$construct@U_Container_proxy@std@@U12@@?$allocator@U_Container_proxy@std@@@std@@QAEXPAU_Container_proxy@1@$$QAU21@@Z 00404fd0 f i cCopyData.obj
 0001:00004060       ??$construct@U_Container_proxy@std@@U12@@?$allocator_traits@V?$allocator@U_Container_proxy@std@@@std@@@std@@SAXAAV?$allocator@U_Container_proxy@std@@@1@PAU_Container_proxy@1@$$QAU31@@Z 00405060 f i cCopyData.obj
 0001:000040b0       ??$destroy@U_Container_proxy@std@@@?$_Wrap_alloc@V?$allocator@U_Container_proxy@std@@@std@@@std@@QAEXPAU_Container_proxy@1@@Z 004050b0 f i cCopyData.obj
 0001:00004100       ??$destroy@U_Container_proxy@std@@@?$allocator@U_Container_proxy@std@@@std@@QAEXPAU_Container_proxy@1@@Z 00405100 f i cCopyData.obj
 0001:00004130       ??$destroy@U_Container_proxy@std@@@?$allocator_traits@V?$allocator@U_Container_proxy@std@@@std@@@std@@SAXAAV?$allocator@U_Container_proxy@std@@@1@PAU_Container_proxy@1@@Z 00405130 f i cCopyData.obj
 0001:00004170       ??$fill@V?$_Vector_iterator@V?$_Vector_val@U?$_Simple_types@G@std@@@std@@@std@@H@std@@YAXV?$_Vector_iterator@V?$_Vector_val@U?$_Simple_types@G@std@@@std@@@0@0ABH@Z 00405170 f i cCopyData.obj
 0001:000042c0       ??$forward@AAU?$_Wrap_alloc@V?$allocator@G@std@@@std@@@std@@YAAAU?$_Wrap_alloc@V?$allocator@G@std@@@0@AAU10@@Z 004052c0 f i cCopyData.obj
 0001:000042f0       ??$forward@U_Container_proxy@std@@@std@@YA$$QAU_Container_proxy@0@AAU10@@Z 004052f0 f i cCopyData.obj
 0001:00004320       ??0?$_Iterator012@Urandom_access_iterator_tag@std@@GHPBGABGU_Iterator_base12@2@@std@@QAE@ABU01@@Z 00405320 f i cCopyData.obj
 0001:00004370       ??0?$_Iterator012@Urandom_access_iterator_tag@std@@GHPBGABGU_Iterator_base12@2@@std@@QAE@XZ 00405370 f i cCopyData.obj
 0001:000043c0       ??0?$_Vector_alloc@U?$_Vec_base_types@GV?$allocator@G@std@@@std@@@std@@QAE@XZ 004053c0 f i cCopyData.obj
 0001:00004450       ??0?$_Vector_const_iterator@V?$_Vector_val@U?$_Simple_types@G@std@@@std@@@std@@QAE@ABV01@@Z 00405450 f i cCopyData.obj
 0001:000044b0       ??0?$_Vector_const_iterator@V?$_Vector_val@U?$_Simple_types@G@std@@@std@@@std@@QAE@PAGPBU_Container_base12@1@@Z 004054b0 f i cCopyData.obj
 0001:00004550       ??0?$_Vector_iterator@V?$_Vector_val@U?$_Simple_types@G@std@@@std@@@std@@QAE@ABV01@@Z 00405550 f i cCopyData.obj
 0001:000045a0       ??0?$_Vector_iterator@V?$_Vector_val@U?$_Simple_types@G@std@@@std@@@std@@QAE@PAGPBU_Container_base12@1@@Z 004055a0 f i cCopyData.obj
 0001:000045f0       ??0?$_Vector_val@U?$_Simple_types@G@std@@@std@@QAE@XZ 004055f0 f i cCopyData.obj
 0001:00004650       ??0?$_Wrap_alloc@V?$allocator@G@std@@@std@@QAE@XZ 00405650 f i cCopyData.obj
 0001:000046a0       ??0?$allocator@G@std@@QAE@XZ 004056a0 f i cCopyData.obj
 0001:000046d0       ??0?$vector@GV?$allocator@G@std@@@std@@QAE@XZ 004056d0 f i cCopyData.obj
 0001:00004740       ??0_Container_base12@std@@QAE@XZ 00405740 f i cCopyData.obj
 0001:00004780       ??0_Container_proxy@std@@QAE@XZ 00405780 f i cCopyData.obj
 0001:000047c0       ??0_Iterator_base12@std@@QAE@ABU01@@Z 004057c0 f i cCopyData.obj
 0001:00004820       ??0_Iterator_base12@std@@QAE@XZ 00405820 f i cCopyData.obj
 0001:00004860       ??0cCopyData@@QAE@XZ       00405860 f   cCopyData.obj
 0001:000048b0       ??1?$_Compressed_pair@U?$_Wrap_alloc@V?$allocator@G@std@@@std@@V?$_Vector_val@U?$_Simple_types@G@std@@@2@$00@std@@QAE@XZ 004058b0 f i cCopyData.obj
 0001:000048f0       ??1?$_Iterator012@Urandom_access_iterator_tag@std@@GHPBGABGU_Iterator_base12@2@@std@@QAE@XZ 004058f0 f i cCopyData.obj
 0001:00004930       ??1?$_Vector_alloc@U?$_Vec_base_types@GV?$allocator@G@std@@@std@@@std@@QAE@XZ 00405930 f i cCopyData.obj
 0001:000049b0       ??1?$_Vector_const_iterator@V?$_Vector_val@U?$_Simple_types@G@std@@@std@@@std@@QAE@XZ 004059b0 f i cCopyData.obj
 0001:000049f0       ??1?$_Vector_iterator@V?$_Vector_val@U?$_Simple_types@G@std@@@std@@@std@@QAE@XZ 004059f0 f i cCopyData.obj
 0001:00004a30       ??1?$_Vector_val@U?$_Simple_types@G@std@@@std@@QAE@XZ 00405a30 f i cCopyData.obj
 0001:00004a70       ??1?$vector@GV?$allocator@G@std@@@std@@QAE@XZ 00405a70 f i cCopyData.obj
 0001:00004af0       ??1_Container_base12@std@@QAE@XZ 00405af0 f i cCopyData.obj
 0001:00004b60       ??1_Iterator_base12@std@@QAE@XZ 00405b60 f i cCopyData.obj
 0001:00004c10       ??1cCopyData@@QAE@XZ       00405c10 f   cCopyData.obj
 0001:00004c60       ??2@YAPAXIPAX@Z            00405c60 f i cCopyData.obj
 0001:00004c90       ??4_Iterator_base12@std@@QAEAAU01@ABU01@@Z 00405c90 f i cCopyData.obj
 0001:00004d80       ??8?$_Vector_const_iterator@V?$_Vector_val@U?$_Simple_types@G@std@@@std@@@std@@QBE_NABV01@@Z 00405d80 f i cCopyData.obj
 0001:00004df0       ??9?$_Vector_const_iterator@V?$_Vector_val@U?$_Simple_types@G@std@@@std@@@std@@QBE_NABV01@@Z 00405df0 f i cCopyData.obj
 0001:00004e60       ??A?$vector@GV?$allocator@G@std@@@std@@QAEAAGI@Z 00405e60 f i cCopyData.obj
 0001:00004f20       ??M?$_Vector_const_iterator@V?$_Vector_val@U?$_Simple_types@G@std@@@std@@@std@@QBE_NABV01@@Z 00405f20 f i cCopyData.obj
 0001:00004f90       ?Copy@cCopyData@@QAEHHUtagRECT@@PAG@Z 00405f90 f   cCopyData.obj
 0001:00005100       ?Paste@cCopyData@@QAEHPAG@Z 00406100 f   cCopyData.obj
 0001:00005200       ?_Adopt@_Iterator_base12@std@@QAEXPBU_Container_base12@2@@Z 00406200 f i cCopyData.obj
 0001:00005330       ?_Alloc_proxy@?$_Vector_alloc@U?$_Vec_base_types@GV?$allocator@G@std@@@std@@@std@@QAEXXZ 00406330 f i cCopyData.obj
 0001:00005400       ?_Allocate@std@@YAPAXII_N@Z 00406400 f i cCopyData.obj
 0001:000055b0       ?_Clrcont@_Iterator_base12@std@@QAEXXZ 004065b0 f i cCopyData.obj
 0001:000055f0       ?_Compat@?$_Vector_const_iterator@V?$_Vector_val@U?$_Simple_types@G@std@@@std@@@std@@QBEXABV12@@Z 004065f0 f i cCopyData.obj
 0001:000056b0       ?_Deallocate@std@@YAXPAXII@Z 004066b0 f i cCopyData.obj
 0001:00005990       ?_Destroy@?$vector@GV?$allocator@G@std@@@std@@IAEXPAG0@Z 00406990 f i cCopyData.obj
 0001:000059f0       ?_Free_proxy@?$_Vector_alloc@U?$_Vec_base_types@GV?$allocator@G@std@@@std@@@std@@QAEXXZ 004069f0 f i cCopyData.obj
 0001:00005ab0       ?_Get_data@?$_Vector_alloc@U?$_Vec_base_types@GV?$allocator@G@std@@@std@@@std@@QAEAAV?$_Vector_val@U?$_Simple_types@G@std@@@2@XZ 00406ab0 f i cCopyData.obj
 0001:00005af0       ?_Get_data@?$_Vector_alloc@U?$_Vec_base_types@GV?$allocator@G@std@@@std@@@std@@QBEABV?$_Vector_val@U?$_Simple_types@G@std@@@2@XZ 00406af0 f i cCopyData.obj
 0001:00005b30       ?_Get_first@?$_Compressed_pair@U?$_Wrap_alloc@V?$allocator@G@std@@@std@@V?$_Vector_val@U?$_Simple_types@G@std@@@2@$00@std@@QAEAAU?$_Wrap_alloc@V?$allocator@G@std@@@2@XZ 00406b30 f i cCopyData.obj
 0001:00005b60       ?_Get_first@?$_Compressed_pair@U?$_Wrap_alloc@V?$allocator@G@std@@@std@@V?$_Vector_val@U?$_Simple_types@G@std@@@2@$00@std@@QBEABU?$_Wrap_alloc@V?$allocator@G@std@@@2@XZ 00406b60 f i cCopyData.obj
 0001:00005b90       ?_Get_second@?$_Compressed_pair@U?$_Wrap_alloc@V?$allocator@G@std@@@std@@V?$_Vector_val@U?$_Simple_types@G@std@@@2@$00@std@@QAEAAV?$_Vector_val@U?$_Simple_types@G@std@@@2@XZ 00406b90 f i cCopyData.obj
 0001:00005bc0       ?_Get_second@?$_Compressed_pair@U?$_Wrap_alloc@V?$allocator@G@std@@@std@@V?$_Vector_val@U?$_Simple_types@G@std@@@2@$00@std@@QBEABV?$_Vector_val@U?$_Simple_types@G@std@@@2@XZ 00406bc0 f i cCopyData.obj
 0001:00005bf0       ?_Getal@?$_Vector_alloc@U?$_Vec_base_types@GV?$allocator@G@std@@@std@@@std@@QAEAAU?$_Wrap_alloc@V?$allocator@G@std@@@2@XZ 00406bf0 f i cCopyData.obj
 0001:00005c30       ?_Getal@?$_Vector_alloc@U?$_Vec_base_types@GV?$allocator@G@std@@@std@@@std@@QBEABU?$_Wrap_alloc@V?$allocator@G@std@@@2@XZ 00406c30 f i cCopyData.obj
 0001:00005c70       ?_Getcont@_Iterator_base12@std@@QBEPBU_Container_base12@2@XZ 00406c70 f i cCopyData.obj
 0001:00005cd0       ?_Getpfirst@?$_Vector_alloc@U?$_Vec_base_types@GV?$allocator@G@std@@@std@@@std@@QBEPAPAU_Iterator_base12@2@XZ 00406cd0 f i cCopyData.obj
 0001:00005d20       ?_Getpfirst@_Container_base12@std@@QBEPAPAU_Iterator_base12@2@XZ 00406d20 f i cCopyData.obj
 0001:00005d80       ?_Getpnext@_Iterator_base12@std@@QAEPAPAU12@XZ 00406d80 f i cCopyData.obj
 0001:00005db0       ?_Grow_to@?$vector@GV?$allocator@G@std@@@std@@IBEII@Z 00406db0 f i cCopyData.obj
 0001:00005e40       ?_Myend@?$_Vector_alloc@U?$_Vec_base_types@GV?$allocator@G@std@@@std@@@std@@QAEAAPAGXZ 00406e40 f i cCopyData.obj
 0001:00005e90       ?_Myend@?$_Vector_alloc@U?$_Vec_base_types@GV?$allocator@G@std@@@std@@@std@@QBEABQAGXZ 00406e90 f i cCopyData.obj
 0001:00005ee0       ?_Myfirst@?$_Vector_alloc@U?$_Vec_base_types@GV?$allocator@G@std@@@std@@@std@@QAEAAPAGXZ 00406ee0 f i cCopyData.obj
 0001:00005f30       ?_Myfirst@?$_Vector_alloc@U?$_Vec_base_types@GV?$allocator@G@std@@@std@@@std@@QBEABQAGXZ 00406f30 f i cCopyData.obj
 0001:00005f80       ?_Mylast@?$_Vector_alloc@U?$_Vec_base_types@GV?$allocator@G@std@@@std@@@std@@QAEAAPAGXZ 00406f80 f i cCopyData.obj
 0001:00005fd0       ?_Mylast@?$_Vector_alloc@U?$_Vec_base_types@GV?$allocator@G@std@@@std@@@std@@QBEABQAGXZ 00406fd0 f i cCopyData.obj
 0001:00006020       ?_Myproxy@?$_Vector_alloc@U?$_Vec_base_types@GV?$allocator@G@std@@@std@@@std@@QAEAAPAU_Container_proxy@2@XZ 00407020 f i cCopyData.obj
 0001:00006060       ?_Orphan_all@?$_Vector_alloc@U?$_Vec_base_types@GV?$allocator@G@std@@@std@@@std@@QAEXXZ 00407060 f i cCopyData.obj
 0001:000060b0       ?_Orphan_all@_Container_base12@std@@QAEXXZ 004070b0 f i cCopyData.obj
 0001:00006170       ?_Orphan_me@_Iterator_base12@std@@QAEXXZ 00407170 f i cCopyData.obj
 0001:00006210       ?_Orphan_range@?$vector@GV?$allocator@G@std@@@std@@IBEXPAG0@Z 00407210 f i cCopyData.obj
 0001:00006320       ?_Pop_back_n@?$vector@GV?$allocator@G@std@@@std@@QAEXI@Z 00407320 f i cCopyData.obj
 0001:000063b0       ?_Reallocate@?$vector@GV?$allocator@G@std@@@std@@IAEXI@Z 004073b0 f i cCopyData.obj
 0001:00006540       ?_Reserve@?$vector@GV?$allocator@G@std@@@std@@IAEXI@Z 00407540 f i cCopyData.obj
 0001:000065d0       ?_Tidy@?$vector@GV?$allocator@G@std@@@std@@IAEXXZ 004075d0 f i cCopyData.obj
 0001:000066a0       ?_Unchecked@?$_Vector_iterator@V?$_Vector_val@U?$_Simple_types@G@std@@@std@@@std@@QBEPAGXZ 004076a0 f i cCopyData.obj
 0001:000066d0       ?_Unused_capacity@?$vector@GV?$allocator@G@std@@@std@@QBEIXZ 004076d0 f i cCopyData.obj
 0001:00006730       ?_Xlen@?$vector@GV?$allocator@G@std@@@std@@IBEXXZ 00407730 f i cCopyData.obj
 0001:00006780       ?address@?$_Wrap_alloc@V?$allocator@U_Container_proxy@std@@@std@@@std@@QBEPAU_Container_proxy@2@AAU32@@Z 00407780 f i cCopyData.obj
 0001:000067d0       ?allocate@?$_Wrap_alloc@V?$allocator@G@std@@@std@@QAEPAGI@Z 004077d0 f i cCopyData.obj
 0001:00006820       ?allocate@?$_Wrap_alloc@V?$allocator@U_Container_proxy@std@@@std@@@std@@QAEPAU_Container_proxy@2@I@Z 00407820 f i cCopyData.obj
 0001:00006870       ?allocate@?$allocator@G@std@@QAEPAGI@Z 00407870 f i cCopyData.obj
 0001:000068c0       ?allocate@?$allocator@U_Container_proxy@std@@@std@@QAEPAU_Container_proxy@2@I@Z 004078c0 f i cCopyData.obj
 0001:00006910       ?begin@?$vector@GV?$allocator@G@std@@@std@@QAE?AV?$_Vector_iterator@V?$_Vector_val@U?$_Simple_types@G@std@@@std@@@2@XZ 00407910 f i cCopyData.obj
 0001:000069a0       ?capacity@?$vector@GV?$allocator@G@std@@@std@@QBEIXZ 004079a0 f i cCopyData.obj
 0001:00006a00       ?deallocate@?$_Wrap_alloc@V?$allocator@G@std@@@std@@QAEXPAGI@Z 00407a00 f i cCopyData.obj
 0001:00006a50       ?deallocate@?$_Wrap_alloc@V?$allocator@U_Container_proxy@std@@@std@@@std@@QAEXPAU_Container_proxy@2@I@Z 00407a50 f i cCopyData.obj
 0001:00006aa0       ?deallocate@?$allocator@G@std@@QAEXPAGI@Z 00407aa0 f i cCopyData.obj
 0001:00006af0       ?deallocate@?$allocator@U_Container_proxy@std@@@std@@QAEXPAU_Container_proxy@2@I@Z 00407af0 f i cCopyData.obj
 0001:00006b40       ?end@?$vector@GV?$allocator@G@std@@@std@@QAE?AV?$_Vector_iterator@V?$_Vector_val@U?$_Simple_types@G@std@@@std@@@2@XZ 00407b40 f i cCopyData.obj
 0001:00006bd0       ?max_size@?$_Wrap_alloc@V?$allocator@G@std@@@std@@QBEIU_Nil@2@@Z 00407bd0 f i cCopyData.obj
 0001:00006c20       ?max_size@?$allocator@G@std@@QBEIXZ 00407c20 f i cCopyData.obj
 0001:00006c50       ?max_size@?$allocator_traits@V?$allocator@G@std@@@std@@SAIABV?$allocator@G@2@@Z 00407c50 f i cCopyData.obj
 0001:00006c90       ?max_size@?$vector@GV?$allocator@G@std@@@std@@QBEIXZ 00407c90 f i cCopyData.obj
 0001:00006ce0       ?pointer_to@?$pointer_traits@PAU_Container_proxy@std@@@std@@SAPAU_Container_proxy@2@AAU32@@Z 00407ce0 f i cCopyData.obj
 0001:00006d20       ?resize@?$vector@GV?$allocator@G@std@@@std@@QAEXI@Z 00407d20 f i cCopyData.obj
 0001:00006e60       ?size@?$vector@GV?$allocator@G@std@@@std@@QBEIXZ 00407e60 f i cCopyData.obj
 0001:00006ec0       ?ClipBoardProc@@YGHPAUHWND__@@IIJ@Z 00407ec0 f   Clipboard.obj
 0001:00006fc0       ?GetLayer@MapManager@@QAEPAVnMapBuffer@@H@Z 00407fc0 f i Clipboard.obj
 0001:00007040       ??$?0$$V@?$_Compressed_pair@U?$_Wrap_alloc@V?$allocator@UscrollData@@@std@@@std@@V?$_Vector_val@U?$_Simple_types@UscrollData@@@std@@@2@$00@std@@QAE@U_Zero_then_variadic_args_t@1@@Z 00408040 f i clsRoomScrolls.obj
 0001:00007090       ??$?0AAU?$_Wrap_alloc@V?$allocator@UscrollData@@@std@@@std@@@?$_Wrap_alloc@V?$allocator@U_Container_proxy@std@@@std@@@std@@QAE@AAU?$_Wrap_alloc@V?$allocator@UscrollData@@@std@@@1@@Z 00408090 f i clsRoomScrolls.obj
 0001:000070f0       ??$?0UscrollData@@@?$allocator@U_Container_proxy@std@@@std@@QAE@ABV?$allocator@UscrollData@@@1@@Z 004080f0 f i clsRoomScrolls.obj
 0001:00007120       ??$_Copy_memmove@PAUscrollData@@PAU1@@std@@YAPAUscrollData@@PAU1@00@Z 00408120 f i clsRoomScrolls.obj
 0001:00007190       ??$_Destroy_range1@V?$allocator@UscrollData@@@std@@PAUscrollData@@@std@@YAXPAUscrollData@@0AAU?$_Wrap_alloc@V?$allocator@UscrollData@@@std@@@0@U?$integral_constant@_N$00@0@@Z 00408190 f i clsRoomScrolls.obj
 0001:000071c0       ??$_Destroy_range@V?$allocator@UscrollData@@@std@@PAUscrollData@@@std@@YAXPAUscrollData@@0AAU?$_Wrap_alloc@V?$allocator@UscrollData@@@std@@@0@@Z 004081c0 f i clsRoomScrolls.obj
 0001:00007210       ??$_Ptr_move_cat@UscrollData@@U1@@std@@YA?AU_Really_trivial_ptr_iterator_tag@0@ABQAUscrollData@@0@Z 00408210 f i clsRoomScrolls.obj
 0001:00007240       ??$_Rechecked@PAUscrollData@@PAU1@@std@@YAAAPAUscrollData@@AAPAU1@PAU1@@Z 00408240 f i clsRoomScrolls.obj
 0001:00007270       ??$_Umove@PAUscrollData@@@?$vector@UscrollData@@V?$allocator@UscrollData@@@std@@@std@@IAEPAUscrollData@@PAU2@00@Z 00408270 f i clsRoomScrolls.obj
 0001:000072d0       ??$_Unchecked@PAUscrollData@@@std@@YAPAUscrollData@@PAU1@@Z 004082d0 f i clsRoomScrolls.obj
 0001:00007300       ??$_Unfancy@UscrollData@@@std@@YAPAUscrollData@@PAU1@@Z 00408300 f i clsRoomScrolls.obj
 0001:00007330       ??$_Uninitialized_move@PAUscrollData@@PAU1@V?$allocator@UscrollData@@@std@@@std@@YAPAUscrollData@@PAU1@00AAU?$_Wrap_alloc@V?$allocator@UscrollData@@@std@@@0@@Z 00408330 f i clsRoomScrolls.obj
 0001:000073b0       ??$_Uninitialized_move_al_unchecked1@UscrollData@@U1@V?$allocator@UscrollData@@@std@@@std@@YAPAUscrollData@@PAU1@00AAU?$_Wrap_alloc@V?$allocator@UscrollData@@@std@@@0@U_Really_trivial_ptr_iterator_tag@0@U?$integral_constant@_N$00@0@@Z 004083b0 f i clsRoomScrolls.obj
 0001:00007400       ??$_Uninitialized_move_al_unchecked@PAUscrollData@@PAU1@V?$allocator@UscrollData@@@std@@@std@@YAPAUscrollData@@PAU1@00AAU?$_Wrap_alloc@V?$allocator@UscrollData@@@std@@@0@@Z 00408400 f i clsRoomScrolls.obj
 0001:00007470       ??$addressof@$$CBUscrollData@@@std@@YAPBUscrollData@@ABU1@@Z 00408470 f i clsRoomScrolls.obj
 0001:000074a0       ??$construct@UscrollData@@AAU1@@?$_Wrap_alloc@V?$allocator@UscrollData@@@std@@@std@@QAEXPAUscrollData@@AAU2@@Z 004084a0 f i clsRoomScrolls.obj
 0001:00007500       ??$construct@UscrollData@@AAU1@@?$allocator@UscrollData@@@std@@QAEXPAUscrollData@@AAU2@@Z 00408500 f i clsRoomScrolls.obj
 0001:000075a0       ??$construct@UscrollData@@AAU1@@?$allocator_traits@V?$allocator@UscrollData@@@std@@@std@@SAXAAV?$allocator@UscrollData@@@1@PAUscrollData@@AAU3@@Z 004085a0 f i clsRoomScrolls.obj
 0001:000075f0       ??$construct@UscrollData@@ABU1@@?$_Wrap_alloc@V?$allocator@UscrollData@@@std@@@std@@QAEXPAUscrollData@@ABU2@@Z 004085f0 f i clsRoomScrolls.obj
 0001:00007650       ??$construct@UscrollData@@ABU1@@?$allocator@UscrollData@@@std@@QAEXPAUscrollData@@ABU2@@Z 00408650 f i clsRoomScrolls.obj
 0001:000076f0       ??$construct@UscrollData@@ABU1@@?$allocator_traits@V?$allocator@UscrollData@@@std@@@std@@SAXAAV?$allocator@UscrollData@@@1@PAUscrollData@@ABU3@@Z 004086f0 f i clsRoomScrolls.obj
 0001:00007740       ??$forward@AAU?$_Wrap_alloc@V?$allocator@UscrollData@@@std@@@std@@@std@@YAAAU?$_Wrap_alloc@V?$allocator@UscrollData@@@std@@@0@AAU10@@Z 00408740 f i clsRoomScrolls.obj
 0001:00007770       ??$forward@AAUscrollData@@@std@@YAAAUscrollData@@AAU1@@Z 00408770 f i clsRoomScrolls.obj
 0001:000077a0       ??$forward@ABUscrollData@@@std@@YAABUscrollData@@ABU1@@Z 004087a0 f i clsRoomScrolls.obj
 0001:000077d0       ??0?$_Vector_alloc@U?$_Vec_base_types@UscrollData@@V?$allocator@UscrollData@@@std@@@std@@@std@@QAE@XZ 004087d0 f i clsRoomScrolls.obj
 0001:00007860       ??0?$_Vector_val@U?$_Simple_types@UscrollData@@@std@@@std@@QAE@XZ 00408860 f i clsRoomScrolls.obj
 0001:000078c0       ??0?$_Wrap_alloc@V?$allocator@UscrollData@@@std@@@std@@QAE@XZ 004088c0 f i clsRoomScrolls.obj
 0001:00007910       ??0?$allocator@UscrollData@@@std@@QAE@XZ 00408910 f i clsRoomScrolls.obj
 0001:00007940       ??0?$vector@UscrollData@@V?$allocator@UscrollData@@@std@@@std@@QAE@XZ 00408940 f i clsRoomScrolls.obj
 0001:000079b0       ??0Scroller@@QAE@XZ        004089b0 f i clsRoomScrolls.obj
 0001:00007a00       ??0clsRoomScrolls@@QAE@XZ  00408a00 f   clsRoomScrolls.obj
 0001:00007a80       ??1?$_Compressed_pair@U?$_Wrap_alloc@V?$allocator@UscrollData@@@std@@@std@@V?$_Vector_val@U?$_Simple_types@UscrollData@@@std@@@2@$00@std@@QAE@XZ 00408a80 f i clsRoomScrolls.obj
 0001:00007ac0       ??1?$_Vector_val@U?$_Simple_types@UscrollData@@@std@@@std@@QAE@XZ 00408ac0 f i clsRoomScrolls.obj
 0001:00007b00       ??A?$vector@UscrollData@@V?$allocator@UscrollData@@@std@@@std@@QAEAAUscrollData@@I@Z 00408b00 f i clsRoomScrolls.obj
 0001:00007bc0       ?Findmeascroll@clsRoomScrolls@@QAEHHHH@Z 00408bc0 f   clsRoomScrolls.obj
 0001:00007d40       ?GetScroll@clsRoomScrolls@@QAEHPAU_iobuf@@@Z 00408d40 f   clsRoomScrolls.obj
 0001:00007f30       ?GetScrollArray@clsRoomScrolls@@QAEXPAU_iobuf@@@Z 00408f30 f   clsRoomScrolls.obj
 0001:00007fe0       ?GetScrollInfo@clsRoomScrolls@@QAEPAVScroller@@XZ 00408fe0 f   clsRoomScrolls.obj
 0001:00008010       ?SaveScroll@clsRoomScrolls@@QAEHPAVGBAMethods@@@Z 00409010 f   clsRoomScrolls.obj
 0001:000082f0       ?_Alloc_proxy@?$_Vector_alloc@U?$_Vec_base_types@UscrollData@@V?$allocator@UscrollData@@@std@@@std@@@std@@QAEXXZ 004092f0 f i clsRoomScrolls.obj
 0001:000083c0       ?_Destroy@?$vector@UscrollData@@V?$allocator@UscrollData@@@std@@@std@@IAEXPAUscrollData@@0@Z 004093c0 f i clsRoomScrolls.obj
 0001:00008420       ?_Get_data@?$_Vector_alloc@U?$_Vec_base_types@UscrollData@@V?$allocator@UscrollData@@@std@@@std@@@std@@QAEAAV?$_Vector_val@U?$_Simple_types@UscrollData@@@std@@@2@XZ 00409420 f i clsRoomScrolls.obj
 0001:00008460       ?_Get_data@?$_Vector_alloc@U?$_Vec_base_types@UscrollData@@V?$allocator@UscrollData@@@std@@@std@@@std@@QBEABV?$_Vector_val@U?$_Simple_types@UscrollData@@@std@@@2@XZ 00409460 f i clsRoomScrolls.obj
 0001:000084a0       ?_Get_first@?$_Compressed_pair@U?$_Wrap_alloc@V?$allocator@UscrollData@@@std@@@std@@V?$_Vector_val@U?$_Simple_types@UscrollData@@@std@@@2@$00@std@@QAEAAU?$_Wrap_alloc@V?$allocator@UscrollData@@@std@@@2@XZ 004094a0 f i clsRoomScrolls.obj
 0001:000084d0       ?_Get_first@?$_Compressed_pair@U?$_Wrap_alloc@V?$allocator@UscrollData@@@std@@@std@@V?$_Vector_val@U?$_Simple_types@UscrollData@@@std@@@2@$00@std@@QBEABU?$_Wrap_alloc@V?$allocator@UscrollData@@@std@@@2@XZ 004094d0 f i clsRoomScrolls.obj
 0001:00008500       ?_Get_second@?$_Compressed_pair@U?$_Wrap_alloc@V?$allocator@UscrollData@@@std@@@std@@V?$_Vector_val@U?$_Simple_types@UscrollData@@@std@@@2@$00@std@@QAEAAV?$_Vector_val@U?$_Simple_types@UscrollData@@@std@@@2@XZ 00409500 f i clsRoomScrolls.obj
 0001:00008530       ?_Get_second@?$_Compressed_pair@U?$_Wrap_alloc@V?$allocator@UscrollData@@@std@@@std@@V?$_Vector_val@U?$_Simple_types@UscrollData@@@std@@@2@$00@std@@QBEABV?$_Vector_val@U?$_Simple_types@UscrollData@@@std@@@2@XZ 00409530 f i clsRoomScrolls.obj
 0001:00008560       ?_Getal@?$_Vector_alloc@U?$_Vec_base_types@UscrollData@@V?$allocator@UscrollData@@@std@@@std@@@std@@QAEAAU?$_Wrap_alloc@V?$allocator@UscrollData@@@std@@@2@XZ 00409560 f i clsRoomScrolls.obj
 0001:000085a0       ?_Getal@?$_Vector_alloc@U?$_Vec_base_types@UscrollData@@V?$allocator@UscrollData@@@std@@@std@@@std@@QBEABU?$_Wrap_alloc@V?$allocator@UscrollData@@@std@@@2@XZ 004095a0 f i clsRoomScrolls.obj
 0001:000085e0       ?_Getpfirst@?$_Vector_alloc@U?$_Vec_base_types@UscrollData@@V?$allocator@UscrollData@@@std@@@std@@@std@@QBEPAPAU_Iterator_base12@2@XZ 004095e0 f i clsRoomScrolls.obj
 0001:00008630       ?_Grow_to@?$vector@UscrollData@@V?$allocator@UscrollData@@@std@@@std@@IBEII@Z 00409630 f i clsRoomScrolls.obj
 0001:000086c0       ?_Inside@?$vector@UscrollData@@V?$allocator@UscrollData@@@std@@@std@@IBE_NPBUscrollData@@@Z 004096c0 f i clsRoomScrolls.obj
 0001:00008750       ?_Myend@?$_Vector_alloc@U?$_Vec_base_types@UscrollData@@V?$allocator@UscrollData@@@std@@@std@@@std@@QAEAAPAUscrollData@@XZ 00409750 f i clsRoomScrolls.obj
 0001:000087a0       ?_Myend@?$_Vector_alloc@U?$_Vec_base_types@UscrollData@@V?$allocator@UscrollData@@@std@@@std@@@std@@QBEABQAUscrollData@@XZ 004097a0 f i clsRoomScrolls.obj
 0001:000087f0       ?_Myfirst@?$_Vector_alloc@U?$_Vec_base_types@UscrollData@@V?$allocator@UscrollData@@@std@@@std@@@std@@QAEAAPAUscrollData@@XZ 004097f0 f i clsRoomScrolls.obj
 0001:00008840       ?_Myfirst@?$_Vector_alloc@U?$_Vec_base_types@UscrollData@@V?$allocator@UscrollData@@@std@@@std@@@std@@QBEABQAUscrollData@@XZ 00409840 f i clsRoomScrolls.obj
 0001:00008890       ?_Mylast@?$_Vector_alloc@U?$_Vec_base_types@UscrollData@@V?$allocator@UscrollData@@@std@@@std@@@std@@QAEAAPAUscrollData@@XZ 00409890 f i clsRoomScrolls.obj
 0001:000088e0       ?_Mylast@?$_Vector_alloc@U?$_Vec_base_types@UscrollData@@V?$allocator@UscrollData@@@std@@@std@@@std@@QBEABQAUscrollData@@XZ 004098e0 f i clsRoomScrolls.obj
 0001:00008930       ?_Myproxy@?$_Vector_alloc@U?$_Vec_base_types@UscrollData@@V?$allocator@UscrollData@@@std@@@std@@@std@@QAEAAPAU_Container_proxy@2@XZ 00409930 f i clsRoomScrolls.obj
 0001:00008970       ?_Orphan_all@?$_Vector_alloc@U?$_Vec_base_types@UscrollData@@V?$allocator@UscrollData@@@std@@@std@@@std@@QAEXXZ 00409970 f i clsRoomScrolls.obj
 0001:000089c0       ?_Orphan_range@?$vector@UscrollData@@V?$allocator@UscrollData@@@std@@@std@@IBEXPAUscrollData@@0@Z 004099c0 f i clsRoomScrolls.obj
 0001:00008ad0       ?_Reallocate@?$vector@UscrollData@@V?$allocator@UscrollData@@@std@@@std@@IAEXI@Z 00409ad0 f i clsRoomScrolls.obj
 0001:00008c60       ?_Reserve@?$vector@UscrollData@@V?$allocator@UscrollData@@@std@@@std@@IAEXI@Z 00409c60 f i clsRoomScrolls.obj
 0001:00008cf0       ?_Unused_capacity@?$vector@UscrollData@@V?$allocator@UscrollData@@@std@@@std@@QBEIXZ 00409cf0 f i clsRoomScrolls.obj
 0001:00008d50       ?_Xlen@?$vector@UscrollData@@V?$allocator@UscrollData@@@std@@@std@@IBEXXZ 00409d50 f i clsRoomScrolls.obj
 0001:00008da0       ?allocate@?$_Wrap_alloc@V?$allocator@UscrollData@@@std@@@std@@QAEPAUscrollData@@I@Z 00409da0 f i clsRoomScrolls.obj
 0001:00008df0       ?allocate@?$allocator@UscrollData@@@std@@QAEPAUscrollData@@I@Z 00409df0 f i clsRoomScrolls.obj
 0001:00008e40       ?capacity@?$vector@UscrollData@@V?$allocator@UscrollData@@@std@@@std@@QBEIXZ 00409e40 f i clsRoomScrolls.obj
 0001:00008ea0       ?clear@?$vector@UscrollData@@V?$allocator@UscrollData@@@std@@@std@@QAEXXZ 00409ea0 f i clsRoomScrolls.obj
 0001:00008f40       ?deallocate@?$_Wrap_alloc@V?$allocator@UscrollData@@@std@@@std@@QAEXPAUscrollData@@I@Z 00409f40 f i clsRoomScrolls.obj
 0001:00008f90       ?deallocate@?$allocator@UscrollData@@@std@@QAEXPAUscrollData@@I@Z 00409f90 f i clsRoomScrolls.obj
 0001:00008fe0       ?initScroll@clsRoomScrolls@@QAEHPAU_iobuf@@HH@Z 00409fe0 f   clsRoomScrolls.obj
 0001:00009180       ?max_size@?$_Wrap_alloc@V?$allocator@UscrollData@@@std@@@std@@QBEIU_Nil@2@@Z 0040a180 f i clsRoomScrolls.obj
 0001:000091d0       ?max_size@?$allocator@UscrollData@@@std@@QBEIXZ 0040a1d0 f i clsRoomScrolls.obj
 0001:00009200       ?max_size@?$allocator_traits@V?$allocator@UscrollData@@@std@@@std@@SAIABV?$allocator@UscrollData@@@2@@Z 0040a200 f i clsRoomScrolls.obj
 0001:00009240       ?max_size@?$vector@UscrollData@@V?$allocator@UscrollData@@@std@@@std@@QBEIXZ 0040a240 f i clsRoomScrolls.obj
 0001:00009290       ?push_back@?$vector@UscrollData@@V?$allocator@UscrollData@@@std@@@std@@QAEXABUscrollData@@@Z 0040a290 f i clsRoomScrolls.obj
 0001:00009440       ?size@?$vector@UscrollData@@V?$allocator@UscrollData@@@std@@@std@@QBEIXZ 0040a440 f i clsRoomScrolls.obj
 0001:000094a0       ??0clsUIScroll@@QAE@XZ     0040a4a0 f   clsScroll.obj
 0001:000094d0       ??1clsUIScroll@@QAE@XZ     0040a4d0 f   clsScroll.obj
 0001:00009500       ?ChangeScrollbars@clsUIScroll@@QAEHXZ 0040a500 f   clsScroll.obj
 0001:00009620       ?UpdateScroll@clsUIScroll@@QAEHI@Z 0040a620 f   clsScroll.obj
 0001:00009780       ?create@clsUIScroll@@QAEHPAUHWND__@@HH@Z 0040a780 f   clsScroll.obj
 0001:000097f0       ??$?0AAU?$_Wrap_alloc@V?$allocator@PAVFrame@@@std@@@std@@@?$_Wrap_alloc@V?$allocator@U_Container_proxy@std@@@std@@@std@@QAE@AAU?$_Wrap_alloc@V?$allocator@PAVFrame@@@std@@@1@@Z 0040a7f0 f i cOAMEdit.obj
 0001:00009850       ??$?0PAVFrame@@@?$allocator@U_Container_proxy@std@@@std@@QAE@ABV?$allocator@PAVFrame@@@1@@Z 0040a850 f i cOAMEdit.obj
 0001:00009880       ??$_Destroy_range1@V?$allocator@PAVFrame@@@std@@PAPAVFrame@@@std@@YAXPAPAVFrame@@0AAU?$_Wrap_alloc@V?$allocator@PAVFrame@@@std@@@0@U?$integral_constant@_N$00@0@@Z 0040a880 f i cOAMEdit.obj
 0001:000098b0       ??$_Destroy_range@V?$allocator@PAVFrame@@@std@@PAPAVFrame@@@std@@YAXPAPAVFrame@@0AAU?$_Wrap_alloc@V?$allocator@PAVFrame@@@std@@@0@@Z 0040a8b0 f i cOAMEdit.obj
 0001:00009900       ??$forward@AAU?$_Wrap_alloc@V?$allocator@PAVFrame@@@std@@@std@@@std@@YAAAU?$_Wrap_alloc@V?$allocator@PAVFrame@@@std@@@0@AAU10@@Z 0040a900 f i cOAMEdit.obj
 0001:00009930       ??0?$_Iterator012@Urandom_access_iterator_tag@std@@KHPBKABKU_Iterator_base12@2@@std@@QAE@XZ 0040a930 f i cOAMEdit.obj
 0001:00009980       ??0?$_Vector_const_iterator@V?$_Vector_val@U?$_Simple_types@K@std@@@std@@@std@@QAE@PAKPBU_Container_base12@1@@Z 0040a980 f i cOAMEdit.obj
 0001:00009a20       ??0?$_Vector_iterator@V?$_Vector_val@U?$_Simple_types@K@std@@@std@@@std@@QAE@PAKPBU_Container_base12@1@@Z 0040aa20 f i cOAMEdit.obj
 0001:00009a70       ??0cOAMEdit@@QAE@XZ        0040aa70 f   cOAMEdit.obj
 0001:00009bd0       ??1?$_Compressed_pair@U?$_Wrap_alloc@V?$allocator@PAVFrame@@@std@@@std@@V?$_Vector_val@U?$_Simple_types@PAVFrame@@@std@@@2@$00@std@@QAE@XZ 0040abd0 f i cOAMEdit.obj
 0001:00009c10       ??1?$_Iterator012@Urandom_access_iterator_tag@std@@KHPBKABKU_Iterator_base12@2@@std@@QAE@XZ 0040ac10 f i cOAMEdit.obj
 0001:00009c50       ??1?$_Vector_alloc@U?$_Vec_base_types@PAVFrame@@V?$allocator@PAVFrame@@@std@@@std@@@std@@QAE@XZ 0040ac50 f i cOAMEdit.obj
 0001:00009cd0       ??1?$_Vector_const_iterator@V?$_Vector_val@U?$_Simple_types@K@std@@@std@@@std@@QAE@XZ 0040acd0 f i cOAMEdit.obj
 0001:00009d10       ??1?$_Vector_iterator@V?$_Vector_val@U?$_Simple_types@K@std@@@std@@@std@@QAE@XZ 0040ad10 f i cOAMEdit.obj
 0001:00009d50       ??1?$_Vector_val@U?$_Simple_types@PAVFrame@@@std@@@std@@QAE@XZ 0040ad50 f i cOAMEdit.obj
 0001:00009d90       ??1?$vector@PAVFrame@@V?$allocator@PAVFrame@@@std@@@std@@QAE@XZ 0040ad90 f i cOAMEdit.obj
 0001:00009e10       ??1FrameManager@@QAE@XZ    0040ae10 f i cOAMEdit.obj
 0001:00009e50       ??A?$vector@PAVFrame@@V?$allocator@PAVFrame@@@std@@@std@@QAEAAPAVFrame@@I@Z 0040ae50 f i cOAMEdit.obj
 0001:00009f10       ??A?$vector@UOverAllOAM@@V?$allocator@UOverAllOAM@@@std@@@std@@QAEAAUOverAllOAM@@I@Z 0040af10 f i cOAMEdit.obj
 0001:00009fd0       ??D?$_Vector_const_iterator@V?$_Vector_val@U?$_Simple_types@K@std@@@std@@@std@@QBEABKXZ 0040afd0 f i cOAMEdit.obj
 0001:0000a0b0       ??D?$_Vector_iterator@V?$_Vector_val@U?$_Simple_types@K@std@@@std@@@std@@QBEAAKXZ 0040b0b0 f i cOAMEdit.obj
 0001:0000a0f0       ??_GFrameManager@@QAEPAXI@Z 0040b0f0 f i cOAMEdit.obj
 0001:0000a150       ?Create@cOAMEdit@@QAEHXZ   0040b150 f   cOAMEdit.obj
 0001:0000a570       ?DrawSelObj@cOAMEdit@@QAEHPAUHDC__@@@Z 0040b570 f   cOAMEdit.obj
 0001:0000a600       ?GetFrames@cOAMEdit@@QAEHKPAU_iobuf@@HH@Z 0040b600 f   cOAMEdit.obj
 0001:0000a730       ?GetSpriteData@cOAMEdit@@QAEHPAU_iobuf@@HH@Z 0040b730 f   cOAMEdit.obj
 0001:0000a830       ?LoadTiles@cOAMEdit@@QAEHPAVImage@@PAVFrame@@@Z 0040b830 f   cOAMEdit.obj
 0001:0000a910       ?Save@cOAMEdit@@QAEKW4SaveOptions@@PAD@Z 0040b910 f   cOAMEdit.obj
 0001:0000aaa0       ?SetFrames@cOAMEdit@@QAEHH@Z 0040baa0 f   cOAMEdit.obj
 0001:0000ac20       ?SetupPreview@cOAMEdit@@SAHPAU_iobuf@@HPAVFrame@@@Z 0040bc20 f   cOAMEdit.obj
 0001:0000b1e0       ?UpdatePartUI@cOAMEdit@@QAEH_N@Z 0040c1e0 f   cOAMEdit.obj
 0001:0000b900       ?UpdateSize@cOAMEdit@@QAEHXZ 0040c900 f   cOAMEdit.obj
 0001:0000b9c0       ?_Destroy@?$vector@PAVFrame@@V?$allocator@PAVFrame@@@std@@@std@@IAEXPAPAVFrame@@0@Z 0040c9c0 f i cOAMEdit.obj
 0001:0000ba20       ?_Free_proxy@?$_Vector_alloc@U?$_Vec_base_types@PAVFrame@@V?$allocator@PAVFrame@@@std@@@std@@@std@@QAEXXZ 0040ca20 f i cOAMEdit.obj
 0001:0000bae0       ?_Get_data@?$_Vector_alloc@U?$_Vec_base_types@KV?$allocator@K@std@@@std@@@std@@QAEAAV?$_Vector_val@U?$_Simple_types@K@std@@@2@XZ 0040cae0 f i cOAMEdit.obj
 0001:0000bb20       ?_Get_data@?$_Vector_alloc@U?$_Vec_base_types@PAVFrame@@V?$allocator@PAVFrame@@@std@@@std@@@std@@QAEAAV?$_Vector_val@U?$_Simple_types@PAVFrame@@@std@@@2@XZ 0040cb20 f i cOAMEdit.obj
 0001:0000bb60       ?_Get_data@?$_Vector_alloc@U?$_Vec_base_types@PAVFrame@@V?$allocator@PAVFrame@@@std@@@std@@@std@@QBEABV?$_Vector_val@U?$_Simple_types@PAVFrame@@@std@@@2@XZ 0040cb60 f i cOAMEdit.obj
 0001:0000bba0       ?_Get_data@?$_Vector_alloc@U?$_Vec_base_types@UOverAllOAM@@V?$allocator@UOverAllOAM@@@std@@@std@@@std@@QAEAAV?$_Vector_val@U?$_Simple_types@UOverAllOAM@@@std@@@2@XZ 0040cba0 f i cOAMEdit.obj
 0001:0000bbe0       ?_Get_data@?$_Vector_alloc@U?$_Vec_base_types@UOverAllOAM@@V?$allocator@UOverAllOAM@@@std@@@std@@@std@@QBEABV?$_Vector_val@U?$_Simple_types@UOverAllOAM@@@std@@@2@XZ 0040cbe0 f i cOAMEdit.obj
 0001:0000bc20       ?_Get_first@?$_Compressed_pair@U?$_Wrap_alloc@V?$allocator@PAVFrame@@@std@@@std@@V?$_Vector_val@U?$_Simple_types@PAVFrame@@@std@@@2@$00@std@@QAEAAU?$_Wrap_alloc@V?$allocator@PAVFrame@@@std@@@2@XZ 0040cc20 f i cOAMEdit.obj
 0001:0000bc50       ?_Get_second@?$_Compressed_pair@U?$_Wrap_alloc@V?$allocator@K@std@@@std@@V?$_Vector_val@U?$_Simple_types@K@std@@@2@$00@std@@QAEAAV?$_Vector_val@U?$_Simple_types@K@std@@@2@XZ 0040cc50 f i cOAMEdit.obj
 0001:0000bc80       ?_Get_second@?$_Compressed_pair@U?$_Wrap_alloc@V?$allocator@PAVFrame@@@std@@@std@@V?$_Vector_val@U?$_Simple_types@PAVFrame@@@std@@@2@$00@std@@QAEAAV?$_Vector_val@U?$_Simple_types@PAVFrame@@@std@@@2@XZ 0040cc80 f i cOAMEdit.obj
 0001:0000bcb0       ?_Get_second@?$_Compressed_pair@U?$_Wrap_alloc@V?$allocator@PAVFrame@@@std@@@std@@V?$_Vector_val@U?$_Simple_types@PAVFrame@@@std@@@2@$00@std@@QBEABV?$_Vector_val@U?$_Simple_types@PAVFrame@@@std@@@2@XZ 0040ccb0 f i cOAMEdit.obj
 0001:0000bce0       ?_Get_second@?$_Compressed_pair@U?$_Wrap_alloc@V?$allocator@UOverAllOAM@@@std@@@std@@V?$_Vector_val@U?$_Simple_types@UOverAllOAM@@@std@@@2@$00@std@@QAEAAV?$_Vector_val@U?$_Simple_types@UOverAllOAM@@@std@@@2@XZ 0040cce0 f i cOAMEdit.obj
 0001:0000bd10       ?_Get_second@?$_Compressed_pair@U?$_Wrap_alloc@V?$allocator@UOverAllOAM@@@std@@@std@@V?$_Vector_val@U?$_Simple_types@UOverAllOAM@@@std@@@2@$00@std@@QBEABV?$_Vector_val@U?$_Simple_types@UOverAllOAM@@@std@@@2@XZ 0040cd10 f i cOAMEdit.obj
 0001:0000bd40       ?_Getal@?$_Vector_alloc@U?$_Vec_base_types@PAVFrame@@V?$allocator@PAVFrame@@@std@@@std@@@std@@QAEAAU?$_Wrap_alloc@V?$allocator@PAVFrame@@@std@@@2@XZ 0040cd40 f i cOAMEdit.obj
 0001:0000bd80       ?_Myend@?$_Vector_alloc@U?$_Vec_base_types@PAVFrame@@V?$allocator@PAVFrame@@@std@@@std@@@std@@QAEAAPAPAVFrame@@XZ 0040cd80 f i cOAMEdit.obj
 0001:0000bdd0       ?_Myfirst@?$_Vector_alloc@U?$_Vec_base_types@KV?$allocator@K@std@@@std@@@std@@QAEAAPAKXZ 0040cdd0 f i cOAMEdit.obj
 0001:0000be20       ?_Myfirst@?$_Vector_alloc@U?$_Vec_base_types@PAVFrame@@V?$allocator@PAVFrame@@@std@@@std@@@std@@QAEAAPAPAVFrame@@XZ 0040ce20 f i cOAMEdit.obj
 0001:0000be70       ?_Myfirst@?$_Vector_alloc@U?$_Vec_base_types@PAVFrame@@V?$allocator@PAVFrame@@@std@@@std@@@std@@QBEABQAPAVFrame@@XZ 0040ce70 f i cOAMEdit.obj
 0001:0000bec0       ?_Myfirst@?$_Vector_alloc@U?$_Vec_base_types@UOverAllOAM@@V?$allocator@UOverAllOAM@@@std@@@std@@@std@@QAEAAPAUOverAllOAM@@XZ 0040cec0 f i cOAMEdit.obj
 0001:0000bf10       ?_Myfirst@?$_Vector_alloc@U?$_Vec_base_types@UOverAllOAM@@V?$allocator@UOverAllOAM@@@std@@@std@@@std@@QBEABQAUOverAllOAM@@XZ 0040cf10 f i cOAMEdit.obj
 0001:0000bf60       ?_Mylast@?$_Vector_alloc@U?$_Vec_base_types@PAVFrame@@V?$allocator@PAVFrame@@@std@@@std@@@std@@QAEAAPAPAVFrame@@XZ 0040cf60 f i cOAMEdit.obj
 0001:0000bfb0       ?_Mylast@?$_Vector_alloc@U?$_Vec_base_types@PAVFrame@@V?$allocator@PAVFrame@@@std@@@std@@@std@@QBEABQAPAVFrame@@XZ 0040cfb0 f i cOAMEdit.obj
 0001:0000c000       ?_Mylast@?$_Vector_alloc@U?$_Vec_base_types@UOverAllOAM@@V?$allocator@UOverAllOAM@@@std@@@std@@@std@@QBEABQAUOverAllOAM@@XZ 0040d000 f i cOAMEdit.obj
 0001:0000c050       ?_Myproxy@?$_Vector_alloc@U?$_Vec_base_types@PAVFrame@@V?$allocator@PAVFrame@@@std@@@std@@@std@@QAEAAPAU_Container_proxy@2@XZ 0040d050 f i cOAMEdit.obj
 0001:0000c090       ?_Orphan_all@?$_Vector_alloc@U?$_Vec_base_types@PAVFrame@@V?$allocator@PAVFrame@@@std@@@std@@@std@@QAEXXZ 0040d090 f i cOAMEdit.obj
 0001:0000c0e0       ?_Tidy@?$vector@PAVFrame@@V?$allocator@PAVFrame@@@std@@@std@@IAEXXZ 0040d0e0 f i cOAMEdit.obj
 0001:0000c1b0       ?begin@?$vector@KV?$allocator@K@std@@@std@@QAE?AV?$_Vector_iterator@V?$_Vector_val@U?$_Simple_types@K@std@@@std@@@2@XZ 0040d1b0 f i cOAMEdit.obj
 0001:0000c240       ?deallocate@?$_Wrap_alloc@V?$allocator@PAVFrame@@@std@@@std@@QAEXPAPAVFrame@@I@Z 0040d240 f i cOAMEdit.obj
 0001:0000c290       ?deallocate@?$allocator@PAVFrame@@@std@@QAEXPAPAVFrame@@I@Z 0040d290 f i cOAMEdit.obj
 0001:0000c2e0       ?front@?$vector@KV?$allocator@K@std@@@std@@QAEAAKXZ 0040d2e0 f i cOAMEdit.obj
 0001:0000c3a0       ?size@?$vector@PAVFrame@@V?$allocator@PAVFrame@@@std@@@std@@QBEIXZ 0040d3a0 f i cOAMEdit.obj
 0001:0000c400       ?size@?$vector@UOverAllOAM@@V?$allocator@UOverAllOAM@@@std@@@std@@QBEIXZ 0040d400 f i cOAMEdit.obj
 0001:0000c460       __vfprintf_l               0040d460 f i cOAMEdit.obj
 0001:0000c4c0       _printf                    0040d4c0 f i cOAMEdit.obj
 0001:0000ced0       ?cprs_gba_lz77@@YAGPAURECORD@@PBU1@@Z 0040ded0 f   cprs_lz.obj
 0001:0000d000       ??$?0$$V@?$_Compressed_pair@U?$_Wrap_alloc@V?$allocator@UOverAllOAM@@@std@@@std@@V?$_Vector_val@U?$_Simple_types@UOverAllOAM@@@std@@@2@$00@std@@QAE@U_Zero_then_variadic_args_t@1@@Z 0040e000 f i cOAMManager.obj
 0001:0000d050       ??$?0AAU?$_Wrap_alloc@V?$allocator@UOverAllOAM@@@std@@@std@@@?$_Wrap_alloc@V?$allocator@U_Container_proxy@std@@@std@@@std@@QAE@AAU?$_Wrap_alloc@V?$allocator@UOverAllOAM@@@std@@@1@@Z 0040e050 f i cOAMManager.obj
 0001:0000d0b0       ??$?0UOverAllOAM@@@?$allocator@U_Container_proxy@std@@@std@@QAE@ABV?$allocator@UOverAllOAM@@@1@@Z 0040e0b0 f i cOAMManager.obj
 0001:0000d0e0       ??$_Copy_memmove@PAPAVFrameManager@@PAPAV1@@std@@YAPAPAVFrameManager@@PAPAV1@00@Z 0040e0e0 f i cOAMManager.obj
 0001:0000d150       ??$_Copy_memmove@PAUOverAllOAM@@PAU1@@std@@YAPAUOverAllOAM@@PAU1@00@Z 0040e150 f i cOAMManager.obj
 0001:0000d1c0       ??$_Debug_pointer@UOverAllOAM@@@std@@YAXPAUOverAllOAM@@PB_WI@Z 0040e1c0 f i cOAMManager.obj
 0001:0000d210       ??$_Debug_pointer@V?$_Vector_iterator@V?$_Vector_val@U?$_Simple_types@UOverAllOAM@@@std@@@std@@@std@@@std@@YAXAAV?$_Vector_iterator@V?$_Vector_val@U?$_Simple_types@UOverAllOAM@@@std@@@std@@@0@PB_WI@Z 0040e210 f i cOAMManager.obj
 0001:0000d240       ??$_Debug_range2@PAUOverAllOAM@@@std@@YAXPAUOverAllOAM@@0PB_WIUrandom_access_iterator_tag@0@@Z 0040e240 f i cOAMManager.obj
 0001:0000d2c0       ??$_Debug_range2@V?$_Vector_iterator@V?$_Vector_val@U?$_Simple_types@UOverAllOAM@@@std@@@std@@@std@@@std@@YAXV?$_Vector_iterator@V?$_Vector_val@U?$_Simple_types@UOverAllOAM@@@std@@@std@@@0@0PB_WIUrandom_access_iterator_tag@0@@Z 0040e2c0 f i cOAMManager.obj
 0001:0000d3b0       ??$_Debug_range@PAUOverAllOAM@@@std@@YAXPAUOverAllOAM@@0PB_WI@Z 0040e3b0 f i cOAMManager.obj
 0001:0000d410       ??$_Debug_range@V?$_Vector_iterator@V?$_Vector_val@U?$_Simple_types@UOverAllOAM@@@std@@@std@@@std@@@std@@YAXV?$_Vector_iterator@V?$_Vector_val@U?$_Simple_types@UOverAllOAM@@@std@@@std@@@0@0PB_WI@Z 0040e410 f i cOAMManager.obj
 0001:0000d500       ??$_Destroy_range1@V?$allocator@PAVFrameManager@@@std@@PAPAVFrameManager@@@std@@YAXPAPAVFrameManager@@0AAU?$_Wrap_alloc@V?$allocator@PAVFrameManager@@@std@@@0@U?$integral_constant@_N$00@0@@Z 0040e500 f i cOAMManager.obj
 0001:0000d530       ??$_Destroy_range1@V?$allocator@UOverAllOAM@@@std@@PAUOverAllOAM@@@std@@YAXPAUOverAllOAM@@0AAU?$_Wrap_alloc@V?$allocator@UOverAllOAM@@@std@@@0@U?$integral_constant@_N$00@0@@Z 0040e530 f i cOAMManager.obj
 0001:0000d560       ??$_Destroy_range@V?$allocator@PAVFrameManager@@@std@@PAPAVFrameManager@@@std@@YAXPAPAVFrameManager@@0AAU?$_Wrap_alloc@V?$allocator@PAVFrameManager@@@std@@@0@@Z 0040e560 f i cOAMManager.obj
 0001:0000d5b0       ??$_Destroy_range@V?$allocator@UOverAllOAM@@@std@@PAUOverAllOAM@@@std@@YAXPAUOverAllOAM@@0AAU?$_Wrap_alloc@V?$allocator@UOverAllOAM@@@std@@@0@@Z 0040e5b0 f i cOAMManager.obj
 0001:0000d600       ??$_Distance1@V?$_Vector_iterator@V?$_Vector_val@U?$_Simple_types@UOverAllOAM@@@std@@@std@@@std@@@std@@YAHV?$_Vector_iterator@V?$_Vector_val@U?$_Simple_types@UOverAllOAM@@@std@@@std@@@0@0Urandom_access_iterator_tag@0@@Z 0040e600 f i cOAMManager.obj
 0001:0000d6e0       ??$_Insert@V?$_Vector_iterator@V?$_Vector_val@U?$_Simple_types@UOverAllOAM@@@std@@@std@@@std@@@?$vector@UOverAllOAM@@V?$allocator@UOverAllOAM@@@std@@@std@@QAEXV?$_Vector_const_iterator@V?$_Vector_val@U?$_Simple_types@UOverAllOAM@@@std@@@std@@@1@V?$_Vector_iterator@V?$_Vector_val@U?$_Simple_types@UOverAllOAM@@@std@@@std@@@1@1Uforward_iterator_tag@1@@Z 0040e6e0 f i cOAMManager.obj
 0001:0000db50       ??$_Ptr_copy_cat@UOverAllOAM@@U1@@std@@YA?AU_Really_trivial_ptr_iterator_tag@0@ABQAUOverAllOAM@@0@Z 0040eb50 f i cOAMManager.obj
 0001:0000db80       ??$_Ptr_move_cat@PAVFrameManager@@PAV1@@std@@YA?AU_Really_trivial_ptr_iterator_tag@0@ABQAPAVFrameManager@@0@Z 0040eb80 f i cOAMManager.obj
 0001:0000dbb0       ??$_Ptr_move_cat@UOverAllOAM@@U1@@std@@YA?AU_Really_trivial_ptr_iterator_tag@0@ABQAUOverAllOAM@@0@Z 0040ebb0 f i cOAMManager.obj
 0001:0000dbe0       ??$_Rechecked@PAPAVFrameManager@@PAPAV1@@std@@YAAAPAPAVFrameManager@@AAPAPAV1@PAPAV1@@Z 0040ebe0 f i cOAMManager.obj
 0001:0000dc10       ??$_Rechecked@PAUOverAllOAM@@PAU1@@std@@YAAAPAUOverAllOAM@@AAPAU1@PAU1@@Z 0040ec10 f i cOAMManager.obj
 0001:0000dc40       ??$_Reverse_unchecked@PAUOverAllOAM@@@std@@YAXPAUOverAllOAM@@0@Z 0040ec40 f i cOAMManager.obj
 0001:0000dcb0       ??$_Rotate_unchecked1@PAUOverAllOAM@@@std@@YAPAUOverAllOAM@@PAU1@00Urandom_access_iterator_tag@0@@Z 0040ecb0 f i cOAMManager.obj
 0001:0000dd30       ??$_Rotate_unchecked@PAUOverAllOAM@@@std@@YAPAUOverAllOAM@@PAU1@00@Z 0040ed30 f i cOAMManager.obj
 0001:0000dda0       ??$_Ucopy@V?$_Vector_iterator@V?$_Vector_val@U?$_Simple_types@UOverAllOAM@@@std@@@std@@@std@@@?$vector@UOverAllOAM@@V?$allocator@UOverAllOAM@@@std@@@std@@IAEPAUOverAllOAM@@V?$_Vector_iterator@V?$_Vector_val@U?$_Simple_types@UOverAllOAM@@@std@@@std@@@1@0PAU2@@Z 0040eda0 f i cOAMManager.obj
 0001:0000dea0       ??$_Umove@PAPAVFrameManager@@@?$vector@PAVFrameManager@@V?$allocator@PAVFrameManager@@@std@@@std@@IAEPAPAVFrameManager@@PAPAV2@00@Z 0040eea0 f i cOAMManager.obj
 0001:0000df00       ??$_Umove@PAUOverAllOAM@@@?$vector@UOverAllOAM@@V?$allocator@UOverAllOAM@@@std@@@std@@IAEPAUOverAllOAM@@PAU2@00@Z 0040ef00 f i cOAMManager.obj
 0001:0000df60       ??$_Unchecked@PAPAVFrameManager@@@std@@YAPAPAVFrameManager@@PAPAV1@@Z 0040ef60 f i cOAMManager.obj
 0001:0000df90       ??$_Unchecked@PAUOverAllOAM@@@std@@YAPAUOverAllOAM@@PAU1@@Z 0040ef90 f i cOAMManager.obj
 0001:0000dfc0       ??$_Unchecked@V?$_Vector_val@U?$_Simple_types@UOverAllOAM@@@std@@@std@@@std@@YAPAUOverAllOAM@@V?$_Vector_iterator@V?$_Vector_val@U?$_Simple_types@UOverAllOAM@@@std@@@std@@@0@@Z 0040efc0 f i cOAMManager.obj
 0001:0000e050       ??$_Unfancy@PAVFrameManager@@@std@@YAPAPAVFrameManager@@PAPAV1@@Z 0040f050 f i cOAMManager.obj
 0001:0000e080       ??$_Unfancy@UOverAllOAM@@@std@@YAPAUOverAllOAM@@PAU1@@Z 0040f080 f i cOAMManager.obj
 0001:0000e0b0       ??$_Uninitialized_copy@V?$_Vector_iterator@V?$_Vector_val@U?$_Simple_types@UOverAllOAM@@@std@@@std@@@std@@PAUOverAllOAM@@V?$allocator@UOverAllOAM@@@2@@std@@YAPAUOverAllOAM@@V?$_Vector_iterator@V?$_Vector_val@U?$_Simple_types@UOverAllOAM@@@std@@@std@@@0@0PAU1@AAU?$_Wrap_alloc@V?$allocator@UOverAllOAM@@@std@@@0@@Z 0040f0b0 f i cOAMManager.obj
 0001:0000e1d0       ??$_Uninitialized_copy_al_unchecked1@UOverAllOAM@@U1@V?$allocator@UOverAllOAM@@@std@@@std@@YAPAUOverAllOAM@@PAU1@00AAU?$_Wrap_alloc@V?$allocator@UOverAllOAM@@@std@@@0@U_Really_trivial_ptr_iterator_tag@0@U?$integral_constant@_N$00@0@@Z 0040f1d0 f i cOAMManager.obj
 0001:0000e220       ??$_Uninitialized_copy_al_unchecked@PAUOverAllOAM@@PAU1@V?$allocator@UOverAllOAM@@@std@@@std@@YAPAUOverAllOAM@@PAU1@00AAU?$_Wrap_alloc@V?$allocator@UOverAllOAM@@@std@@@0@@Z 0040f220 f i cOAMManager.obj
 0001:0000e290       ??$_Uninitialized_move@PAPAVFrameManager@@PAPAV1@V?$allocator@PAVFrameManager@@@std@@@std@@YAPAPAVFrameManager@@PAPAV1@00AAU?$_Wrap_alloc@V?$allocator@PAVFrameManager@@@std@@@0@@Z 0040f290 f i cOAMManager.obj
 0001:0000e310       ??$_Uninitialized_move@PAUOverAllOAM@@PAU1@V?$allocator@UOverAllOAM@@@std@@@std@@YAPAUOverAllOAM@@PAU1@00AAU?$_Wrap_alloc@V?$allocator@UOverAllOAM@@@std@@@0@@Z 0040f310 f i cOAMManager.obj
 0001:0000e390       ??$_Uninitialized_move_al_unchecked1@PAVFrameManager@@PAV1@V?$allocator@PAVFrameManager@@@std@@@std@@YAPAPAVFrameManager@@PAPAV1@00AAU?$_Wrap_alloc@V?$allocator@PAVFrameManager@@@std@@@0@U_Really_trivial_ptr_iterator_tag@0@U?$integral_constant@_N$00@0@@Z 0040f390 f i cOAMManager.obj
 0001:0000e3e0       ??$_Uninitialized_move_al_unchecked1@UOverAllOAM@@U1@V?$allocator@UOverAllOAM@@@std@@@std@@YAPAUOverAllOAM@@PAU1@00AAU?$_Wrap_alloc@V?$allocator@UOverAllOAM@@@std@@@0@U_Really_trivial_ptr_iterator_tag@0@U?$integral_constant@_N$00@0@@Z 0040f3e0 f i cOAMManager.obj
 0001:0000e430       ??$_Uninitialized_move_al_unchecked@PAPAVFrameManager@@PAPAV1@V?$allocator@PAVFrameManager@@@std@@@std@@YAPAPAVFrameManager@@PAPAV1@00AAU?$_Wrap_alloc@V?$allocator@PAVFrameManager@@@std@@@0@@Z 0040f430 f i cOAMManager.obj
 0001:0000e4a0       ??$_Uninitialized_move_al_unchecked@PAUOverAllOAM@@PAU1@V?$allocator@UOverAllOAM@@@std@@@std@@YAPAUOverAllOAM@@PAU1@00AAU?$_Wrap_alloc@V?$allocator@UOverAllOAM@@@std@@@0@@Z 0040f4a0 f i cOAMManager.obj
 0001:0000e510       ??$addressof@$$CBUOverAllOAM@@@std@@YAPBUOverAllOAM@@ABU1@@Z 0040f510 f i cOAMManager.obj
 0001:0000e540       ??$addressof@QAVFrameManager@@@std@@YAPBQAVFrameManager@@ABQAV1@@Z 0040f540 f i cOAMManager.obj
 0001:0000e570       ??$construct@PAVFrameManager@@AAPAV1@@?$_Wrap_alloc@V?$allocator@PAVFrameManager@@@std@@@std@@QAEXPAPAVFrameManager@@AAPAV2@@Z 0040f570 f i cOAMManager.obj
 0001:0000e5d0       ??$construct@PAVFrameManager@@AAPAV1@@?$allocator@PAVFrameManager@@@std@@QAEXPAPAVFrameManager@@AAPAV2@@Z 0040f5d0 f i cOAMManager.obj
 0001:0000e660       ??$construct@PAVFrameManager@@AAPAV1@@?$allocator_traits@V?$allocator@PAVFrameManager@@@std@@@std@@SAXAAV?$allocator@PAVFrameManager@@@1@PAPAVFrameManager@@AAPAV3@@Z 0040f660 f i cOAMManager.obj
 0001:0000e6b0       ??$construct@PAVFrameManager@@ABQAV1@@?$_Wrap_alloc@V?$allocator@PAVFrameManager@@@std@@@std@@QAEXPAPAVFrameManager@@ABQAV2@@Z 0040f6b0 f i cOAMManager.obj
 0001:0000e710       ??$construct@PAVFrameManager@@ABQAV1@@?$allocator@PAVFrameManager@@@std@@QAEXPAPAVFrameManager@@ABQAV2@@Z 0040f710 f i cOAMManager.obj
 0001:0000e7a0       ??$construct@PAVFrameManager@@ABQAV1@@?$allocator_traits@V?$allocator@PAVFrameManager@@@std@@@std@@SAXAAV?$allocator@PAVFrameManager@@@1@PAPAVFrameManager@@ABQAV3@@Z 0040f7a0 f i cOAMManager.obj
 0001:0000e7f0       ??$construct@UOverAllOAM@@AAU1@@?$_Wrap_alloc@V?$allocator@UOverAllOAM@@@std@@@std@@QAEXPAUOverAllOAM@@AAU2@@Z 0040f7f0 f i cOAMManager.obj
 0001:0000e850       ??$construct@UOverAllOAM@@AAU1@@?$allocator@UOverAllOAM@@@std@@QAEXPAUOverAllOAM@@AAU2@@Z 0040f850 f i cOAMManager.obj
 0001:0000e8e0       ??$construct@UOverAllOAM@@AAU1@@?$allocator_traits@V?$allocator@UOverAllOAM@@@std@@@std@@SAXAAV?$allocator@UOverAllOAM@@@1@PAUOverAllOAM@@AAU3@@Z 0040f8e0 f i cOAMManager.obj
 0001:0000e930       ??$construct@UOverAllOAM@@ABU1@@?$_Wrap_alloc@V?$allocator@UOverAllOAM@@@std@@@std@@QAEXPAUOverAllOAM@@ABU2@@Z 0040f930 f i cOAMManager.obj
 0001:0000e990       ??$construct@UOverAllOAM@@ABU1@@?$allocator@UOverAllOAM@@@std@@QAEXPAUOverAllOAM@@ABU2@@Z 0040f990 f i cOAMManager.obj
 0001:0000ea20       ??$construct@UOverAllOAM@@ABU1@@?$allocator_traits@V?$allocator@UOverAllOAM@@@std@@@std@@SAXAAV?$allocator@UOverAllOAM@@@1@PAUOverAllOAM@@ABU3@@Z 0040fa20 f i cOAMManager.obj
 0001:0000ea70       ??$distance@V?$_Vector_iterator@V?$_Vector_val@U?$_Simple_types@UOverAllOAM@@@std@@@std@@@std@@@std@@YAHV?$_Vector_iterator@V?$_Vector_val@U?$_Simple_types@UOverAllOAM@@@std@@@std@@@0@0@Z 0040fa70 f i cOAMManager.obj
 0001:0000eb70       ??$forward@AAPAVFrameManager@@@std@@YAAAPAVFrameManager@@AAPAV1@@Z 0040fb70 f i cOAMManager.obj
 0001:0000eba0       ??$forward@AAU?$_Wrap_alloc@V?$allocator@UOverAllOAM@@@std@@@std@@@std@@YAAAU?$_Wrap_alloc@V?$allocator@UOverAllOAM@@@std@@@0@AAU10@@Z 0040fba0 f i cOAMManager.obj
 0001:0000ebd0       ??$forward@AAUOverAllOAM@@@std@@YAAAUOverAllOAM@@AAU1@@Z 0040fbd0 f i cOAMManager.obj
 0001:0000ec00       ??$forward@ABQAVFrameManager@@@std@@YAABQAVFrameManager@@ABQAV1@@Z 0040fc00 f i cOAMManager.obj
 0001:0000ec30       ??$forward@ABUOverAllOAM@@@std@@YAABUOverAllOAM@@ABU1@@Z 0040fc30 f i cOAMManager.obj
 0001:0000ec60       ??$insert@V?$_Vector_iterator@V?$_Vector_val@U?$_Simple_types@UOverAllOAM@@@std@@@std@@@std@@@?$vector@UOverAllOAM@@V?$allocator@UOverAllOAM@@@std@@@std@@QAE?AV?$_Vector_iterator@V?$_Vector_val@U?$_Simple_types@UOverAllOAM@@@std@@@std@@@1@V?$_Vector_const_iterator@V?$_Vector_val@U?$_Simple_types@UOverAllOAM@@@std@@@std@@@1@V21@1@Z 0040fc60 f i cOAMManager.obj
 0001:0000ee10       ??$iter_swap@PAUOverAllOAM@@PAU1@@std@@YAXPAUOverAllOAM@@0@Z 0040fe10 f i cOAMManager.obj
 0001:0000ee60       ??$move@AAUOverAllOAM@@@std@@YA$$QAUOverAllOAM@@AAU1@@Z 0040fe60 f i cOAMManager.obj
 0001:0000ee90       ??$rotate@PAUOverAllOAM@@@std@@YAPAUOverAllOAM@@PAU1@00@Z 0040fe90 f i cOAMManager.obj
 0001:0000ef40       ??$swap@UOverAllOAM@@X@std@@YAXAAUOverAllOAM@@0@Z 0040ff40 f i cOAMManager.obj
 0001:0000f000       ??0?$_Iterator012@Urandom_access_iterator_tag@std@@PAVFrame@@HPBQAV3@ABQAV3@U_Iterator_base12@2@@std@@QAE@$$QAU01@@Z 00410000 f i cOAMManager.obj
 0001:0000f050       ??0?$_Iterator012@Urandom_access_iterator_tag@std@@PAVFrame@@HPBQAV3@ABQAV3@U_Iterator_base12@2@@std@@QAE@XZ 00410050 f i cOAMManager.obj
 0001:0000f0a0       ??0?$_Iterator012@Urandom_access_iterator_tag@std@@PAVFrameManager@@HPBQAV3@ABQAV3@U_Iterator_base12@2@@std@@QAE@$$QAU01@@Z 004100a0 f i cOAMManager.obj
 0001:0000f0f0       ??0?$_Iterator012@Urandom_access_iterator_tag@std@@PAVFrameManager@@HPBQAV3@ABQAV3@U_Iterator_base12@2@@std@@QAE@XZ 004100f0 f i cOAMManager.obj
 0001:0000f140       ??0?$_Iterator012@Urandom_access_iterator_tag@std@@UOverAllOAM@@HPBU3@ABU3@U_Iterator_base12@2@@std@@QAE@$$QAU01@@Z 00410140 f i cOAMManager.obj
 0001:0000f190       ??0?$_Iterator012@Urandom_access_iterator_tag@std@@UOverAllOAM@@HPBU3@ABU3@U_Iterator_base12@2@@std@@QAE@ABU01@@Z 00410190 f i cOAMManager.obj
 0001:0000f1e0       ??0?$_Iterator012@Urandom_access_iterator_tag@std@@UOverAllOAM@@HPBU3@ABU3@U_Iterator_base12@2@@std@@QAE@XZ 004101e0 f i cOAMManager.obj
 0001:0000f230       ??0?$_Vector_alloc@U?$_Vec_base_types@UOverAllOAM@@V?$allocator@UOverAllOAM@@@std@@@std@@@std@@QAE@XZ 00410230 f i cOAMManager.obj
 0001:0000f2c0       ??0?$_Vector_const_iterator@V?$_Vector_val@U?$_Simple_types@PAVFrame@@@std@@@std@@@std@@QAE@$$QAV01@@Z 004102c0 f i cOAMManager.obj
 0001:0000f320       ??0?$_Vector_const_iterator@V?$_Vector_val@U?$_Simple_types@PAVFrame@@@std@@@std@@@std@@QAE@PAPAVFrame@@PBU_Container_base12@1@@Z 00410320 f i cOAMManager.obj
 0001:0000f3c0       ??0?$_Vector_const_iterator@V?$_Vector_val@U?$_Simple_types@PAVFrameManager@@@std@@@std@@@std@@QAE@$$QAV01@@Z 004103c0 f i cOAMManager.obj
 0001:0000f420       ??0?$_Vector_const_iterator@V?$_Vector_val@U?$_Simple_types@PAVFrameManager@@@std@@@std@@@std@@QAE@PAPAVFrameManager@@PBU_Container_base12@1@@Z 00410420 f i cOAMManager.obj
 0001:0000f4c0       ??0?$_Vector_const_iterator@V?$_Vector_val@U?$_Simple_types@UOverAllOAM@@@std@@@std@@@std@@QAE@$$QAV01@@Z 004104c0 f i cOAMManager.obj
 0001:0000f520       ??0?$_Vector_const_iterator@V?$_Vector_val@U?$_Simple_types@UOverAllOAM@@@std@@@std@@@std@@QAE@ABV01@@Z 00410520 f i cOAMManager.obj
 0001:0000f580       ??0?$_Vector_const_iterator@V?$_Vector_val@U?$_Simple_types@UOverAllOAM@@@std@@@std@@@std@@QAE@PAUOverAllOAM@@PBU_Container_base12@1@@Z 00410580 f i cOAMManager.obj
 0001:0000f620       ??0?$_Vector_iterator@V?$_Vector_val@U?$_Simple_types@PAVFrame@@@std@@@std@@@std@@QAE@PAPAVFrame@@PBU_Container_base12@1@@Z 00410620 f i cOAMManager.obj
 0001:0000f670       ??0?$_Vector_iterator@V?$_Vector_val@U?$_Simple_types@PAVFrameManager@@@std@@@std@@@std@@QAE@PAPAVFrameManager@@PBU_Container_base12@1@@Z 00410670 f i cOAMManager.obj
 0001:0000f6c0       ??0?$_Vector_iterator@V?$_Vector_val@U?$_Simple_types@UOverAllOAM@@@std@@@std@@@std@@QAE@ABV01@@Z 004106c0 f i cOAMManager.obj
 0001:0000f710       ??0?$_Vector_iterator@V?$_Vector_val@U?$_Simple_types@UOverAllOAM@@@std@@@std@@@std@@QAE@PAUOverAllOAM@@PBU_Container_base12@1@@Z 00410710 f i cOAMManager.obj
 0001:0000f760       ??0?$_Vector_val@U?$_Simple_types@UOverAllOAM@@@std@@@std@@QAE@XZ 00410760 f i cOAMManager.obj
 0001:0000f7c0       ??0?$_Wrap_alloc@V?$allocator@UOverAllOAM@@@std@@@std@@QAE@XZ 004107c0 f i cOAMManager.obj
 0001:0000f810       ??0?$allocator@UOverAllOAM@@@std@@QAE@XZ 00410810 f i cOAMManager.obj
 0001:0000f840       ??0?$vector@UOverAllOAM@@V?$allocator@UOverAllOAM@@@std@@@std@@QAE@XZ 00410840 f i cOAMManager.obj
 0001:0000f8b0       ??0cOAMManager@@QAE@XZ     004108b0 f   cOAMManager.obj
 0001:0000fac0       ??1?$_Compressed_pair@U?$_Wrap_alloc@V?$allocator@UOverAllOAM@@@std@@@std@@V?$_Vector_val@U?$_Simple_types@UOverAllOAM@@@std@@@2@$00@std@@QAE@XZ 00410ac0 f i cOAMManager.obj
 0001:0000fb00       ??1?$_Iterator012@Urandom_access_iterator_tag@std@@PAVFrame@@HPBQAV3@ABQAV3@U_Iterator_base12@2@@std@@QAE@XZ 00410b00 f i cOAMManager.obj
 0001:0000fb40       ??1?$_Iterator012@Urandom_access_iterator_tag@std@@PAVFrameManager@@HPBQAV3@ABQAV3@U_Iterator_base12@2@@std@@QAE@XZ 00410b40 f i cOAMManager.obj
 0001:0000fb80       ??1?$_Iterator012@Urandom_access_iterator_tag@std@@UOverAllOAM@@HPBU3@ABU3@U_Iterator_base12@2@@std@@QAE@XZ 00410b80 f i cOAMManager.obj
 0001:0000fbc0       ??1?$_Vector_alloc@U?$_Vec_base_types@UOverAllOAM@@V?$allocator@UOverAllOAM@@@std@@@std@@@std@@QAE@XZ 00410bc0 f i cOAMManager.obj
 0001:0000fc40       ??1?$_Vector_const_iterator@V?$_Vector_val@U?$_Simple_types@PAVFrame@@@std@@@std@@@std@@QAE@XZ 00410c40 f i cOAMManager.obj
 0001:0000fc80       ??1?$_Vector_const_iterator@V?$_Vector_val@U?$_Simple_types@PAVFrameManager@@@std@@@std@@@std@@QAE@XZ 00410c80 f i cOAMManager.obj
 0001:0000fcc0       ??1?$_Vector_const_iterator@V?$_Vector_val@U?$_Simple_types@UOverAllOAM@@@std@@@std@@@std@@QAE@XZ 00410cc0 f i cOAMManager.obj
 0001:0000fd00       ??1?$_Vector_iterator@V?$_Vector_val@U?$_Simple_types@PAVFrame@@@std@@@std@@@std@@QAE@XZ 00410d00 f i cOAMManager.obj
 0001:0000fd40       ??1?$_Vector_iterator@V?$_Vector_val@U?$_Simple_types@PAVFrameManager@@@std@@@std@@@std@@QAE@XZ 00410d40 f i cOAMManager.obj
 0001:0000fd80       ??1?$_Vector_iterator@V?$_Vector_val@U?$_Simple_types@UOverAllOAM@@@std@@@std@@@std@@QAE@XZ 00410d80 f i cOAMManager.obj
 0001:0000fdc0       ??1?$_Vector_val@U?$_Simple_types@UOverAllOAM@@@std@@@std@@QAE@XZ 00410dc0 f i cOAMManager.obj
 0001:0000fe00       ??1?$vector@UOverAllOAM@@V?$allocator@UOverAllOAM@@@std@@@std@@QAE@XZ 00410e00 f i cOAMManager.obj
 0001:0000fe80       ??8?$_Vector_const_iterator@V?$_Vector_val@U?$_Simple_types@PAVFrame@@@std@@@std@@@std@@QBE_NABV01@@Z 00410e80 f i cOAMManager.obj
 0001:0000fef0       ??8?$_Vector_const_iterator@V?$_Vector_val@U?$_Simple_types@PAVFrameManager@@@std@@@std@@@std@@QBE_NABV01@@Z 00410ef0 f i cOAMManager.obj
 0001:0000ff60       ??8?$_Vector_const_iterator@V?$_Vector_val@U?$_Simple_types@UOverAllOAM@@@std@@@std@@@std@@QBE_NABV01@@Z 00410f60 f i cOAMManager.obj
 0001:0000ffd0       ??9?$_Vector_const_iterator@V?$_Vector_val@U?$_Simple_types@PAVFrame@@@std@@@std@@@std@@QBE_NABV01@@Z 00410fd0 f i cOAMManager.obj
 0001:00010040       ??9?$_Vector_const_iterator@V?$_Vector_val@U?$_Simple_types@PAVFrameManager@@@std@@@std@@@std@@QBE_NABV01@@Z 00411040 f i cOAMManager.obj
 0001:000100b0       ??9?$_Vector_const_iterator@V?$_Vector_val@U?$_Simple_types@UOverAllOAM@@@std@@@std@@@std@@QBE_NABV01@@Z 004110b0 f i cOAMManager.obj
 0001:00010120       ??D?$_Vector_const_iterator@V?$_Vector_val@U?$_Simple_types@PAVFrame@@@std@@@std@@@std@@QBEABQAVFrame@@XZ 00411120 f i cOAMManager.obj
 0001:00010200       ??D?$_Vector_const_iterator@V?$_Vector_val@U?$_Simple_types@PAVFrameManager@@@std@@@std@@@std@@QBEABQAVFrameManager@@XZ 00411200 f i cOAMManager.obj
 0001:000102e0       ??D?$_Vector_const_iterator@V?$_Vector_val@U?$_Simple_types@UOverAllOAM@@@std@@@std@@@std@@QBEABUOverAllOAM@@XZ 004112e0 f i cOAMManager.obj
 0001:000103c0       ??D?$_Vector_iterator@V?$_Vector_val@U?$_Simple_types@UOverAllOAM@@@std@@@std@@@std@@QBEAAUOverAllOAM@@XZ 004113c0 f i cOAMManager.obj
 0001:00010400       ??E?$_Vector_const_iterator@V?$_Vector_val@U?$_Simple_types@PAVFrame@@@std@@@std@@@std@@QAEAAV01@XZ 00411400 f i cOAMManager.obj
 0001:000104d0       ??E?$_Vector_const_iterator@V?$_Vector_val@U?$_Simple_types@PAVFrameManager@@@std@@@std@@@std@@QAEAAV01@XZ 004114d0 f i cOAMManager.obj
 0001:000105a0       ??G?$_Vector_const_iterator@V?$_Vector_val@U?$_Simple_types@UOverAllOAM@@@std@@@std@@@std@@QBEHABV01@@Z 004115a0 f i cOAMManager.obj
 0001:00010600       ??G?$_Vector_iterator@V?$_Vector_val@U?$_Simple_types@UOverAllOAM@@@std@@@std@@@std@@QBEHABV?$_Vector_const_iterator@V?$_Vector_val@U?$_Simple_types@UOverAllOAM@@@std@@@std@@@1@@Z 00411600 f i cOAMManager.obj
 0001:00010650       ??H?$_Vector_iterator@V?$_Vector_val@U?$_Simple_types@UOverAllOAM@@@std@@@std@@@std@@QBE?AV01@H@Z 00411650 f i cOAMManager.obj
 0001:00010740       ??M?$_Vector_const_iterator@V?$_Vector_val@U?$_Simple_types@UOverAllOAM@@@std@@@std@@@std@@QBE_NABV01@@Z 00411740 f i cOAMManager.obj
 0001:000107b0       ??Y?$_Vector_const_iterator@V?$_Vector_val@U?$_Simple_types@UOverAllOAM@@@std@@@std@@@std@@QAEAAV01@H@Z 004117b0 f i cOAMManager.obj
 0001:000108b0       ??Y?$_Vector_iterator@V?$_Vector_val@U?$_Simple_types@UOverAllOAM@@@std@@@std@@@std@@QAEAAV01@H@Z 004118b0 f i cOAMManager.obj
 0001:00010900       ?DecodeSprite@cOAMManager@@SAHPAU_iobuf@@_NPAVSprGBuf@@K@Z 00411900 f   cOAMManager.obj
 0001:00010ad0       ?DrawOAM@cOAMManager@@QAEHEPAVTileBuffer@@PAUsSpritev@@@Z 00411ad0 f   cOAMManager.obj
 0001:00010f60       ?DrawPSprite@cOAMManager@@SAHPAVSprGBuf@@H@Z 00411f60 f   cOAMManager.obj
 0001:00011890       ?GetSpriteSize@cOAMManager@@SAPADHH@Z 00412890 f   cOAMManager.obj
 0001:000118e0       ?LoadRoomOAM@cOAMManager@@QAEHXZ 004128e0 f   cOAMManager.obj
 0001:00011b10       ?LoadSpriteToMem@cOAMManager@@SAH_NPAUGFXData@@PAUsprite_entry@@PAEPAVTileBuffer@@@Z 00412b10 f   cOAMManager.obj
 0001:00011e80       ?SaveSprite@cOAMManager@@QAEHPAU_iobuf@@W4SaveOptions@@PAVSprGBuf@@K@Z 00412e80 f   cOAMManager.obj
 0001:00011f80       ?_Alloc_proxy@?$_Vector_alloc@U?$_Vec_base_types@UOverAllOAM@@V?$allocator@UOverAllOAM@@@std@@@std@@@std@@QAEXXZ 00412f80 f i cOAMManager.obj
 0001:00012050       ?_Compat@?$_Vector_const_iterator@V?$_Vector_val@U?$_Simple_types@PAVFrame@@@std@@@std@@@std@@QBEXABV12@@Z 00413050 f i cOAMManager.obj
 0001:00012110       ?_Compat@?$_Vector_const_iterator@V?$_Vector_val@U?$_Simple_types@PAVFrameManager@@@std@@@std@@@std@@QBEXABV12@@Z 00413110 f i cOAMManager.obj
 0001:000121d0       ?_Compat@?$_Vector_const_iterator@V?$_Vector_val@U?$_Simple_types@UOverAllOAM@@@std@@@std@@@std@@QBEXABV12@@Z 004131d0 f i cOAMManager.obj
 0001:00012290       ?_Destroy@?$vector@PAVFrameManager@@V?$allocator@PAVFrameManager@@@std@@@std@@IAEXPAPAVFrameManager@@0@Z 00413290 f i cOAMManager.obj
 0001:000122f0       ?_Destroy@?$vector@UOverAllOAM@@V?$allocator@UOverAllOAM@@@std@@@std@@IAEXPAUOverAllOAM@@0@Z 004132f0 f i cOAMManager.obj
 0001:00012350       ?_Free_proxy@?$_Vector_alloc@U?$_Vec_base_types@UOverAllOAM@@V?$allocator@UOverAllOAM@@@std@@@std@@@std@@QAEXXZ 00413350 f i cOAMManager.obj
 0001:00012410       ?_Get_data@?$_Vector_alloc@U?$_Vec_base_types@PAVFrameManager@@V?$allocator@PAVFrameManager@@@std@@@std@@@std@@QAEAAV?$_Vector_val@U?$_Simple_types@PAVFrameManager@@@std@@@2@XZ 00413410 f i cOAMManager.obj
 0001:00012450       ?_Get_data@?$_Vector_alloc@U?$_Vec_base_types@PAVFrameManager@@V?$allocator@PAVFrameManager@@@std@@@std@@@std@@QBEABV?$_Vector_val@U?$_Simple_types@PAVFrameManager@@@std@@@2@XZ 00413450 f i cOAMManager.obj
 0001:00012490       ?_Get_first@?$_Compressed_pair@U?$_Wrap_alloc@V?$allocator@PAVFrameManager@@@std@@@std@@V?$_Vector_val@U?$_Simple_types@PAVFrameManager@@@std@@@2@$00@std@@QAEAAU?$_Wrap_alloc@V?$allocator@PAVFrameManager@@@std@@@2@XZ 00413490 f i cOAMManager.obj
 0001:000124c0       ?_Get_first@?$_Compressed_pair@U?$_Wrap_alloc@V?$allocator@PAVFrameManager@@@std@@@std@@V?$_Vector_val@U?$_Simple_types@PAVFrameManager@@@std@@@2@$00@std@@QBEABU?$_Wrap_alloc@V?$allocator@PAVFrameManager@@@std@@@2@XZ 004134c0 f i cOAMManager.obj
 0001:000124f0       ?_Get_first@?$_Compressed_pair@U?$_Wrap_alloc@V?$allocator@UOverAllOAM@@@std@@@std@@V?$_Vector_val@U?$_Simple_types@UOverAllOAM@@@std@@@2@$00@std@@QAEAAU?$_Wrap_alloc@V?$allocator@UOverAllOAM@@@std@@@2@XZ 004134f0 f i cOAMManager.obj
 0001:00012520       ?_Get_first@?$_Compressed_pair@U?$_Wrap_alloc@V?$allocator@UOverAllOAM@@@std@@@std@@V?$_Vector_val@U?$_Simple_types@UOverAllOAM@@@std@@@2@$00@std@@QBEABU?$_Wrap_alloc@V?$allocator@UOverAllOAM@@@std@@@2@XZ 00413520 f i cOAMManager.obj
 0001:00012550       ?_Get_second@?$_Compressed_pair@U?$_Wrap_alloc@V?$allocator@PAVFrameManager@@@std@@@std@@V?$_Vector_val@U?$_Simple_types@PAVFrameManager@@@std@@@2@$00@std@@QAEAAV?$_Vector_val@U?$_Simple_types@PAVFrameManager@@@std@@@2@XZ 00413550 f i cOAMManager.obj
 0001:00012580       ?_Get_second@?$_Compressed_pair@U?$_Wrap_alloc@V?$allocator@PAVFrameManager@@@std@@@std@@V?$_Vector_val@U?$_Simple_types@PAVFrameManager@@@std@@@2@$00@std@@QBEABV?$_Vector_val@U?$_Simple_types@PAVFrameManager@@@std@@@2@XZ 00413580 f i cOAMManager.obj
 0001:000125b0       ?_Getal@?$_Vector_alloc@U?$_Vec_base_types@PAVFrameManager@@V?$allocator@PAVFrameManager@@@std@@@std@@@std@@QAEAAU?$_Wrap_alloc@V?$allocator@PAVFrameManager@@@std@@@2@XZ 004135b0 f i cOAMManager.obj
 0001:000125f0       ?_Getal@?$_Vector_alloc@U?$_Vec_base_types@PAVFrameManager@@V?$allocator@PAVFrameManager@@@std@@@std@@@std@@QBEABU?$_Wrap_alloc@V?$allocator@PAVFrameManager@@@std@@@2@XZ 004135f0 f i cOAMManager.obj
 0001:00012630       ?_Getal@?$_Vector_alloc@U?$_Vec_base_types@UOverAllOAM@@V?$allocator@UOverAllOAM@@@std@@@std@@@std@@QAEAAU?$_Wrap_alloc@V?$allocator@UOverAllOAM@@@std@@@2@XZ 00413630 f i cOAMManager.obj
 0001:00012670       ?_Getal@?$_Vector_alloc@U?$_Vec_base_types@UOverAllOAM@@V?$allocator@UOverAllOAM@@@std@@@std@@@std@@QBEABU?$_Wrap_alloc@V?$allocator@UOverAllOAM@@@std@@@2@XZ 00413670 f i cOAMManager.obj
 0001:000126b0       ?_Getpfirst@?$_Vector_alloc@U?$_Vec_base_types@PAVFrameManager@@V?$allocator@PAVFrameManager@@@std@@@std@@@std@@QBEPAPAU_Iterator_base12@2@XZ 004136b0 f i cOAMManager.obj
 0001:00012700       ?_Getpfirst@?$_Vector_alloc@U?$_Vec_base_types@UOverAllOAM@@V?$allocator@UOverAllOAM@@@std@@@std@@@std@@QBEPAPAU_Iterator_base12@2@XZ 00413700 f i cOAMManager.obj
 0001:00012750       ?_Grow_to@?$vector@PAVFrameManager@@V?$allocator@PAVFrameManager@@@std@@@std@@IBEII@Z 00413750 f i cOAMManager.obj
 0001:000127e0       ?_Grow_to@?$vector@UOverAllOAM@@V?$allocator@UOverAllOAM@@@std@@@std@@IBEII@Z 004137e0 f i cOAMManager.obj
 0001:00012870       ?_Inside@?$vector@PAVFrameManager@@V?$allocator@PAVFrameManager@@@std@@@std@@IBE_NPBQAVFrameManager@@@Z 00413870 f i cOAMManager.obj
 0001:00012900       ?_Inside@?$vector@UOverAllOAM@@V?$allocator@UOverAllOAM@@@std@@@std@@IBE_NPBUOverAllOAM@@@Z 00413900 f i cOAMManager.obj
 0001:00012990       ?_Myend@?$_Vector_alloc@U?$_Vec_base_types@PAVFrameManager@@V?$allocator@PAVFrameManager@@@std@@@std@@@std@@QAEAAPAPAVFrameManager@@XZ 00413990 f i cOAMManager.obj
 0001:000129e0       ?_Myend@?$_Vector_alloc@U?$_Vec_base_types@PAVFrameManager@@V?$allocator@PAVFrameManager@@@std@@@std@@@std@@QBEABQAPAVFrameManager@@XZ 004139e0 f i cOAMManager.obj
 0001:00012a30       ?_Myend@?$_Vector_alloc@U?$_Vec_base_types@UOverAllOAM@@V?$allocator@UOverAllOAM@@@std@@@std@@@std@@QAEAAPAUOverAllOAM@@XZ 00413a30 f i cOAMManager.obj
 0001:00012a80       ?_Myend@?$_Vector_alloc@U?$_Vec_base_types@UOverAllOAM@@V?$allocator@UOverAllOAM@@@std@@@std@@@std@@QBEABQAUOverAllOAM@@XZ 00413a80 f i cOAMManager.obj
 0001:00012ad0       ?_Myfirst@?$_Vector_alloc@U?$_Vec_base_types@PAVFrameManager@@V?$allocator@PAVFrameManager@@@std@@@std@@@std@@QAEAAPAPAVFrameManager@@XZ 00413ad0 f i cOAMManager.obj
 0001:00012b20       ?_Myfirst@?$_Vector_alloc@U?$_Vec_base_types@PAVFrameManager@@V?$allocator@PAVFrameManager@@@std@@@std@@@std@@QBEABQAPAVFrameManager@@XZ 00413b20 f i cOAMManager.obj
 0001:00012b70       ?_Mylast@?$_Vector_alloc@U?$_Vec_base_types@PAVFrameManager@@V?$allocator@PAVFrameManager@@@std@@@std@@@std@@QAEAAPAPAVFrameManager@@XZ 00413b70 f i cOAMManager.obj
 0001:00012bc0       ?_Mylast@?$_Vector_alloc@U?$_Vec_base_types@PAVFrameManager@@V?$allocator@PAVFrameManager@@@std@@@std@@@std@@QBEABQAPAVFrameManager@@XZ 00413bc0 f i cOAMManager.obj
 0001:00012c10       ?_Mylast@?$_Vector_alloc@U?$_Vec_base_types@UOverAllOAM@@V?$allocator@UOverAllOAM@@@std@@@std@@@std@@QAEAAPAUOverAllOAM@@XZ 00413c10 f i cOAMManager.obj
 0001:00012c60       ?_Myproxy@?$_Vector_alloc@U?$_Vec_base_types@UOverAllOAM@@V?$allocator@UOverAllOAM@@@std@@@std@@@std@@QAEAAPAU_Container_proxy@2@XZ 00413c60 f i cOAMManager.obj
 0001:00012ca0       ?_Orphan_all@?$_Vector_alloc@U?$_Vec_base_types@PAVFrameManager@@V?$allocator@PAVFrameManager@@@std@@@std@@@std@@QAEXXZ 00413ca0 f i cOAMManager.obj
 0001:00012cf0       ?_Orphan_all@?$_Vector_alloc@U?$_Vec_base_types@UOverAllOAM@@V?$allocator@UOverAllOAM@@@std@@@std@@@std@@QAEXXZ 00413cf0 f i cOAMManager.obj
 0001:00012d40       ?_Orphan_range@?$vector@PAVFrameManager@@V?$allocator@PAVFrameManager@@@std@@@std@@IBEXPAPAVFrameManager@@0@Z 00413d40 f i cOAMManager.obj
 0001:00012e50       ?_Orphan_range@?$vector@UOverAllOAM@@V?$allocator@UOverAllOAM@@@std@@@std@@IBEXPAUOverAllOAM@@0@Z 00413e50 f i cOAMManager.obj
 0001:00012f60       ?_Reallocate@?$vector@PAVFrameManager@@V?$allocator@PAVFrameManager@@@std@@@std@@IAEXI@Z 00413f60 f i cOAMManager.obj
 0001:000130f0       ?_Reallocate@?$vector@UOverAllOAM@@V?$allocator@UOverAllOAM@@@std@@@std@@IAEXI@Z 004140f0 f i cOAMManager.obj
 0001:00013280       ?_Reserve@?$vector@PAVFrameManager@@V?$allocator@PAVFrameManager@@@std@@@std@@IAEXI@Z 00414280 f i cOAMManager.obj
 0001:00013310       ?_Reserve@?$vector@UOverAllOAM@@V?$allocator@UOverAllOAM@@@std@@@std@@IAEXI@Z 00414310 f i cOAMManager.obj
 0001:000133a0       ?_Tidy@?$vector@UOverAllOAM@@V?$allocator@UOverAllOAM@@@std@@@std@@IAEXXZ 004143a0 f i cOAMManager.obj
 0001:00013480       ?_Unchecked@?$_Vector_iterator@V?$_Vector_val@U?$_Simple_types@UOverAllOAM@@@std@@@std@@@std@@QBEPAUOverAllOAM@@XZ 00414480 f i cOAMManager.obj
 0001:000134b0       ?_Unused_capacity@?$vector@PAVFrameManager@@V?$allocator@PAVFrameManager@@@std@@@std@@QBEIXZ 004144b0 f i cOAMManager.obj
 0001:00013510       ?_Unused_capacity@?$vector@UOverAllOAM@@V?$allocator@UOverAllOAM@@@std@@@std@@QBEIXZ 00414510 f i cOAMManager.obj
 0001:00013570       ?_Xlen@?$vector@PAVFrameManager@@V?$allocator@PAVFrameManager@@@std@@@std@@IBEXXZ 00414570 f i cOAMManager.obj
 0001:000135c0       ?_Xlen@?$vector@UOverAllOAM@@V?$allocator@UOverAllOAM@@@std@@@std@@IBEXXZ 004145c0 f i cOAMManager.obj
 0001:00013610       ?allocate@?$_Wrap_alloc@V?$allocator@PAVFrameManager@@@std@@@std@@QAEPAPAVFrameManager@@I@Z 00414610 f i cOAMManager.obj
 0001:00013660       ?allocate@?$_Wrap_alloc@V?$allocator@UOverAllOAM@@@std@@@std@@QAEPAUOverAllOAM@@I@Z 00414660 f i cOAMManager.obj
 0001:000136b0       ?allocate@?$allocator@PAVFrameManager@@@std@@QAEPAPAVFrameManager@@I@Z 004146b0 f i cOAMManager.obj
 0001:00013700       ?allocate@?$allocator@UOverAllOAM@@@std@@QAEPAUOverAllOAM@@I@Z 00414700 f i cOAMManager.obj
 0001:00013750       ?begin@?$vector@PAVFrame@@V?$allocator@PAVFrame@@@std@@@std@@QAE?AV?$_Vector_iterator@V?$_Vector_val@U?$_Simple_types@PAVFrame@@@std@@@std@@@2@XZ 00414750 f i cOAMManager.obj
 0001:000137e0       ?begin@?$vector@PAVFrameManager@@V?$allocator@PAVFrameManager@@@std@@@std@@QAE?AV?$_Vector_iterator@V?$_Vector_val@U?$_Simple_types@PAVFrameManager@@@std@@@std@@@2@XZ 004147e0 f i cOAMManager.obj
 0001:00013870       ?begin@?$vector@UOverAllOAM@@V?$allocator@UOverAllOAM@@@std@@@std@@QAE?AV?$_Vector_iterator@V?$_Vector_val@U?$_Simple_types@UOverAllOAM@@@std@@@std@@@2@XZ 00414870 f i cOAMManager.obj
 0001:00013900       ?capacity@?$vector@PAVFrameManager@@V?$allocator@PAVFrameManager@@@std@@@std@@QBEIXZ 00414900 f i cOAMManager.obj
 0001:00013960       ?capacity@?$vector@UOverAllOAM@@V?$allocator@UOverAllOAM@@@std@@@std@@QBEIXZ 00414960 f i cOAMManager.obj
 0001:000139c0       ?clear@?$vector@PAVFrameManager@@V?$allocator@PAVFrameManager@@@std@@@std@@QAEXXZ 004149c0 f i cOAMManager.obj
 0001:00013a60       ?clear@?$vector@UOverAllOAM@@V?$allocator@UOverAllOAM@@@std@@@std@@QAEXXZ 00414a60 f i cOAMManager.obj
 0001:00013b00       ?deallocate@?$_Wrap_alloc@V?$allocator@PAVFrameManager@@@std@@@std@@QAEXPAPAVFrameManager@@I@Z 00414b00 f i cOAMManager.obj
 0001:00013b50       ?deallocate@?$_Wrap_alloc@V?$allocator@UOverAllOAM@@@std@@@std@@QAEXPAUOverAllOAM@@I@Z 00414b50 f i cOAMManager.obj
 0001:00013ba0       ?deallocate@?$allocator@PAVFrameManager@@@std@@QAEXPAPAVFrameManager@@I@Z 00414ba0 f i cOAMManager.obj
 0001:00013bf0       ?deallocate@?$allocator@UOverAllOAM@@@std@@QAEXPAUOverAllOAM@@I@Z 00414bf0 f i cOAMManager.obj
 0001:00013c40       ?end@?$vector@PAVFrame@@V?$allocator@PAVFrame@@@std@@@std@@QAE?AV?$_Vector_iterator@V?$_Vector_val@U?$_Simple_types@PAVFrame@@@std@@@std@@@2@XZ 00414c40 f i cOAMManager.obj
 0001:00013cd0       ?end@?$vector@PAVFrameManager@@V?$allocator@PAVFrameManager@@@std@@@std@@QAE?AV?$_Vector_iterator@V?$_Vector_val@U?$_Simple_types@PAVFrameManager@@@std@@@std@@@2@XZ 00414cd0 f i cOAMManager.obj
 0001:00013d60       ?end@?$vector@UOverAllOAM@@V?$allocator@UOverAllOAM@@@std@@@std@@QAE?AV?$_Vector_iterator@V?$_Vector_val@U?$_Simple_types@UOverAllOAM@@@std@@@std@@@2@XZ 00414d60 f i cOAMManager.obj
 0001:00013df0       ?front@?$vector@UOverAllOAM@@V?$allocator@UOverAllOAM@@@std@@@std@@QAEAAUOverAllOAM@@XZ 00414df0 f i cOAMManager.obj
 0001:00013eb0       ?max_size@?$_Wrap_alloc@V?$allocator@PAVFrameManager@@@std@@@std@@QBEIU_Nil@2@@Z 00414eb0 f i cOAMManager.obj
 0001:00013f00       ?max_size@?$_Wrap_alloc@V?$allocator@UOverAllOAM@@@std@@@std@@QBEIU_Nil@2@@Z 00414f00 f i cOAMManager.obj
 0001:00013f50       ?max_size@?$allocator@PAVFrameManager@@@std@@QBEIXZ 00414f50 f i cOAMManager.obj
 0001:00013f80       ?max_size@?$allocator@UOverAllOAM@@@std@@QBEIXZ 00414f80 f i cOAMManager.obj
 0001:00013fb0       ?max_size@?$allocator_traits@V?$allocator@PAVFrameManager@@@std@@@std@@SAIABV?$allocator@PAVFrameManager@@@2@@Z 00414fb0 f i cOAMManager.obj
 0001:00013ff0       ?max_size@?$allocator_traits@V?$allocator@UOverAllOAM@@@std@@@std@@SAIABV?$allocator@UOverAllOAM@@@2@@Z 00414ff0 f i cOAMManager.obj
 0001:00014030       ?max_size@?$vector@PAVFrameManager@@V?$allocator@PAVFrameManager@@@std@@@std@@QBEIXZ 00415030 f i cOAMManager.obj
 0001:00014080       ?max_size@?$vector@UOverAllOAM@@V?$allocator@UOverAllOAM@@@std@@@std@@QBEIXZ 00415080 f i cOAMManager.obj
 0001:000140d0       ?push_back@?$vector@PAVFrameManager@@V?$allocator@PAVFrameManager@@@std@@@std@@QAEXABQAVFrameManager@@@Z 004150d0 f i cOAMManager.obj
 0001:00014280       ?push_back@?$vector@UOverAllOAM@@V?$allocator@UOverAllOAM@@@std@@@std@@QAEXABUOverAllOAM@@@Z 00415280 f i cOAMManager.obj
 0001:00014430       ?size@?$vector@PAVFrameManager@@V?$allocator@PAVFrameManager@@@std@@@std@@QBEIXZ 00415430 f i cOAMManager.obj
 0001:00014490       ??0cSSE@@QAE@XZ            00415490 f   cSSE.obj
 0001:00014570       ?Create@cSSE@@QAEHPAUHINSTANCE__@@@Z 00415570 f   cSSE.obj
 0001:00014770       ?CreatePalWindow@cSSE@@QAEHPAUHINSTANCE__@@P6GJPAUHWND__@@IIJ@Z@Z 00415770 f   cSSE.obj
 0001:000148b0       ?CreateSpriteWindow@cSSE@@QAEHPAUHINSTANCE__@@P6GJPAUHWND__@@IIJ@Z@Z 004158b0 f   cSSE.obj
 0001:000149f0       ?DecodeSet@cSSE@@QAEH_N@Z  004159f0 f   cSSE.obj
 0001:00014b80       ?GetSet@cSSE@@QAEHHEPAVcEntityManager@@@Z 00415b80 f   cSSE.obj
 0001:00014d20       ?SetInfo@cSSE@@QAEHXZ      00415d20 f   cSSE.obj
 0001:00014e90       ?SetupPreview@cSSE@@QAEHPAVSprGBuf@@H@Z 00415e90 f   cSSE.obj
 0001:00015420       ??0cStatEd@@QAE@XZ         00416420 f   cStatEd.obj
 0001:000154d0       ??1cStatEd@@QAE@XZ         004164d0 f   cStatEd.obj
 0001:00015540       ??$?0$$QAH$$Z$$V@?$pair@$$CBHV?$basic_string@DU?$char_traits@D@std@@V?$allocator@D@2@@std@@@std@@QAE@Upiecewise_construct_t@1@V?$tuple@$$QAH@1@V?$tuple@$$V@1@@Z 00416540 f i cTED.obj
 0001:000155a0       ??$?0$$V@?$_Compressed_pair@U?$_Wrap_alloc@V?$allocator@D@std@@@std@@V?$_String_val@U?$_Simple_types@D@std@@@2@$00@std@@QAE@U_Zero_then_variadic_args_t@1@@Z 004165a0 f i cTED.obj
 0001:000155f0       ??$?0$$V@?$_Compressed_pair@U?$_Wrap_alloc@V?$allocator@U?$_Tree_node@U?$pair@$$CBHV?$basic_string@DU?$char_traits@D@std@@V?$allocator@D@2@@std@@@std@@PAX@std@@@std@@@std@@V?$_Tree_val@U?$_Tree_simple_types@U?$pair@$$CBHV?$basic_string@DU?$char_traits@D@std@@V?$allocator@D@2@@std@@@std@@@std@@@2@$00@std@@QAE@U_Zero_then_variadic_args_t@1@@Z 004165f0 f i cTED.obj
 0001:00015640       ??$?0AAU?$_Wrap_alloc@V?$allocator@D@std@@@std@@@?$_Wrap_alloc@V?$allocator@U_Container_proxy@std@@@std@@@std@@QAE@AAU?$_Wrap_alloc@V?$allocator@D@std@@@1@@Z 00416640 f i cTED.obj
 0001:000156a0       ??$?0AAU?$_Wrap_alloc@V?$allocator@U?$_Tree_node@U?$pair@$$CBHV?$basic_string@DU?$char_traits@D@std@@V?$allocator@D@2@@std@@@std@@PAX@std@@@std@@@std@@@?$_Wrap_alloc@V?$allocator@U_Container_proxy@std@@@std@@@std@@QAE@AAU?$_Wrap_alloc@V?$allocator@U?$_Tree_node@U?$pair@$$CBHV?$basic_string@DU?$char_traits@D@std@@V?$allocator@D@2@@std@@@std@@PAX@std@@@std@@@1@@Z 004166a0 f i cTED.obj
 0001:00015700       ??$?0AAV?$_Tree_const_iterator@V?$_Tree_val@U?$_Tree_simple_types@U?$pair@$$CBHV?$basic_string@DU?$char_traits@D@std@@V?$allocator@D@2@@std@@@std@@@std@@@std@@@std@@AAV01@X$0A@@?$pair@V?$_Tree_const_iterator@V?$_Tree_val@U?$_Tree_simple_types@U?$pair@$$CBHV?$basic_string@DU?$char_traits@D@std@@V?$allocator@D@2@@std@@@std@@@std@@@std@@@std@@V12@@std@@QAE@AAV?$_Tree_const_iterator@V?$_Tree_val@U?$_Tree_simple_types@U?$pair@$$CBHV?$basic_string@DU?$char_traits@D@std@@V?$allocator@D@2@@std@@@std@@@std@@@std@@@1@0@Z 00416700 f i cTED.obj
 0001:000157b0       ??$?0AAV?$_Tree_iterator@V?$_Tree_val@U?$_Tree_simple_types@U?$pair@$$CBHV?$basic_string@DU?$char_traits@D@std@@V?$allocator@D@2@@std@@@std@@@std@@@std@@@std@@_NX$0A@@?$pair@V?$_Tree_iterator@V?$_Tree_val@U?$_Tree_simple_types@U?$pair@$$CBHV?$basic_string@DU?$char_traits@D@std@@V?$allocator@D@2@@std@@@std@@@std@@@std@@@std@@_N@std@@QAE@AAV?$_Tree_iterator@V?$_Tree_val@U?$_Tree_simple_types@U?$pair@$$CBHV?$basic_string@DU?$char_traits@D@std@@V?$allocator@D@2@@std@@@std@@@std@@@std@@@1@$$QA_N@Z 004167b0 f i cTED.obj
 0001:00015820       ??$?0ABH$$Z$$V@?$pair@$$CBHV?$basic_string@DU?$char_traits@D@std@@V?$allocator@D@2@@std@@@std@@QAE@Upiecewise_construct_t@1@V?$tuple@ABH@1@V?$tuple@$$V@1@@Z 00416820 f i cTED.obj
 0001:00015880       ??$?0ABH$0A@@?$tuple@ABH@std@@QAE@ABH@Z 00416880 f i cTED.obj
 0001:000158e0       ??$?0ABH@?$_Tuple_val@ABH@std@@QAE@ABH@Z 004168e0 f i cTED.obj
 0001:00015930       ??$?0ABU?$less@H@std@@U_Zero_then_variadic_args_t@1@@?$_Compressed_pair@U?$less@H@std@@V?$_Compressed_pair@U?$_Wrap_alloc@V?$allocator@U?$_Tree_node@U?$pair@$$CBHV?$basic_string@DU?$char_traits@D@std@@V?$allocator@D@2@@std@@@std@@PAX@std@@@std@@@std@@V?$_Tree_val@U?$_Tree_simple_types@U?$pair@$$CBHV?$basic_string@DU?$char_traits@D@std@@V?$allocator@D@2@@std@@@std@@@std@@@2@$00@2@$00@std@@QAE@U_One_then_variadic_args_t@1@ABU?$less@H@1@$$QAU_Zero_then_variadic_args_t@1@@Z 00416930 f i cTED.obj
 0001:000159a0       ??$?0D@?$allocator@U_Container_proxy@std@@@std@@QAE@ABV?$allocator@D@1@@Z 004169a0 f i cTED.obj
 0001:000159d0       ??$?0H$$V$0A@@?$tuple@$$QAH@std@@QAE@$$QAH@Z 004169d0 f i cTED.obj
 0001:00015a40       ??$?0H@?$_Tuple_val@$$QAH@std@@QAE@$$QAH@Z 00416a40 f i cTED.obj
 0001:00015a90       ??$?0U?$_Tree_node@U?$pair@$$CBHV?$basic_string@DU?$char_traits@D@std@@V?$allocator@D@2@@std@@@std@@PAX@std@@@?$allocator@U_Container_proxy@std@@@std@@QAE@ABV?$allocator@U?$_Tree_node@U?$pair@$$CBHV?$basic_string@DU?$char_traits@D@std@@V?$allocator@D@2@@std@@@std@@PAX@std@@@1@@Z 00416a90 f i cTED.obj
 0001:00015ac0       ??$?0U?$_Wrap_alloc@V?$allocator@D@std@@@std@@$$V@?$_Compressed_pair@U?$_Wrap_alloc@V?$allocator@D@std@@@std@@V?$_String_val@U?$_Simple_types@D@std@@@2@$00@std@@QAE@U_One_then_variadic_args_t@1@$$QAU?$_Wrap_alloc@V?$allocator@D@std@@@1@@Z 00416ac0 f i cTED.obj
 0001:00015b20       ??$?0U?$_Wrap_alloc@V?$allocator@D@std@@@std@@X@?$_String_alloc@U?$_String_base_types@DV?$allocator@D@std@@@std@@@std@@QAE@$$QAU?$_Wrap_alloc@V?$allocator@D@std@@@1@@Z 00416b20 f i cTED.obj
 0001:00015bc0       ??$?0U_Exact_args_t@std@@$0A@@?$tuple@$$V@std@@QAE@U_Exact_args_t@1@@Z 00416bc0 f i cTED.obj
 0001:00015bf0       ??$?0V?$_Tree_iterator@V?$_Tree_val@U?$_Tree_simple_types@U?$pair@$$CBHV?$basic_string@DU?$char_traits@D@std@@V?$allocator@D@2@@std@@@std@@@std@@@std@@@std@@_NX$0A@@?$pair@V?$_Tree_iterator@V?$_Tree_val@U?$_Tree_simple_types@U?$pair@$$CBHV?$basic_string@DU?$char_traits@D@std@@V?$allocator@D@2@@std@@@std@@@std@@@std@@@std@@_N@std@@QAE@$$QAV?$_Tree_iterator@V?$_Tree_val@U?$_Tree_simple_types@U?$pair@$$CBHV?$basic_string@DU?$char_traits@D@std@@V?$allocator@D@2@@std@@@std@@@std@@@std@@@1@$$QA_N@Z 00416bf0 f i cTED.obj
 0001:00015c60       ??$?0V?$allocator@D@std@@@?$_Wrap_alloc@V?$allocator@D@std@@@std@@QAE@$$QAV?$allocator@D@1@@Z 00416c60 f i cTED.obj
 0001:00015cc0       ??$?0V?$tuple@$$QAH@std@@V?$tuple@$$V@1@$0A@$$Z$S@?$pair@$$CBHV?$basic_string@DU?$char_traits@D@std@@V?$allocator@D@2@@std@@@std@@QAE@AAV?$tuple@$$QAH@1@AAV?$tuple@$$V@1@U?$integer_sequence@I$0A@@1@U?$integer_sequence@I$S@1@@Z 00416cc0 f i cTED.obj
 0001:00015d30       ??$?0V?$tuple@ABH@std@@V?$tuple@$$V@1@$0A@$$Z$S@?$pair@$$CBHV?$basic_string@DU?$char_traits@D@std@@V?$allocator@D@2@@std@@@std@@QAE@AAV?$tuple@ABH@1@AAV?$tuple@$$V@1@U?$integer_sequence@I$0A@@1@U?$integer_sequence@I$S@1@@Z 00416d30 f i cTED.obj
 0001:00015da0       ??$?8DU?$char_traits@D@std@@V?$allocator@D@1@@std@@YA_NABV?$basic_string@DU?$char_traits@D@std@@V?$allocator@D@2@@0@0@Z 00416da0 f i cTED.obj
 0001:00015e00       ??$?8DU?$char_traits@D@std@@V?$allocator@D@1@@std@@YA_NABV?$basic_string@DU?$char_traits@D@std@@V?$allocator@D@2@@0@PBD@Z 00416e00 f i cTED.obj
 0001:00015e60       ??$_Buynode@ABUpiecewise_construct_t@std@@V?$tuple@$$QAH@2@V?$tuple@$$V@2@@?$_Tree_comp_alloc@V?$_Tmap_traits@HV?$basic_string@DU?$char_traits@D@std@@V?$allocator@D@2@@std@@U?$less@H@2@V?$allocator@U?$pair@$$CBHV?$basic_string@DU?$char_traits@D@std@@V?$allocator@D@2@@std@@@std@@@2@$0A@@std@@@std@@QAEPAU?$_Tree_node@U?$pair@$$CBHV?$basic_string@DU?$char_traits@D@std@@V?$allocator@D@2@@std@@@std@@PAX@1@ABUpiecewise_construct_t@1@$$QAV?$tuple@$$QAH@1@$$QAV?$tuple@$$V@1@@Z 00416e60 f i cTED.obj
 0001:00015f80       ??$_Buynode@ABUpiecewise_construct_t@std@@V?$tuple@ABH@2@V?$tuple@$$V@2@@?$_Tree_comp_alloc@V?$_Tmap_traits@HV?$basic_string@DU?$char_traits@D@std@@V?$allocator@D@2@@std@@U?$less@H@2@V?$allocator@U?$pair@$$CBHV?$basic_string@DU?$char_traits@D@std@@V?$allocator@D@2@@std@@@std@@@2@$0A@@std@@@std@@QAEPAU?$_Tree_node@U?$pair@$$CBHV?$basic_string@DU?$char_traits@D@std@@V?$allocator@D@2@@std@@@std@@PAX@1@ABUpiecewise_construct_t@1@$$QAV?$tuple@ABH@1@$$QAV?$tuple@$$V@1@@Z 00416f80 f i cTED.obj
 0001:000160a0       ??$_Buynode_if_nil@AAU?$pair@$$CBHV?$basic_string@DU?$char_traits@D@std@@V?$allocator@D@2@@std@@@std@@@?$_Tree@V?$_Tmap_traits@HV?$basic_string@DU?$char_traits@D@std@@V?$allocator@D@2@@std@@U?$less@H@2@V?$allocator@U?$pair@$$CBHV?$basic_string@DU?$char_traits@D@std@@V?$allocator@D@2@@std@@@std@@@2@$0A@@std@@@std@@IAEPAU?$_Tree_node@U?$pair@$$CBHV?$basic_string@DU?$char_traits@D@std@@V?$allocator@D@2@@std@@@std@@PAX@1@PAU21@AAU?$pair@$$CBHV?$basic_string@DU?$char_traits@D@std@@V?$allocator@D@2@@std@@@1@@Z 004170a0 f i cTED.obj
 0001:000160d0       ??$_Debug_lt_pred@AAU?$less@H@std@@AAHABH@std@@YA_NAAU?$less@H@0@AAHABHPB_WI@Z 004170d0 f i cTED.obj
 0001:00016170       ??$_Debug_lt_pred@AAU?$less@H@std@@ABHABH@std@@YA_NAAU?$less@H@0@ABH1PB_WI@Z 00417170 f i cTED.obj
 0001:00016210       ??$_Debug_lt_pred@ABU?$less@H@std@@ABHABH@std@@YA_NABU?$less@H@0@ABH1PB_WI@Z 00417210 f i cTED.obj
 0001:000162b0       ??$_Debug_pointer@$$CBD@std@@YAXPBDPB_WI@Z 004172b0 f i cTED.obj
 0001:00016300       ??$_Debug_pointer_if@$$CBD@std@@YAX_NPBDPB_WI@Z 00417300 f i cTED.obj
 0001:00016360       ??$_Distance1@V?$_Tree_const_iterator@V?$_Tree_val@U?$_Tree_simple_types@U?$pair@$$CBHV?$basic_string@DU?$char_traits@D@std@@V?$allocator@D@2@@std@@@std@@@std@@@std@@@std@@@std@@YAHV?$_Tree_const_iterator@V?$_Tree_val@U?$_Tree_simple_types@U?$pair@$$CBHV?$basic_string@DU?$char_traits@D@std@@V?$allocator@D@2@@std@@@std@@@std@@@std@@@0@0Uinput_iterator_tag@0@@Z 00417360 f i cTED.obj
 0001:00016420       ??$_Eqrange@H@?$_Tree@V?$_Tmap_traits@HV?$basic_string@DU?$char_traits@D@std@@V?$allocator@D@2@@std@@U?$less@H@2@V?$allocator@U?$pair@$$CBHV?$basic_string@DU?$char_traits@D@std@@V?$allocator@D@2@@std@@@std@@@2@$0A@@std@@@std@@IBE?AU?$pair@V?$_Tree_const_iterator@V?$_Tree_val@U?$_Tree_simple_types@U?$pair@$$CBHV?$basic_string@DU?$char_traits@D@std@@V?$allocator@D@2@@std@@@std@@@std@@@std@@@std@@V12@@1@ABH@Z 00417420 f i cTED.obj
 0001:000166e0       ??$_Insert_at@AAU?$pair@$$CBHV?$basic_string@DU?$char_traits@D@std@@V?$allocator@D@2@@std@@@std@@PAU?$_Tree_node@U?$pair@$$CBHV?$basic_string@DU?$char_traits@D@std@@V?$allocator@D@2@@std@@@std@@PAX@2@@?$_Tree@V?$_Tmap_traits@HV?$basic_string@DU?$char_traits@D@std@@V?$allocator@D@2@@std@@U?$less@H@2@V?$allocator@U?$pair@$$CBHV?$basic_string@DU?$char_traits@D@std@@V?$allocator@D@2@@std@@@std@@@2@$0A@@std@@@std@@IAE?AV?$_Tree_iterator@V?$_Tree_val@U?$_Tree_simple_types@U?$pair@$$CBHV?$basic_string@DU?$char_traits@D@std@@V?$allocator@D@2@@std@@@std@@@std@@@std@@@1@_NPAU?$_Tree_node@U?$pair@$$CBHV?$basic_string@DU?$char_traits@D@std@@V?$allocator@D@2@@std@@@std@@PAX@1@AAU?$pair@$$CBHV?$basic_string@DU?$char_traits@D@std@@V?$allocator@D@2@@std@@@1@1@Z 004176e0 f i cTED.obj
 0001:00016b70       ??$_Insert_hint@AAU?$pair@$$CBHV?$basic_string@DU?$char_traits@D@std@@V?$allocator@D@2@@std@@@std@@PAU?$_Tree_node@U?$pair@$$CBHV?$basic_string@DU?$char_traits@D@std@@V?$allocator@D@2@@std@@@std@@PAX@2@@?$_Tree@V?$_Tmap_traits@HV?$basic_string@DU?$char_traits@D@std@@V?$allocator@D@2@@std@@U?$less@H@2@V?$allocator@U?$pair@$$CBHV?$basic_string@DU?$char_traits@D@std@@V?$allocator@D@2@@std@@@std@@@2@$0A@@std@@@std@@IAE?AV?$_Tree_iterator@V?$_Tree_val@U?$_Tree_simple_types@U?$pair@$$CBHV?$basic_string@DU?$char_traits@D@std@@V?$allocator@D@2@@std@@@std@@@std@@@std@@@1@V?$_Tree_const_iterator@V?$_Tree_val@U?$_Tree_simple_types@U?$pair@$$CBHV?$basic_string@DU?$char_traits@D@std@@V?$allocator@D@2@@std@@@std@@@std@@@std@@@1@AAU?$pair@$$CBHV?$basic_string@DU?$char_traits@D@std@@V?$allocator@D@2@@std@@@1@PAU?$_Tree_node@U?$pair@$$CBHV?$basic_string@DU?$char_traits@D@std@@V?$allocator@D@2@@std@@@std@@PAX@1@@Z 00417b70 f i cTED.obj
 0001:00017c70       ??$_Insert_nohint@AAU?$pair@$$CBHV?$basic_string@DU?$char_traits@D@std@@V?$allocator@D@2@@std@@@std@@PAU?$_Tree_node@U?$pair@$$CBHV?$basic_string@DU?$char_traits@D@std@@V?$allocator@D@2@@std@@@std@@PAX@2@@?$_Tree@V?$_Tmap_traits@HV?$basic_string@DU?$char_traits@D@std@@V?$allocator@D@2@@std@@U?$less@H@2@V?$allocator@U?$pair@$$CBHV?$basic_string@DU?$char_traits@D@std@@V?$allocator@D@2@@std@@@std@@@2@$0A@@std@@@std@@IAE?AU?$pair@V?$_Tree_iterator@V?$_Tree_val@U?$_Tree_simple_types@U?$pair@$$CBHV?$basic_string@DU?$char_traits@D@std@@V?$allocator@D@2@@std@@@std@@@std@@@std@@@std@@_N@1@_NAAU?$pair@$$CBHV?$basic_string@DU?$char_traits@D@std@@V?$allocator@D@2@@std@@@1@PAU?$_Tree_node@U?$pair@$$CBHV?$basic_string@DU?$char_traits@D@std@@V?$allocator@D@2@@std@@@std@@PAX@1@@Z 00418c70 f i cTED.obj
 0001:000181e0       ??$_Kfn@$$CBHV?$basic_string@DU?$char_traits@D@std@@V?$allocator@D@2@@std@@@?$_Tmap_traits@HV?$basic_string@DU?$char_traits@D@std@@V?$allocator@D@2@@std@@U?$less@H@2@V?$allocator@U?$pair@$$CBHV?$basic_string@DU?$char_traits@D@std@@V?$allocator@D@2@@std@@@std@@@2@$0A@@std@@SAABHABU?$pair@$$CBHV?$basic_string@DU?$char_traits@D@std@@V?$allocator@D@2@@std@@@1@@Z 004191e0 f i cTED.obj
 0001:00018210       ??$_Lbound@H@?$_Tree@V?$_Tmap_traits@HV?$basic_string@DU?$char_traits@D@std@@V?$allocator@D@2@@std@@U?$less@H@2@V?$allocator@U?$pair@$$CBHV?$basic_string@DU?$char_traits@D@std@@V?$allocator@D@2@@std@@@std@@@2@$0A@@std@@@std@@IBEPAU?$_Tree_node@U?$pair@$$CBHV?$basic_string@DU?$char_traits@D@std@@V?$allocator@D@2@@std@@@std@@PAX@1@ABH@Z 00419210 f i cTED.obj
 0001:000182d0       ??$_Try_emplace@ABH$$V@?$map@HV?$basic_string@DU?$char_traits@D@std@@V?$allocator@D@2@@std@@U?$less@H@2@V?$allocator@U?$pair@$$CBHV?$basic_string@DU?$char_traits@D@std@@V?$allocator@D@2@@std@@@std@@@2@@std@@QAE?AU?$pair@V?$_Tree_iterator@V?$_Tree_val@U?$_Tree_simple_types@U?$pair@$$CBHV?$basic_string@DU?$char_traits@D@std@@V?$allocator@D@2@@std@@@std@@@std@@@std@@@std@@_N@1@ABH@Z 004192d0 f i cTED.obj
 0001:00018570       ??$_Try_emplace@H$$V@?$map@HV?$basic_string@DU?$char_traits@D@std@@V?$allocator@D@2@@std@@U?$less@H@2@V?$allocator@U?$pair@$$CBHV?$basic_string@DU?$char_traits@D@std@@V?$allocator@D@2@@std@@@std@@@2@@std@@QAE?AU?$pair@V?$_Tree_iterator@V?$_Tree_val@U?$_Tree_simple_types@U?$pair@$$CBHV?$basic_string@DU?$char_traits@D@std@@V?$allocator@D@2@@std@@@std@@@std@@@std@@@std@@_N@1@$$QAH@Z 00419570 f i cTED.obj
 0001:00018810       ??$_Unfancy@D@std@@YAPADPAD@Z 00419810 f i cTED.obj
 0001:00018840       ??$_Unfancy@G@std@@YAPAGPAG@Z 00419840 f i cTED.obj
 0001:00018870       ??$addressof@$$CBG@std@@YAPBGABG@Z 00419870 f i cTED.obj
 0001:000188a0       ??$addressof@PAD@std@@YAPAPADAAPAD@Z 004198a0 f i cTED.obj
 0001:000188d0       ??$addressof@PAU?$_Tree_node@U?$pair@$$CBHV?$basic_string@DU?$char_traits@D@std@@V?$allocator@D@2@@std@@@std@@PAX@std@@@std@@YAPAPAU?$_Tree_node@U?$pair@$$CBHV?$basic_string@DU?$char_traits@D@std@@V?$allocator@D@2@@std@@@std@@PAX@0@AAPAU10@@Z 004198d0 f i cTED.obj
 0001:00018900       ??$addressof@U?$pair@$$CBHV?$basic_string@DU?$char_traits@D@std@@V?$allocator@D@2@@std@@@std@@@std@@YAPAU?$pair@$$CBHV?$basic_string@DU?$char_traits@D@std@@V?$allocator@D@2@@std@@@0@AAU10@@Z 00419900 f i cTED.obj
 0001:00018930       ??$construct@GAAG@?$_Wrap_alloc@V?$allocator@G@std@@@std@@QAEXPAGAAG@Z 00419930 f i cTED.obj
 0001:00018990       ??$construct@GAAG@?$allocator@G@std@@QAEXPAGAAG@Z 00419990 f i cTED.obj
 0001:00018a20       ??$construct@GAAG@?$allocator_traits@V?$allocator@G@std@@@std@@SAXAAV?$allocator@G@1@PAGAAG@Z 00419a20 f i cTED.obj
 0001:00018a70       ??$construct@GABG@?$_Wrap_alloc@V?$allocator@G@std@@@std@@QAEXPAGABG@Z 00419a70 f i cTED.obj
 0001:00018ad0       ??$construct@GABG@?$allocator@G@std@@QAEXPAGABG@Z 00419ad0 f i cTED.obj
 0001:00018b60       ??$construct@GABG@?$allocator_traits@V?$allocator@G@std@@@std@@SAXAAV?$allocator@G@1@PAGABG@Z 00419b60 f i cTED.obj
 0001:00018bb0       ??$construct@PADAAPAD@?$_Wrap_alloc@V?$allocator@D@std@@@std@@QAEXPAPADAAPAD@Z 00419bb0 f i cTED.obj
 0001:00018c10       ??$construct@PADAAPAD@?$allocator@D@std@@QAEXPAPADAAPAD@Z 00419c10 f i cTED.obj
 0001:00018ca0       ??$construct@PADAAPAD@?$allocator_traits@V?$allocator@D@std@@@std@@SAXAAV?$allocator@D@1@PAPADAAPAD@Z 00419ca0 f i cTED.obj
 0001:00018cf0       ??$construct@PAU?$_Tree_node@U?$pair@$$CBHV?$basic_string@DU?$char_traits@D@std@@V?$allocator@D@2@@std@@@std@@PAX@std@@AAPAU12@@?$_Wrap_alloc@V?$allocator@U?$_Tree_node@U?$pair@$$CBHV?$basic_string@DU?$char_traits@D@std@@V?$allocator@D@2@@std@@@std@@PAX@std@@@std@@@std@@QAEXPAPAU?$_Tree_node@U?$pair@$$CBHV?$basic_string@DU?$char_traits@D@std@@V?$allocator@D@2@@std@@@std@@PAX@1@AAPAU21@@Z 00419cf0 f i cTED.obj
 0001:00018d50       ??$construct@PAU?$_Tree_node@U?$pair@$$CBHV?$basic_string@DU?$char_traits@D@std@@V?$allocator@D@2@@std@@@std@@PAX@std@@AAPAU12@@?$allocator@U?$_Tree_node@U?$pair@$$CBHV?$basic_string@DU?$char_traits@D@std@@V?$allocator@D@2@@std@@@std@@PAX@std@@@std@@QAEXPAPAU?$_Tree_node@U?$pair@$$CBHV?$basic_string@DU?$char_traits@D@std@@V?$allocator@D@2@@std@@@std@@PAX@1@AAPAU21@@Z 00419d50 f i cTED.obj
 0001:00018de0       ??$construct@PAU?$_Tree_node@U?$pair@$$CBHV?$basic_string@DU?$char_traits@D@std@@V?$allocator@D@2@@std@@@std@@PAX@std@@AAPAU12@@?$allocator_traits@V?$allocator@U?$_Tree_node@U?$pair@$$CBHV?$basic_string@DU?$char_traits@D@std@@V?$allocator@D@2@@std@@@std@@PAX@std@@@std@@@std@@SAXAAV?$allocator@U?$_Tree_node@U?$pair@$$CBHV?$basic_string@DU?$char_traits@D@std@@V?$allocator@D@2@@std@@@std@@PAX@std@@@1@PAPAU?$_Tree_node@U?$pair@$$CBHV?$basic_string@DU?$char_traits@D@std@@V?$allocator@D@2@@std@@@std@@PAX@1@AAPAU31@@Z 00419de0 f i cTED.obj
 0001:00018e30       ??$construct@U?$pair@$$CBHV?$basic_string@DU?$char_traits@D@std@@V?$allocator@D@2@@std@@@std@@ABUpiecewise_construct_t@2@V?$tuple@$$QAH@2@V?$tuple@$$V@2@@?$_Wrap_alloc@V?$allocator@U?$_Tree_node@U?$pair@$$CBHV?$basic_string@DU?$char_traits@D@std@@V?$allocator@D@2@@std@@@std@@PAX@std@@@std@@@std@@QAEXPAU?$pair@$$CBHV?$basic_string@DU?$char_traits@D@std@@V?$allocator@D@2@@std@@@1@ABUpiecewise_construct_t@1@$$QAV?$tuple@$$QAH@1@$$QAV?$tuple@$$V@1@@Z 00419e30 f i cTED.obj
 0001:00018ea0       ??$construct@U?$pair@$$CBHV?$basic_string@DU?$char_traits@D@std@@V?$allocator@D@2@@std@@@std@@ABUpiecewise_construct_t@2@V?$tuple@$$QAH@2@V?$tuple@$$V@2@@?$allocator@U?$_Tree_node@U?$pair@$$CBHV?$basic_string@DU?$char_traits@D@std@@V?$allocator@D@2@@std@@@std@@PAX@std@@@std@@QAEXPAU?$pair@$$CBHV?$basic_string@DU?$char_traits@D@std@@V?$allocator@D@2@@std@@@1@ABUpiecewise_construct_t@1@$$QAV?$tuple@$$QAH@1@$$QAV?$tuple@$$V@1@@Z 00419ea0 f i cTED.obj
 0001:00018fa0       ??$construct@U?$pair@$$CBHV?$basic_string@DU?$char_traits@D@std@@V?$allocator@D@2@@std@@@std@@ABUpiecewise_construct_t@2@V?$tuple@$$QAH@2@V?$tuple@$$V@2@@?$allocator_traits@V?$allocator@U?$_Tree_node@U?$pair@$$CBHV?$basic_string@DU?$char_traits@D@std@@V?$allocator@D@2@@std@@@std@@PAX@std@@@std@@@std@@SAXAAV?$allocator@U?$_Tree_node@U?$pair@$$CBHV?$basic_string@DU?$char_traits@D@std@@V?$allocator@D@2@@std@@@std@@PAX@std@@@1@PAU?$pair@$$CBHV?$basic_string@DU?$char_traits@D@std@@V?$allocator@D@2@@std@@@1@ABUpiecewise_construct_t@1@$$QAV?$tuple@$$QAH@1@$$QAV?$tuple@$$V@1@@Z 00419fa0 f i cTED.obj
 0001:00019010       ??$construct@U?$pair@$$CBHV?$basic_string@DU?$char_traits@D@std@@V?$allocator@D@2@@std@@@std@@ABUpiecewise_construct_t@2@V?$tuple@ABH@2@V?$tuple@$$V@2@@?$_Wrap_alloc@V?$allocator@U?$_Tree_node@U?$pair@$$CBHV?$basic_string@DU?$char_traits@D@std@@V?$allocator@D@2@@std@@@std@@PAX@std@@@std@@@std@@QAEXPAU?$pair@$$CBHV?$basic_string@DU?$char_traits@D@std@@V?$allocator@D@2@@std@@@1@ABUpiecewise_construct_t@1@$$QAV?$tuple@ABH@1@$$QAV?$tuple@$$V@1@@Z 0041a010 f i cTED.obj
 0001:00019080       ??$construct@U?$pair@$$CBHV?$basic_string@DU?$char_traits@D@std@@V?$allocator@D@2@@std@@@std@@ABUpiecewise_construct_t@2@V?$tuple@ABH@2@V?$tuple@$$V@2@@?$allocator@U?$_Tree_node@U?$pair@$$CBHV?$basic_string@DU?$char_traits@D@std@@V?$allocator@D@2@@std@@@std@@PAX@std@@@std@@QAEXPAU?$pair@$$CBHV?$basic_string@DU?$char_traits@D@std@@V?$allocator@D@2@@std@@@1@ABUpiecewise_construct_t@1@$$QAV?$tuple@ABH@1@$$QAV?$tuple@$$V@1@@Z 0041a080 f i cTED.obj
 0001:00019180       ??$construct@U?$pair@$$CBHV?$basic_string@DU?$char_traits@D@std@@V?$allocator@D@2@@std@@@std@@ABUpiecewise_construct_t@2@V?$tuple@ABH@2@V?$tuple@$$V@2@@?$allocator_traits@V?$allocator@U?$_Tree_node@U?$pair@$$CBHV?$basic_string@DU?$char_traits@D@std@@V?$allocator@D@2@@std@@@std@@PAX@std@@@std@@@std@@SAXAAV?$allocator@U?$_Tree_node@U?$pair@$$CBHV?$basic_string@DU?$char_traits@D@std@@V?$allocator@D@2@@std@@@std@@PAX@std@@@1@PAU?$pair@$$CBHV?$basic_string@DU?$char_traits@D@std@@V?$allocator@D@2@@std@@@1@ABUpiecewise_construct_t@1@$$QAV?$tuple@ABH@1@$$QAV?$tuple@$$V@1@@Z 0041a180 f i cTED.obj
 0001:000191f0       ??$destroy@PAD@?$_Wrap_alloc@V?$allocator@D@std@@@std@@QAEXPAPAD@Z 0041a1f0 f i cTED.obj
 0001:00019240       ??$destroy@PAD@?$allocator@D@std@@QAEXPAPAD@Z 0041a240 f i cTED.obj
 0001:00019270       ??$destroy@PAD@?$allocator_traits@V?$allocator@D@std@@@std@@SAXAAV?$allocator@D@1@PAPAD@Z 0041a270 f i cTED.obj
 0001:000192b0       ??$destroy@PAU?$_Tree_node@U?$pair@$$CBHV?$basic_string@DU?$char_traits@D@std@@V?$allocator@D@2@@std@@@std@@PAX@std@@@?$_Wrap_alloc@V?$allocator@U?$_Tree_node@U?$pair@$$CBHV?$basic_string@DU?$char_traits@D@std@@V?$allocator@D@2@@std@@@std@@PAX@std@@@std@@@std@@QAEXPAPAU?$_Tree_node@U?$pair@$$CBHV?$basic_string@DU?$char_traits@D@std@@V?$allocator@D@2@@std@@@std@@PAX@1@@Z 0041a2b0 f i cTED.obj
 0001:00019300       ??$destroy@PAU?$_Tree_node@U?$pair@$$CBHV?$basic_string@DU?$char_traits@D@std@@V?$allocator@D@2@@std@@@std@@PAX@std@@@?$allocator@U?$_Tree_node@U?$pair@$$CBHV?$basic_string@DU?$char_traits@D@std@@V?$allocator@D@2@@std@@@std@@PAX@std@@@std@@QAEXPAPAU?$_Tree_node@U?$pair@$$CBHV?$basic_string@DU?$char_traits@D@std@@V?$allocator@D@2@@std@@@std@@PAX@1@@Z 0041a300 f i cTED.obj
 0001:00019330       ??$destroy@PAU?$_Tree_node@U?$pair@$$CBHV?$basic_string@DU?$char_traits@D@std@@V?$allocator@D@2@@std@@@std@@PAX@std@@@?$allocator_traits@V?$allocator@U?$_Tree_node@U?$pair@$$CBHV?$basic_string@DU?$char_traits@D@std@@V?$allocator@D@2@@std@@@std@@PAX@std@@@std@@@std@@SAXAAV?$allocator@U?$_Tree_node@U?$pair@$$CBHV?$basic_string@DU?$char_traits@D@std@@V?$allocator@D@2@@std@@@std@@PAX@std@@@1@PAPAU?$_Tree_node@U?$pair@$$CBHV?$basic_string@DU?$char_traits@D@std@@V?$allocator@D@2@@std@@@std@@PAX@1@@Z 0041a330 f i cTED.obj
 0001:00019370       ??$destroy@U?$pair@$$CBHV?$basic_string@DU?$char_traits@D@std@@V?$allocator@D@2@@std@@@std@@@?$_Wrap_alloc@V?$allocator@U?$_Tree_node@U?$pair@$$CBHV?$basic_string@DU?$char_traits@D@std@@V?$allocator@D@2@@std@@@std@@PAX@std@@@std@@@std@@QAEXPAU?$pair@$$CBHV?$basic_string@DU?$char_traits@D@std@@V?$allocator@D@2@@std@@@1@@Z 0041a370 f i cTED.obj
 0001:000193c0       ??$destroy@U?$pair@$$CBHV?$basic_string@DU?$char_traits@D@std@@V?$allocator@D@2@@std@@@std@@@?$allocator@U?$_Tree_node@U?$pair@$$CBHV?$basic_string@DU?$char_traits@D@std@@V?$allocator@D@2@@std@@@std@@PAX@std@@@std@@QAEXPAU?$pair@$$CBHV?$basic_string@DU?$char_traits@D@std@@V?$allocator@D@2@@std@@@1@@Z 0041a3c0 f i cTED.obj
 0001:00019410       ??$destroy@U?$pair@$$CBHV?$basic_string@DU?$char_traits@D@std@@V?$allocator@D@2@@std@@@std@@@?$allocator_traits@V?$allocator@U?$_Tree_node@U?$pair@$$CBHV?$basic_string@DU?$char_traits@D@std@@V?$allocator@D@2@@std@@@std@@PAX@std@@@std@@@std@@SAXAAV?$allocator@U?$_Tree_node@U?$pair@$$CBHV?$basic_string@DU?$char_traits@D@std@@V?$allocator@D@2@@std@@@std@@PAX@std@@@1@PAU?$pair@$$CBHV?$basic_string@DU?$char_traits@D@std@@V?$allocator@D@2@@std@@@1@@Z 0041a410 f i cTED.obj
 0001:00019450       ??$distance@V?$_Tree_const_iterator@V?$_Tree_val@U?$_Tree_simple_types@U?$pair@$$CBHV?$basic_string@DU?$char_traits@D@std@@V?$allocator@D@2@@std@@@std@@@std@@@std@@@std@@@std@@YAHV?$_Tree_const_iterator@V?$_Tree_val@U?$_Tree_simple_types@U?$pair@$$CBHV?$basic_string@DU?$char_traits@D@std@@V?$allocator@D@2@@std@@@std@@@std@@@std@@@0@0@Z 0041a450 f i cTED.obj
 0001:00019550       ??$emplace_hint@ABUpiecewise_construct_t@std@@V?$tuple@$$QAH@2@V?$tuple@$$V@2@@?$_Tree@V?$_Tmap_traits@HV?$basic_string@DU?$char_traits@D@std@@V?$allocator@D@2@@std@@U?$less@H@2@V?$allocator@U?$pair@$$CBHV?$basic_string@DU?$char_traits@D@std@@V?$allocator@D@2@@std@@@std@@@2@$0A@@std@@@std@@QAE?AV?$_Tree_iterator@V?$_Tree_val@U?$_Tree_simple_types@U?$pair@$$CBHV?$basic_string@DU?$char_traits@D@std@@V?$allocator@D@2@@std@@@std@@@std@@@std@@@1@V?$_Tree_const_iterator@V?$_Tree_val@U?$_Tree_simple_types@U?$pair@$$CBHV?$basic_string@DU?$char_traits@D@std@@V?$allocator@D@2@@std@@@std@@@std@@@std@@@1@ABUpiecewise_construct_t@1@$$QAV?$tuple@$$QAH@1@$$QAV?$tuple@$$V@1@@Z 0041a550 f i cTED.obj
 0001:00019660       ??$emplace_hint@ABUpiecewise_construct_t@std@@V?$tuple@ABH@2@V?$tuple@$$V@2@@?$_Tree@V?$_Tmap_traits@HV?$basic_string@DU?$char_traits@D@std@@V?$allocator@D@2@@std@@U?$less@H@2@V?$allocator@U?$pair@$$CBHV?$basic_string@DU?$char_traits@D@std@@V?$allocator@D@2@@std@@@std@@@2@$0A@@std@@@std@@QAE?AV?$_Tree_iterator@V?$_Tree_val@U?$_Tree_simple_types@U?$pair@$$CBHV?$basic_string@DU?$char_traits@D@std@@V?$allocator@D@2@@std@@@std@@@std@@@std@@@1@V?$_Tree_const_iterator@V?$_Tree_val@U?$_Tree_simple_types@U?$pair@$$CBHV?$basic_string@DU?$char_traits@D@std@@V?$allocator@D@2@@std@@@std@@@std@@@std@@@1@ABUpiecewise_construct_t@1@$$QAV?$tuple@ABH@1@$$QAV?$tuple@$$V@1@@Z 0041a660 f i cTED.obj
 0001:00019770       ??$forward@$$QAH@std@@YA$$QAHAAH@Z 0041a770 f i cTED.obj
 0001:000197a0       ??$forward@AAG@std@@YAAAGAAG@Z 0041a7a0 f i cTED.obj
 0001:000197d0       ??$forward@AAPAD@std@@YAAAPADAAPAD@Z 0041a7d0 f i cTED.obj
 0001:00019800       ??$forward@AAPAU?$_Tree_node@U?$pair@$$CBHV?$basic_string@DU?$char_traits@D@std@@V?$allocator@D@2@@std@@@std@@PAX@std@@@std@@YAAAPAU?$_Tree_node@U?$pair@$$CBHV?$basic_string@DU?$char_traits@D@std@@V?$allocator@D@2@@std@@@std@@PAX@0@AAPAU10@@Z 0041a800 f i cTED.obj
 0001:00019830       ??$forward@AAU?$_Wrap_alloc@V?$allocator@D@std@@@std@@@std@@YAAAU?$_Wrap_alloc@V?$allocator@D@std@@@0@AAU10@@Z 0041a830 f i cTED.obj
 0001:00019860       ??$forward@AAU?$_Wrap_alloc@V?$allocator@U?$_Tree_node@U?$pair@$$CBHV?$basic_string@DU?$char_traits@D@std@@V?$allocator@D@2@@std@@@std@@PAX@std@@@std@@@std@@@std@@YAAAU?$_Wrap_alloc@V?$allocator@U?$_Tree_node@U?$pair@$$CBHV?$basic_string@DU?$char_traits@D@std@@V?$allocator@D@2@@std@@@std@@PAX@std@@@std@@@0@AAU10@@Z 0041a860 f i cTED.obj
 0001:00019890       ??$forward@AAU?$pair@$$CBHV?$basic_string@DU?$char_traits@D@std@@V?$allocator@D@2@@std@@@std@@@std@@YAAAU?$pair@$$CBHV?$basic_string@DU?$char_traits@D@std@@V?$allocator@D@2@@std@@@0@AAU10@@Z 0041a890 f i cTED.obj
 0001:000198c0       ??$forward@AAV?$_Tree_const_iterator@V?$_Tree_val@U?$_Tree_simple_types@U?$pair@$$CBHV?$basic_string@DU?$char_traits@D@std@@V?$allocator@D@2@@std@@@std@@@std@@@std@@@std@@@std@@YAAAV?$_Tree_const_iterator@V?$_Tree_val@U?$_Tree_simple_types@U?$pair@$$CBHV?$basic_string@DU?$char_traits@D@std@@V?$allocator@D@2@@std@@@std@@@std@@@std@@@0@AAV10@@Z 0041a8c0 f i cTED.obj
 0001:000198f0       ??$forward@AAV?$_Tree_iterator@V?$_Tree_val@U?$_Tree_simple_types@U?$pair@$$CBHV?$basic_string@DU?$char_traits@D@std@@V?$allocator@D@2@@std@@@std@@@std@@@std@@@std@@@std@@YAAAV?$_Tree_iterator@V?$_Tree_val@U?$_Tree_simple_types@U?$pair@$$CBHV?$basic_string@DU?$char_traits@D@std@@V?$allocator@D@2@@std@@@std@@@std@@@std@@@0@AAV10@@Z 0041a8f0 f i cTED.obj
 0001:00019920       ??$forward@ABG@std@@YAABGABG@Z 0041a920 f i cTED.obj
 0001:00019950       ??$forward@ABH@std@@YAABHABH@Z 0041a950 f i cTED.obj
 0001:00019980       ??$forward@ABU?$less@H@std@@@std@@YAABU?$less@H@0@ABU10@@Z 0041a980 f i cTED.obj
 0001:000199b0       ??$forward@ABUpiecewise_construct_t@std@@@std@@YAABUpiecewise_construct_t@0@ABU10@@Z 0041a9b0 f i cTED.obj
 0001:000199e0       ??$forward@H@std@@YA$$QAHAAH@Z 0041a9e0 f i cTED.obj
 0001:00019a10       ??$forward@U?$_Wrap_alloc@V?$allocator@D@std@@@std@@@std@@YA$$QAU?$_Wrap_alloc@V?$allocator@D@std@@@0@AAU10@@Z 0041aa10 f i cTED.obj
 0001:00019a40       ??$forward@U_Zero_then_variadic_args_t@std@@@std@@YA$$QAU_Zero_then_variadic_args_t@0@AAU10@@Z 0041aa40 f i cTED.obj
 0001:00019a70       ??$forward@V?$_Tree_iterator@V?$_Tree_val@U?$_Tree_simple_types@U?$pair@$$CBHV?$basic_string@DU?$char_traits@D@std@@V?$allocator@D@2@@std@@@std@@@std@@@std@@@std@@@std@@YA$$QAV?$_Tree_iterator@V?$_Tree_val@U?$_Tree_simple_types@U?$pair@$$CBHV?$basic_string@DU?$char_traits@D@std@@V?$allocator@D@2@@std@@@std@@@std@@@std@@@0@AAV10@@Z 0041aa70 f i cTED.obj
 0001:00019aa0       ??$forward@V?$allocator@D@std@@@std@@YA$$QAV?$allocator@D@0@AAV10@@Z 0041aaa0 f i cTED.obj
 0001:00019ad0       ??$forward@V?$tuple@$$QAH@std@@@std@@YA$$QAV?$tuple@$$QAH@0@AAV10@@Z 0041aad0 f i cTED.obj
 0001:00019b00       ??$forward@V?$tuple@$$V@std@@@std@@YA$$QAV?$tuple@$$V@0@AAV10@@Z 0041ab00 f i cTED.obj
 0001:00019b30       ??$forward@V?$tuple@ABH@std@@@std@@YA$$QAV?$tuple@ABH@0@AAV10@@Z 0041ab30 f i cTED.obj
 0001:00019b60       ??$forward@_N@std@@YA$$QA_NAA_N@Z 0041ab60 f i cTED.obj
 0001:00019b90       ??$forward_as_tuple@$$V@std@@YA?AV?$tuple@$$V@0@XZ 0041ab90 f i cTED.obj
 0001:00019bd0       ??$forward_as_tuple@ABH@std@@YA?AV?$tuple@ABH@0@ABH@Z 0041abd0 f i cTED.obj
 0001:00019c50       ??$forward_as_tuple@H@std@@YA?AV?$tuple@$$QAH@0@$$QAH@Z 0041ac50 f i cTED.obj
 0001:00019cd0       ??$get@$0A@$$QAH@std@@YA$$QAH$$QAV?$tuple@$$QAH@0@@Z 0041acd0 f i cTED.obj
 0001:00019d10       ??$get@$0A@ABH@std@@YAABH$$QAV?$tuple@ABH@0@@Z 0041ad10 f i cTED.obj
 0001:00019d50       ??$move@AAD@std@@YA$$QADAAD@Z 0041ad50 f i cTED.obj
 0001:00019d80       ??$move@AAH@std@@YA$$QAHAAH@Z 0041ad80 f i cTED.obj
 0001:00019db0       ??$move@AAU?$_Wrap_alloc@V?$allocator@D@std@@@std@@@std@@YA$$QAU?$_Wrap_alloc@V?$allocator@D@std@@@0@AAU10@@Z 0041adb0 f i cTED.obj
 0001:00019de0       ??$move@AAV?$tuple@$$QAH@std@@@std@@YA$$QAV?$tuple@$$QAH@0@AAV10@@Z 0041ade0 f i cTED.obj
 0001:00019e10       ??$move@AAV?$tuple@ABH@std@@@std@@YA$$QAV?$tuple@ABH@0@AAV10@@Z 0041ae10 f i cTED.obj
 0001:00019e40       ??$swap@DX@std@@YAXAAD0@Z  0041ae40 f i cTED.obj
 0001:00019ee0       ??$try_emplace@$$V@?$map@HV?$basic_string@DU?$char_traits@D@std@@V?$allocator@D@2@@std@@U?$less@H@2@V?$allocator@U?$pair@$$CBHV?$basic_string@DU?$char_traits@D@std@@V?$allocator@D@2@@std@@@std@@@2@@std@@QAE?AU?$pair@V?$_Tree_iterator@V?$_Tree_val@U?$_Tree_simple_types@U?$pair@$$CBHV?$basic_string@DU?$char_traits@D@std@@V?$allocator@D@2@@std@@@std@@@std@@@std@@@std@@_N@1@$$QAH@Z 0041aee0 f i cTED.obj
 0001:00019f50       ??$try_emplace@$$V@?$map@HV?$basic_string@DU?$char_traits@D@std@@V?$allocator@D@2@@std@@U?$less@H@2@V?$allocator@U?$pair@$$CBHV?$basic_string@DU?$char_traits@D@std@@V?$allocator@D@2@@std@@@std@@@2@@std@@QAE?AU?$pair@V?$_Tree_iterator@V?$_Tree_val@U?$_Tree_simple_types@U?$pair@$$CBHV?$basic_string@DU?$char_traits@D@std@@V?$allocator@D@2@@std@@@std@@@std@@@std@@@std@@_N@1@ABH@Z 0041af50 f i cTED.obj
 0001:00019fc0       ??0?$_Iterator012@Ubidirectional_iterator_tag@std@@U?$pair@$$CBHV?$basic_string@DU?$char_traits@D@std@@V?$allocator@D@2@@std@@@2@HPBU32@ABU32@U_Iterator_base12@2@@std@@QAE@$$QAU01@@Z 0041afc0 f i cTED.obj
 0001:0001a010       ??0?$_Iterator012@Ubidirectional_iterator_tag@std@@U?$pair@$$CBHV?$basic_string@DU?$char_traits@D@std@@V?$allocator@D@2@@std@@@2@HPBU32@ABU32@U_Iterator_base12@2@@std@@QAE@ABU01@@Z 0041b010 f i cTED.obj
 0001:0001a060       ??0?$_Iterator012@Ubidirectional_iterator_tag@std@@U?$pair@$$CBHV?$basic_string@DU?$char_traits@D@std@@V?$allocator@D@2@@std@@@2@HPBU32@ABU32@U_Iterator_base12@2@@std@@QAE@XZ 0041b060 f i cTED.obj
 0001:0001a0b0       ??0?$_String_alloc@U?$_String_base_types@DV?$allocator@D@std@@@std@@@std@@QAE@XZ 0041b0b0 f i cTED.obj
 0001:0001a140       ??0?$_String_val@U?$_Simple_types@D@std@@@std@@QAE@XZ 0041b140 f i cTED.obj
 0001:0001a1e0       ??0?$_Tree@V?$_Tmap_traits@HV?$basic_string@DU?$char_traits@D@std@@V?$allocator@D@2@@std@@U?$less@H@2@V?$allocator@U?$pair@$$CBHV?$basic_string@DU?$char_traits@D@std@@V?$allocator@D@2@@std@@@std@@@2@$0A@@std@@@std@@QAE@ABU?$less@H@1@@Z 0041b1e0 f i cTED.obj
 0001:0001a230       ??0?$_Tree_comp_alloc@V?$_Tmap_traits@HV?$basic_string@DU?$char_traits@D@std@@V?$allocator@D@2@@std@@U?$less@H@2@V?$allocator@U?$pair@$$CBHV?$basic_string@DU?$char_traits@D@std@@V?$allocator@D@2@@std@@@std@@@2@$0A@@std@@@std@@QAE@ABU?$less@H@1@@Z 0041b230 f i cTED.obj
 0001:0001a2d0       ??0?$_Tree_const_iterator@V?$_Tree_val@U?$_Tree_simple_types@U?$pair@$$CBHV?$basic_string@DU?$char_traits@D@std@@V?$allocator@D@2@@std@@@std@@@std@@@std@@@std@@QAE@$$QAV01@@Z 0041b2d0 f i cTED.obj
 0001:0001a320       ??0?$_Tree_const_iterator@V?$_Tree_val@U?$_Tree_simple_types@U?$pair@$$CBHV?$basic_string@DU?$char_traits@D@std@@V?$allocator@D@2@@std@@@std@@@std@@@std@@@std@@QAE@ABV01@@Z 0041b320 f i cTED.obj
 0001:0001a370       ??0?$_Tree_const_iterator@V?$_Tree_val@U?$_Tree_simple_types@U?$pair@$$CBHV?$basic_string@DU?$char_traits@D@std@@V?$allocator@D@2@@std@@@std@@@std@@@std@@@std@@QAE@PAU?$_Tree_node@U?$pair@$$CBHV?$basic_string@DU?$char_traits@D@std@@V?$allocator@D@2@@std@@@std@@PAX@1@PBV?$_Tree_val@U?$_Tree_simple_types@U?$pair@$$CBHV?$basic_string@DU?$char_traits@D@std@@V?$allocator@D@2@@std@@@std@@@std@@@1@@Z 0041b370 f i cTED.obj
 0001:0001a3c0       ??0?$_Tree_const_iterator@V?$_Tree_val@U?$_Tree_simple_types@U?$pair@$$CBHV?$basic_string@DU?$char_traits@D@std@@V?$allocator@D@2@@std@@@std@@@std@@@std@@@std@@QAE@XZ 0041b3c0 f i cTED.obj
 0001:0001a410       ??0?$_Tree_iterator@V?$_Tree_val@U?$_Tree_simple_types@U?$pair@$$CBHV?$basic_string@DU?$char_traits@D@std@@V?$allocator@D@2@@std@@@std@@@std@@@std@@@std@@QAE@$$QAV01@@Z 0041b410 f i cTED.obj
 0001:0001a460       ??0?$_Tree_iterator@V?$_Tree_val@U?$_Tree_simple_types@U?$pair@$$CBHV?$basic_string@DU?$char_traits@D@std@@V?$allocator@D@2@@std@@@std@@@std@@@std@@@std@@QAE@ABV01@@Z 0041b460 f i cTED.obj
 0001:0001a4b0       ??0?$_Tree_iterator@V?$_Tree_val@U?$_Tree_simple_types@U?$pair@$$CBHV?$basic_string@DU?$char_traits@D@std@@V?$allocator@D@2@@std@@@std@@@std@@@std@@@std@@QAE@PAU?$_Tree_node@U?$pair@$$CBHV?$basic_string@DU?$char_traits@D@std@@V?$allocator@D@2@@std@@@std@@PAX@1@PBV?$_Tree_val@U?$_Tree_simple_types@U?$pair@$$CBHV?$basic_string@DU?$char_traits@D@std@@V?$allocator@D@2@@std@@@std@@@std@@@1@@Z 0041b4b0 f i cTED.obj
 0001:0001a500       ??0?$_Tree_unchecked_const_iterator@V?$_Tree_val@U?$_Tree_simple_types@U?$pair@$$CBHV?$basic_string@DU?$char_traits@D@std@@V?$allocator@D@2@@std@@@std@@@std@@@std@@U_Iterator_base12@2@@std@@QAE@$$QAV01@@Z 0041b500 f i cTED.obj
 0001:0001a560       ??0?$_Tree_unchecked_const_iterator@V?$_Tree_val@U?$_Tree_simple_types@U?$pair@$$CBHV?$basic_string@DU?$char_traits@D@std@@V?$allocator@D@2@@std@@@std@@@std@@@std@@U_Iterator_base12@2@@std@@QAE@ABV01@@Z 0041b560 f i cTED.obj
 0001:0001a5c0       ??0?$_Tree_unchecked_const_iterator@V?$_Tree_val@U?$_Tree_simple_types@U?$pair@$$CBHV?$basic_string@DU?$char_traits@D@std@@V?$allocator@D@2@@std@@@std@@@std@@@std@@U_Iterator_base12@2@@std@@QAE@PAU?$_Tree_node@U?$pair@$$CBHV?$basic_string@DU?$char_traits@D@std@@V?$allocator@D@2@@std@@@std@@PAX@1@PBV?$_Tree_val@U?$_Tree_simple_types@U?$pair@$$CBHV?$basic_string@DU?$char_traits@D@std@@V?$allocator@D@2@@std@@@std@@@std@@@1@@Z 0041b5c0 f i cTED.obj
 0001:0001a660       ??0?$_Tree_unchecked_const_iterator@V?$_Tree_val@U?$_Tree_simple_types@U?$pair@$$CBHV?$basic_string@DU?$char_traits@D@std@@V?$allocator@D@2@@std@@@std@@@std@@@std@@U_Iterator_base12@2@@std@@QAE@XZ 0041b660 f i cTED.obj
 0001:0001a6b0       ??0?$_Tree_val@U?$_Tree_simple_types@U?$pair@$$CBHV?$basic_string@DU?$char_traits@D@std@@V?$allocator@D@2@@std@@@std@@@std@@@std@@QAE@XZ 0041b6b0 f i cTED.obj
 0001:0001a710       ??0?$_Wrap_alloc@V?$allocator@D@std@@@std@@QAE@$$QAU01@@Z 0041b710 f i cTED.obj
 0001:0001a770       ??0?$_Wrap_alloc@V?$allocator@D@std@@@std@@QAE@XZ 0041b770 f i cTED.obj
 0001:0001a7c0       ??0?$_Wrap_alloc@V?$allocator@U?$_Tree_node@U?$pair@$$CBHV?$basic_string@DU?$char_traits@D@std@@V?$allocator@D@2@@std@@@std@@PAX@std@@@std@@@std@@QAE@XZ 0041b7c0 f i cTED.obj
 0001:0001a810       ??0?$allocator@D@std@@QAE@ABV01@@Z 0041b810 f i cTED.obj
 0001:0001a840       ??0?$allocator@D@std@@QAE@XZ 0041b840 f i cTED.obj
 0001:0001a870       ??0?$allocator@U?$_Tree_node@U?$pair@$$CBHV?$basic_string@DU?$char_traits@D@std@@V?$allocator@D@2@@std@@@std@@PAX@std@@@std@@QAE@XZ 0041b870 f i cTED.obj
 0001:0001a8a0       ??0?$basic_string@DU?$char_traits@D@std@@V?$allocator@D@2@@std@@QAE@ABV01@@Z 0041b8a0 f i cTED.obj
 0001:0001a960       ??0?$basic_string@DU?$char_traits@D@std@@V?$allocator@D@2@@std@@QAE@PBD@Z 0041b960 f i cTED.obj
 0001:0001aa00       ??0?$basic_string@DU?$char_traits@D@std@@V?$allocator@D@2@@std@@QAE@XZ 0041ba00 f i cTED.obj
 0001:0001aa80       ??0?$map@HV?$basic_string@DU?$char_traits@D@std@@V?$allocator@D@2@@std@@U?$less@H@2@V?$allocator@U?$pair@$$CBHV?$basic_string@DU?$char_traits@D@std@@V?$allocator@D@2@@std@@@std@@@2@@std@@QAE@XZ 0041ba80 f i cTED.obj
 0001:0001aad0       ??0?$tuple@$$QAH@std@@QAE@$$QAV01@@Z 0041bad0 f i cTED.obj
 0001:0001ab30       ??0?$tuple@$$V@std@@QAE@ABV01@@Z 0041bb30 f i cTED.obj
 0001:0001ab60       ??0?$tuple@$$V@std@@QAE@XZ 0041bb60 f i cTED.obj
 0001:0001ab90       ??0?$tuple@ABH@std@@QAE@$$QAV01@@Z 0041bb90 f i cTED.obj
 0001:0001abf0       ??0_Bxty@?$_String_val@U?$_Simple_types@D@std@@@std@@QAE@XZ 0041bbf0 f i cTED.obj
 0001:0001ac20       ??0cTED@@QAE@XZ            0041bc20 f   cTED.obj
 0001:0001ace0       ??1?$_Compressed_pair@U?$_Wrap_alloc@V?$allocator@D@std@@@std@@V?$_String_val@U?$_Simple_types@D@std@@@2@$00@std@@QAE@XZ 0041bce0 f i cTED.obj
 0001:0001ad20       ??1?$_Compressed_pair@U?$_Wrap_alloc@V?$allocator@U?$_Tree_node@U?$pair@$$CBHV?$basic_string@DU?$char_traits@D@std@@V?$allocator@D@2@@std@@@std@@PAX@std@@@std@@@std@@V?$_Tree_val@U?$_Tree_simple_types@U?$pair@$$CBHV?$basic_string@DU?$char_traits@D@std@@V?$allocator@D@2@@std@@@std@@@std@@@2@$00@std@@QAE@XZ 0041bd20 f i cTED.obj
 0001:0001ad60       ??1?$_Compressed_pair@U?$less@H@std@@V?$_Compressed_pair@U?$_Wrap_alloc@V?$allocator@U?$_Tree_node@U?$pair@$$CBHV?$basic_string@DU?$char_traits@D@std@@V?$allocator@D@2@@std@@@std@@PAX@std@@@std@@@std@@V?$_Tree_val@U?$_Tree_simple_types@U?$pair@$$CBHV?$basic_string@DU?$char_traits@D@std@@V?$allocator@D@2@@std@@@std@@@std@@@2@$00@2@$00@std@@QAE@XZ 0041bd60 f i cTED.obj
 0001:0001ada0       ??1?$_Iterator012@Ubidirectional_iterator_tag@std@@U?$pair@$$CBHV?$basic_string@DU?$char_traits@D@std@@V?$allocator@D@2@@std@@@2@HPBU32@ABU32@U_Iterator_base12@2@@std@@QAE@XZ 0041bda0 f i cTED.obj
 0001:0001ade0       ??1?$_String_alloc@U?$_String_base_types@DV?$allocator@D@std@@@std@@@std@@QAE@XZ 0041bde0 f i cTED.obj
 0001:0001ae60       ??1?$_String_val@U?$_Simple_types@D@std@@@std@@QAE@XZ 0041be60 f i cTED.obj
 0001:0001aeb0       ??1?$_Tree@V?$_Tmap_traits@HV?$basic_string@DU?$char_traits@D@std@@V?$allocator@D@2@@std@@U?$less@H@2@V?$allocator@U?$pair@$$CBHV?$basic_string@DU?$char_traits@D@std@@V?$allocator@D@2@@std@@@std@@@2@$0A@@std@@@std@@QAE@XZ 0041beb0 f i cTED.obj
 0001:0001af30       ??1?$_Tree_comp_alloc@V?$_Tmap_traits@HV?$basic_string@DU?$char_traits@D@std@@V?$allocator@D@2@@std@@U?$less@H@2@V?$allocator@U?$pair@$$CBHV?$basic_string@DU?$char_traits@D@std@@V?$allocator@D@2@@std@@@std@@@2@$0A@@std@@@std@@QAE@XZ 0041bf30 f i cTED.obj
 0001:0001afc0       ??1?$_Tree_const_iterator@V?$_Tree_val@U?$_Tree_simple_types@U?$pair@$$CBHV?$basic_string@DU?$char_traits@D@std@@V?$allocator@D@2@@std@@@std@@@std@@@std@@@std@@QAE@XZ 0041bfc0 f i cTED.obj
 0001:0001b000       ??1?$_Tree_iterator@V?$_Tree_val@U?$_Tree_simple_types@U?$pair@$$CBHV?$basic_string@DU?$char_traits@D@std@@V?$allocator@D@2@@std@@@std@@@std@@@std@@@std@@QAE@XZ 0041c000 f i cTED.obj
 0001:0001b040       ??1?$_Tree_unchecked_const_iterator@V?$_Tree_val@U?$_Tree_simple_types@U?$pair@$$CBHV?$basic_string@DU?$char_traits@D@std@@V?$allocator@D@2@@std@@@std@@@std@@@std@@U_Iterator_base12@2@@std@@QAE@XZ 0041c040 f i cTED.obj
 0001:0001b080       ??1?$_Tree_val@U?$_Tree_simple_types@U?$pair@$$CBHV?$basic_string@DU?$char_traits@D@std@@V?$allocator@D@2@@std@@@std@@@std@@@std@@QAE@XZ 0041c080 f i cTED.obj
 0001:0001b0c0       ??1?$basic_string@DU?$char_traits@D@std@@V?$allocator@D@2@@std@@QAE@XZ 0041c0c0 f i cTED.obj
 0001:0001b140       ??1?$map@HV?$basic_string@DU?$char_traits@D@std@@V?$allocator@D@2@@std@@U?$less@H@2@V?$allocator@U?$pair@$$CBHV?$basic_string@DU?$char_traits@D@std@@V?$allocator@D@2@@std@@@std@@@2@@std@@QAE@XZ 0041c140 f i cTED.obj
 0001:0001b180       ??1?$pair@$$CBHV?$basic_string@DU?$char_traits@D@std@@V?$allocator@D@2@@std@@@std@@QAE@XZ 0041c180 f i cTED.obj
 0001:0001b1d0       ??1?$pair@V?$_Tree_const_iterator@V?$_Tree_val@U?$_Tree_simple_types@U?$pair@$$CBHV?$basic_string@DU?$char_traits@D@std@@V?$allocator@D@2@@std@@@std@@@std@@@std@@@std@@V12@@std@@QAE@XZ 0041c1d0 f i cTED.obj
 0001:0001b220       ??1?$pair@V?$_Tree_iterator@V?$_Tree_val@U?$_Tree_simple_types@U?$pair@$$CBHV?$basic_string@DU?$char_traits@D@std@@V?$allocator@D@2@@std@@@std@@@std@@@std@@@std@@_N@std@@QAE@XZ 0041c220 f i cTED.obj
 0001:0001b260       ??1_Bxty@?$_String_val@U?$_Simple_types@D@std@@@std@@QAE@XZ 0041c260 f i cTED.obj
 0001:0001b290       ??1cTED@@QAE@XZ            0041c290 f   cTED.obj
 0001:0001b310       ??3@YAXPAX0@Z              0041c310 f i cTED.obj
 0001:0001b340       ??4?$_Iterator012@Ubidirectional_iterator_tag@std@@U?$pair@$$CBHV?$basic_string@DU?$char_traits@D@std@@V?$allocator@D@2@@std@@@2@HPBU32@ABU32@U_Iterator_base12@2@@std@@QAEAAU01@ABU01@@Z 0041c340 f i cTED.obj
 0001:0001b390       ??4?$_Tree_const_iterator@V?$_Tree_val@U?$_Tree_simple_types@U?$pair@$$CBHV?$basic_string@DU?$char_traits@D@std@@V?$allocator@D@2@@std@@@std@@@std@@@std@@@std@@QAEAAV01@ABV01@@Z 0041c390 f i cTED.obj
 0001:0001b3e0       ??4?$_Tree_unchecked_const_iterator@V?$_Tree_val@U?$_Tree_simple_types@U?$pair@$$CBHV?$basic_string@DU?$char_traits@D@std@@V?$allocator@D@2@@std@@@std@@@std@@@std@@U_Iterator_base12@2@@std@@QAEAAV01@ABV01@@Z 0041c3e0 f i cTED.obj
 0001:0001b440       ??4?$basic_string@DU?$char_traits@D@std@@V?$allocator@D@2@@std@@QAEAAV01@PBD@Z 0041c440 f i cTED.obj
 0001:0001b490       ??8?$_Tree_const_iterator@V?$_Tree_val@U?$_Tree_simple_types@U?$pair@$$CBHV?$basic_string@DU?$char_traits@D@std@@V?$allocator@D@2@@std@@@std@@@std@@@std@@@std@@QBE_NABV01@@Z 0041c490 f i cTED.obj
 0001:0001b580       ??9?$_Tree_const_iterator@V?$_Tree_val@U?$_Tree_simple_types@U?$pair@$$CBHV?$basic_string@DU?$char_traits@D@std@@V?$allocator@D@2@@std@@@std@@@std@@@std@@@std@@QBE_NABV01@@Z 0041c580 f i cTED.obj
 0001:0001b5f0       ??A?$map@HV?$basic_string@DU?$char_traits@D@std@@V?$allocator@D@2@@std@@U?$less@H@2@V?$allocator@U?$pair@$$CBHV?$basic_string@DU?$char_traits@D@std@@V?$allocator@D@2@@std@@@std@@@2@@std@@QAEAAV?$basic_string@DU?$char_traits@D@std@@V?$allocator@D@2@@1@$$QAH@Z 0041c5f0 f i cTED.obj
 0001:0001b6c0       ??A?$map@HV?$basic_string@DU?$char_traits@D@std@@V?$allocator@D@2@@std@@U?$less@H@2@V?$allocator@U?$pair@$$CBHV?$basic_string@DU?$char_traits@D@std@@V?$allocator@D@2@@std@@@std@@@2@@std@@QAEAAV?$basic_string@DU?$char_traits@D@std@@V?$allocator@D@2@@1@ABH@Z 0041c6c0 f i cTED.obj
 0001:0001b780       ??C?$_Tree_iterator@V?$_Tree_val@U?$_Tree_simple_types@U?$pair@$$CBHV?$basic_string@DU?$char_traits@D@std@@V?$allocator@D@2@@std@@@std@@@std@@@std@@@std@@QBEPAU?$pair@$$CBHV?$basic_string@DU?$char_traits@D@std@@V?$allocator@D@2@@std@@@1@XZ 0041c780 f i cTED.obj
 0001:0001b7d0       ??D?$_Tree_const_iterator@V?$_Tree_val@U?$_Tree_simple_types@U?$pair@$$CBHV?$basic_string@DU?$char_traits@D@std@@V?$allocator@D@2@@std@@@std@@@std@@@std@@@std@@QBEABU?$pair@$$CBHV?$basic_string@DU?$char_traits@D@std@@V?$allocator@D@2@@std@@@1@XZ 0041c7d0 f i cTED.obj
 0001:0001b8b0       ??D?$_Tree_iterator@V?$_Tree_val@U?$_Tree_simple_types@U?$pair@$$CBHV?$basic_string@DU?$char_traits@D@std@@V?$allocator@D@2@@std@@@std@@@std@@@std@@@std@@QBEAAU?$pair@$$CBHV?$basic_string@DU?$char_traits@D@std@@V?$allocator@D@2@@std@@@1@XZ 0041c8b0 f i cTED.obj
 0001:0001b8f0       ??E?$_Tree_const_iterator@V?$_Tree_val@U?$_Tree_simple_types@U?$pair@$$CBHV?$basic_string@DU?$char_traits@D@std@@V?$allocator@D@2@@std@@@std@@@std@@@std@@@std@@QAE?AV01@H@Z 0041c8f0 f i cTED.obj
 0001:0001b9e0       ??E?$_Tree_const_iterator@V?$_Tree_val@U?$_Tree_simple_types@U?$pair@$$CBHV?$basic_string@DU?$char_traits@D@std@@V?$allocator@D@2@@std@@@std@@@std@@@std@@@std@@QAEAAV01@XZ 0041c9e0 f i cTED.obj
 0001:0001bac0       ??E?$_Tree_iterator@V?$_Tree_val@U?$_Tree_simple_types@U?$pair@$$CBHV?$basic_string@DU?$char_traits@D@std@@V?$allocator@D@2@@std@@@std@@@std@@@std@@@std@@QAEAAV01@XZ 0041cac0 f i cTED.obj
 0001:0001bb10       ??E?$_Tree_unchecked_const_iterator@V?$_Tree_val@U?$_Tree_simple_types@U?$pair@$$CBHV?$basic_string@DU?$char_traits@D@std@@V?$allocator@D@2@@std@@@std@@@std@@@std@@U_Iterator_base12@2@@std@@QAEAAV01@XZ 0041cb10 f i cTED.obj
 0001:0001bc00       ??F?$_Tree_const_iterator@V?$_Tree_val@U?$_Tree_simple_types@U?$pair@$$CBHV?$basic_string@DU?$char_traits@D@std@@V?$allocator@D@2@@std@@@std@@@std@@@std@@@std@@QAEAAV01@XZ 0041cc00 f i cTED.obj
 0001:0001bd40       ??F?$_Tree_iterator@V?$_Tree_val@U?$_Tree_simple_types@U?$pair@$$CBHV?$basic_string@DU?$char_traits@D@std@@V?$allocator@D@2@@std@@@std@@@std@@@std@@@std@@QAEAAV01@XZ 0041cd40 f i cTED.obj
 0001:0001bd90       ??F?$_Tree_unchecked_const_iterator@V?$_Tree_val@U?$_Tree_simple_types@U?$pair@$$CBHV?$basic_string@DU?$char_traits@D@std@@V?$allocator@D@2@@std@@@std@@@std@@@std@@U_Iterator_base12@2@@std@@QAEAAV01@XZ 0041cd90 f i cTED.obj
 0001:0001beb0       ??R?$less@H@std@@QBE_NABH0@Z 0041ceb0 f i cTED.obj
 0001:0001bf10       ??_G?$pair@$$CBHV?$basic_string@DU?$char_traits@D@std@@V?$allocator@D@2@@std@@@std@@QAEPAXI@Z 0041cf10 f i cTED.obj
 0001:0001bf70       ?Create@cTED@@QAEHHPAUHINSTANCE__@@P6GJPAUHWND__@@IIJ@Z@Z 0041cf70 f   cTED.obj
 0001:0001c310       ?CreateTextpicTileImage@cTED@@QAEHPAUHINSTANCE__@@P6GJPAUHWND__@@IIJ@Z@Z 0041d310 f   cTED.obj
 0001:0001c450       ?DecodeText@cTED@@QAEHK@Z  0041d450 f   cTED.obj
 0001:0001c600       ?DecodeText@cTED@@QAEHPAGH@Z 0041d600 f   cTED.obj
 0001:0001c700       ?Draw@cTED@@QAEHXZ         0041d700 f   cTED.obj
 0001:0001c980       ?EncodeString@cTED@@QAEPAV?$vector@GV?$allocator@G@std@@@std@@PAD@Z 0041d980 f   cTED.obj
 0001:0001cbd0       ?EncodeText@cTED@@QAEHH@Z  0041dbd0 f   cTED.obj
 0001:0001d000       ?GetEncodedEntry@cTED@@QAEGPAD@Z 0041e000 f   cTED.obj
 0001:0001d200       ?LoadTable@cTED@@QAEHXZ    0041e200 f   cTED.obj
 0001:0001d440       ?ResetList@cTED@@QAEHH@Z   0041e440 f   cTED.obj
 0001:0001d690       ?_Alloc_proxy@?$_String_alloc@U?$_String_base_types@DV?$allocator@D@std@@@std@@@std@@QAEXXZ 0041e690 f i cTED.obj
 0001:0001d760       ?_Alloc_proxy@?$_Tree_comp_alloc@V?$_Tmap_traits@HV?$basic_string@DU?$char_traits@D@std@@V?$allocator@D@2@@std@@U?$less@H@2@V?$allocator@U?$pair@$$CBHV?$basic_string@DU?$char_traits@D@std@@V?$allocator@D@2@@std@@@std@@@2@$0A@@std@@@std@@QAEXXZ 0041e760 f i cTED.obj
 0001:0001d830       ?_Buyheadnode@?$_Tree_comp_alloc@V?$_Tmap_traits@HV?$basic_string@DU?$char_traits@D@std@@V?$allocator@D@2@@std@@U?$less@H@2@V?$allocator@U?$pair@$$CBHV?$basic_string@DU?$char_traits@D@std@@V?$allocator@D@2@@std@@@std@@@2@$0A@@std@@@std@@QAEPAU?$_Tree_node@U?$pair@$$CBHV?$basic_string@DU?$char_traits@D@std@@V?$allocator@D@2@@std@@@std@@PAX@2@XZ 0041e830 f i cTED.obj
 0001:0001d9e0       ?_Buynode0@?$_Tree_comp_alloc@V?$_Tmap_traits@HV?$basic_string@DU?$char_traits@D@std@@V?$allocator@D@2@@std@@U?$less@H@2@V?$allocator@U?$pair@$$CBHV?$basic_string@DU?$char_traits@D@std@@V?$allocator@D@2@@std@@@std@@@2@$0A@@std@@@std@@QAEPAU?$_Tree_node@U?$pair@$$CBHV?$basic_string@DU?$char_traits@D@std@@V?$allocator@D@2@@std@@@std@@PAX@2@XZ 0041e9e0 f i cTED.obj
 0001:0001db50       ?_Bx@?$_String_alloc@U?$_String_base_types@DV?$allocator@D@std@@@std@@@std@@QAEAAT_Bxty@?$_String_val@U?$_Simple_types@D@std@@@2@XZ 0041eb50 f i cTED.obj
 0001:0001dba0       ?_Check_offset@?$basic_string@DU?$char_traits@D@std@@V?$allocator@D@2@@std@@QBEXI@Z 0041eba0 f i cTED.obj
 0001:0001dbf0       ?_Clamp_suffix_size@?$basic_string@DU?$char_traits@D@std@@V?$allocator@D@2@@std@@QBEIII@Z 0041ebf0 f i cTED.obj
 0001:0001dc50       ?_Color@?$_Tree_comp_alloc@V?$_Tmap_traits@HV?$basic_string@DU?$char_traits@D@std@@V?$allocator@D@2@@std@@U?$less@H@2@V?$allocator@U?$pair@$$CBHV?$basic_string@DU?$char_traits@D@std@@V?$allocator@D@2@@std@@@std@@@2@$0A@@std@@@std@@SAAADPAU?$_Tree_node@U?$pair@$$CBHV?$basic_string@DU?$char_traits@D@std@@V?$allocator@D@2@@std@@@std@@PAX@2@@Z 0041ec50 f i cTED.obj
 0001:0001dc90       ?_Color@?$_Tree_val@U?$_Tree_simple_types@U?$pair@$$CBHV?$basic_string@DU?$char_traits@D@std@@V?$allocator@D@2@@std@@@std@@@std@@@std@@SAAADPAU?$_Tree_node@U?$pair@$$CBHV?$basic_string@DU?$char_traits@D@std@@V?$allocator@D@2@@std@@@std@@PAX@2@@Z 0041ec90 f i cTED.obj
 0001:0001dcc0       ?_Compare@?$_Tree@V?$_Tmap_traits@HV?$basic_string@DU?$char_traits@D@std@@V?$allocator@D@2@@std@@U?$less@H@2@V?$allocator@U?$pair@$$CBHV?$basic_string@DU?$char_traits@D@std@@V?$allocator@D@2@@std@@@std@@@2@$0A@@std@@@std@@IBE_NABH0@Z 0041ecc0 f i cTED.obj
 0001:0001dd20       ?_Construct@?$_Tree_comp_alloc@V?$_Tmap_traits@HV?$basic_string@DU?$char_traits@D@std@@V?$allocator@D@2@@std@@U?$less@H@2@V?$allocator@U?$pair@$$CBHV?$basic_string@DU?$char_traits@D@std@@V?$allocator@D@2@@std@@@std@@@2@$0A@@std@@@std@@QAEXXZ 0041ed20 f i cTED.obj
 0001:0001dde0       ?_Copy@?$basic_string@DU?$char_traits@D@std@@V?$allocator@D@2@@std@@QAEXII@Z 0041ede0 f i cTED.obj
 0001:0001e020       ?_Destroy_if_not_nil@?$_Tree@V?$_Tmap_traits@HV?$basic_string@DU?$char_traits@D@std@@V?$allocator@D@2@@std@@U?$less@H@2@V?$allocator@U?$pair@$$CBHV?$basic_string@DU?$char_traits@D@std@@V?$allocator@D@2@@std@@@std@@@2@$0A@@std@@@std@@IAEXPAU?$_Tree_node@U?$pair@$$CBHV?$basic_string@DU?$char_traits@D@std@@V?$allocator@D@2@@std@@@std@@PAX@2@@Z 0041f020 f i cTED.obj
 0001:0001e0a0       ?_Eos@?$basic_string@DU?$char_traits@D@std@@V?$allocator@D@2@@std@@QAEXI@Z 0041f0a0 f i cTED.obj
 0001:0001e110       ?_Erase@?$_Tree@V?$_Tmap_traits@HV?$basic_string@DU?$char_traits@D@std@@V?$allocator@D@2@@std@@U?$less@H@2@V?$allocator@U?$pair@$$CBHV?$basic_string@DU?$char_traits@D@std@@V?$allocator@D@2@@std@@@std@@@2@$0A@@std@@@std@@IAEXPAU?$_Tree_node@U?$pair@$$CBHV?$basic_string@DU?$char_traits@D@std@@V?$allocator@D@2@@std@@@std@@PAX@2@@Z 0041f110 f i cTED.obj
 0001:0001e1d0       ?_Free_proxy@?$_String_alloc@U?$_String_base_types@DV?$allocator@D@std@@@std@@@std@@QAEXXZ 0041f1d0 f i cTED.obj
 0001:0001e290       ?_Free_proxy@?$_Tree_comp_alloc@V?$_Tmap_traits@HV?$basic_string@DU?$char_traits@D@std@@V?$allocator@D@2@@std@@U?$less@H@2@V?$allocator@U?$pair@$$CBHV?$basic_string@DU?$char_traits@D@std@@V?$allocator@D@2@@std@@@std@@@2@$0A@@std@@@std@@QAEXXZ 0041f290 f i cTED.obj
 0001:0001e350       ?_Freeheadnode@?$_Tree_comp_alloc@V?$_Tmap_traits@HV?$basic_string@DU?$char_traits@D@std@@V?$allocator@D@2@@std@@U?$less@H@2@V?$allocator@U?$pair@$$CBHV?$basic_string@DU?$char_traits@D@std@@V?$allocator@D@2@@std@@@std@@@2@$0A@@std@@@std@@QAEXPAU?$_Tree_node@U?$pair@$$CBHV?$basic_string@DU?$char_traits@D@std@@V?$allocator@D@2@@std@@@std@@PAX@2@@Z 0041f350 f i cTED.obj
 0001:0001e410       ?_Freenode0@?$_Tree_comp_alloc@V?$_Tmap_traits@HV?$basic_string@DU?$char_traits@D@std@@V?$allocator@D@2@@std@@U?$less@H@2@V?$allocator@U?$pair@$$CBHV?$basic_string@DU?$char_traits@D@std@@V?$allocator@D@2@@std@@@std@@@2@$0A@@std@@@std@@QAEXPAU?$_Tree_node@U?$pair@$$CBHV?$basic_string@DU?$char_traits@D@std@@V?$allocator@D@2@@std@@@std@@PAX@2@@Z 0041f410 f i cTED.obj
 0001:0001e4d0       ?_Get_data@?$_String_alloc@U?$_String_base_types@DV?$allocator@D@std@@@std@@@std@@QAEAAV?$_String_val@U?$_Simple_types@D@std@@@2@XZ 0041f4d0 f i cTED.obj
 0001:0001e510       ?_Get_data@?$_String_alloc@U?$_String_base_types@DV?$allocator@D@std@@@std@@@std@@QBEABV?$_String_val@U?$_Simple_types@D@std@@@2@XZ 0041f510 f i cTED.obj
 0001:0001e550       ?_Get_data@?$_Tree_comp_alloc@V?$_Tmap_traits@HV?$basic_string@DU?$char_traits@D@std@@V?$allocator@D@2@@std@@U?$less@H@2@V?$allocator@U?$pair@$$CBHV?$basic_string@DU?$char_traits@D@std@@V?$allocator@D@2@@std@@@std@@@2@$0A@@std@@@std@@QAEAAV?$_Tree_val@U?$_Tree_simple_types@U?$pair@$$CBHV?$basic_string@DU?$char_traits@D@std@@V?$allocator@D@2@@std@@@std@@@std@@@2@XZ 0041f550 f i cTED.obj
 0001:0001e5a0       ?_Get_data@?$_Tree_comp_alloc@V?$_Tmap_traits@HV?$basic_string@DU?$char_traits@D@std@@V?$allocator@D@2@@std@@U?$less@H@2@V?$allocator@U?$pair@$$CBHV?$basic_string@DU?$char_traits@D@std@@V?$allocator@D@2@@std@@@std@@@2@$0A@@std@@@std@@QBEABV?$_Tree_val@U?$_Tree_simple_types@U?$pair@$$CBHV?$basic_string@DU?$char_traits@D@std@@V?$allocator@D@2@@std@@@std@@@std@@@2@XZ 0041f5a0 f i cTED.obj
 0001:0001e5f0       ?_Get_first@?$_Compressed_pair@U?$_Wrap_alloc@V?$allocator@D@std@@@std@@V?$_String_val@U?$_Simple_types@D@std@@@2@$00@std@@QAEAAU?$_Wrap_alloc@V?$allocator@D@std@@@2@XZ 0041f5f0 f i cTED.obj
 0001:0001e620       ?_Get_first@?$_Compressed_pair@U?$_Wrap_alloc@V?$allocator@D@std@@@std@@V?$_String_val@U?$_Simple_types@D@std@@@2@$00@std@@QBEABU?$_Wrap_alloc@V?$allocator@D@std@@@2@XZ 0041f620 f i cTED.obj
 0001:0001e650       ?_Get_first@?$_Compressed_pair@U?$_Wrap_alloc@V?$allocator@U?$_Tree_node@U?$pair@$$CBHV?$basic_string@DU?$char_traits@D@std@@V?$allocator@D@2@@std@@@std@@PAX@std@@@std@@@std@@V?$_Tree_val@U?$_Tree_simple_types@U?$pair@$$CBHV?$basic_string@DU?$char_traits@D@std@@V?$allocator@D@2@@std@@@std@@@std@@@2@$00@std@@QAEAAU?$_Wrap_alloc@V?$allocator@U?$_Tree_node@U?$pair@$$CBHV?$basic_string@DU?$char_traits@D@std@@V?$allocator@D@2@@std@@@std@@PAX@std@@@std@@@2@XZ 0041f650 f i cTED.obj
 0001:0001e680       ?_Get_first@?$_Compressed_pair@U?$_Wrap_alloc@V?$allocator@U?$_Tree_node@U?$pair@$$CBHV?$basic_string@DU?$char_traits@D@std@@V?$allocator@D@2@@std@@@std@@PAX@std@@@std@@@std@@V?$_Tree_val@U?$_Tree_simple_types@U?$pair@$$CBHV?$basic_string@DU?$char_traits@D@std@@V?$allocator@D@2@@std@@@std@@@std@@@2@$00@std@@QBEABU?$_Wrap_alloc@V?$allocator@U?$_Tree_node@U?$pair@$$CBHV?$basic_string@DU?$char_traits@D@std@@V?$allocator@D@2@@std@@@std@@PAX@std@@@std@@@2@XZ 0041f680 f i cTED.obj
 0001:0001e6b0       ?_Get_first@?$_Compressed_pair@U?$less@H@std@@V?$_Compressed_pair@U?$_Wrap_alloc@V?$allocator@U?$_Tree_node@U?$pair@$$CBHV?$basic_string@DU?$char_traits@D@std@@V?$allocator@D@2@@std@@@std@@PAX@std@@@std@@@std@@V?$_Tree_val@U?$_Tree_simple_types@U?$pair@$$CBHV?$basic_string@DU?$char_traits@D@std@@V?$allocator@D@2@@std@@@std@@@std@@@2@$00@2@$00@std@@QAEAAU?$less@H@2@XZ 0041f6b0 f i cTED.obj
 0001:0001e6e0       ?_Get_first@?$_Compressed_pair@U?$less@H@std@@V?$_Compressed_pair@U?$_Wrap_alloc@V?$allocator@U?$_Tree_node@U?$pair@$$CBHV?$basic_string@DU?$char_traits@D@std@@V?$allocator@D@2@@std@@@std@@PAX@std@@@std@@@std@@V?$_Tree_val@U?$_Tree_simple_types@U?$pair@$$CBHV?$basic_string@DU?$char_traits@D@std@@V?$allocator@D@2@@std@@@std@@@std@@@2@$00@2@$00@std@@QBEABU?$less@H@2@XZ 0041f6e0 f i cTED.obj
 0001:0001e710       ?_Get_second@?$_Compressed_pair@U?$_Wrap_alloc@V?$allocator@D@std@@@std@@V?$_String_val@U?$_Simple_types@D@std@@@2@$00@std@@QAEAAV?$_String_val@U?$_Simple_types@D@std@@@2@XZ 0041f710 f i cTED.obj
 0001:0001e740       ?_Get_second@?$_Compressed_pair@U?$_Wrap_alloc@V?$allocator@D@std@@@std@@V?$_String_val@U?$_Simple_types@D@std@@@2@$00@std@@QBEABV?$_String_val@U?$_Simple_types@D@std@@@2@XZ 0041f740 f i cTED.obj
 0001:0001e770       ?_Get_second@?$_Compressed_pair@U?$_Wrap_alloc@V?$allocator@U?$_Tree_node@U?$pair@$$CBHV?$basic_string@DU?$char_traits@D@std@@V?$allocator@D@2@@std@@@std@@PAX@std@@@std@@@std@@V?$_Tree_val@U?$_Tree_simple_types@U?$pair@$$CBHV?$basic_string@DU?$char_traits@D@std@@V?$allocator@D@2@@std@@@std@@@std@@@2@$00@std@@QAEAAV?$_Tree_val@U?$_Tree_simple_types@U?$pair@$$CBHV?$basic_string@DU?$char_traits@D@std@@V?$allocator@D@2@@std@@@std@@@std@@@2@XZ 0041f770 f i cTED.obj
 0001:0001e7a0       ?_Get_second@?$_Compressed_pair@U?$_Wrap_alloc@V?$allocator@U?$_Tree_node@U?$pair@$$CBHV?$basic_string@DU?$char_traits@D@std@@V?$allocator@D@2@@std@@@std@@PAX@std@@@std@@@std@@V?$_Tree_val@U?$_Tree_simple_types@U?$pair@$$CBHV?$basic_string@DU?$char_traits@D@std@@V?$allocator@D@2@@std@@@std@@@std@@@2@$00@std@@QBEABV?$_Tree_val@U?$_Tree_simple_types@U?$pair@$$CBHV?$basic_string@DU?$char_traits@D@std@@V?$allocator@D@2@@std@@@std@@@std@@@2@XZ 0041f7a0 f i cTED.obj
 0001:0001e7d0       ?_Get_second@?$_Compressed_pair@U?$less@H@std@@V?$_Compressed_pair@U?$_Wrap_alloc@V?$allocator@U?$_Tree_node@U?$pair@$$CBHV?$basic_string@DU?$char_traits@D@std@@V?$allocator@D@2@@std@@@std@@PAX@std@@@std@@@std@@V?$_Tree_val@U?$_Tree_simple_types@U?$pair@$$CBHV?$basic_string@DU?$char_traits@D@std@@V?$allocator@D@2@@std@@@std@@@std@@@2@$00@2@$00@std@@QAEAAV?$_Compressed_pair@U?$_Wrap_alloc@V?$allocator@U?$_Tree_node@U?$pair@$$CBHV?$basic_string@DU?$char_traits@D@std@@V?$allocator@D@2@@std@@@std@@PAX@std@@@std@@@std@@V?$_Tree_val@U?$_Tree_simple_types@U?$pair@$$CBHV?$basic_string@DU?$char_traits@D@std@@V?$allocator@D@2@@std@@@std@@@std@@@2@$00@2@XZ 0041f7d0 f i cTED.obj
 0001:0001e800       ?_Get_second@?$_Compressed_pair@U?$less@H@std@@V?$_Compressed_pair@U?$_Wrap_alloc@V?$allocator@U?$_Tree_node@U?$pair@$$CBHV?$basic_string@DU?$char_traits@D@std@@V?$allocator@D@2@@std@@@std@@PAX@std@@@std@@@std@@V?$_Tree_val@U?$_Tree_simple_types@U?$pair@$$CBHV?$basic_string@DU?$char_traits@D@std@@V?$allocator@D@2@@std@@@std@@@std@@@2@$00@2@$00@std@@QBEABV?$_Compressed_pair@U?$_Wrap_alloc@V?$allocator@U?$_Tree_node@U?$pair@$$CBHV?$basic_string@DU?$char_traits@D@std@@V?$allocator@D@2@@std@@@std@@PAX@std@@@std@@@std@@V?$_Tree_val@U?$_Tree_simple_types@U?$pair@$$CBHV?$basic_string@DU?$char_traits@D@std@@V?$allocator@D@2@@std@@@std@@@std@@@2@$00@2@XZ 0041f800 f i cTED.obj
 0001:0001e830       ?_Getal@?$_String_alloc@U?$_String_base_types@DV?$allocator@D@std@@@std@@@std@@QAEAAU?$_Wrap_alloc@V?$allocator@D@std@@@2@XZ 0041f830 f i cTED.obj
 0001:0001e870       ?_Getal@?$_String_alloc@U?$_String_base_types@DV?$allocator@D@std@@@std@@@std@@QBEABU?$_Wrap_alloc@V?$allocator@D@std@@@2@XZ 0041f870 f i cTED.obj
 0001:0001e8b0       ?_Getal@?$_Tree_comp_alloc@V?$_Tmap_traits@HV?$basic_string@DU?$char_traits@D@std@@V?$allocator@D@2@@std@@U?$less@H@2@V?$allocator@U?$pair@$$CBHV?$basic_string@DU?$char_traits@D@std@@V?$allocator@D@2@@std@@@std@@@2@$0A@@std@@@std@@QAEAAU?$_Wrap_alloc@V?$allocator@U?$_Tree_node@U?$pair@$$CBHV?$basic_string@DU?$char_traits@D@std@@V?$allocator@D@2@@std@@@std@@PAX@std@@@std@@@2@XZ 0041f8b0 f i cTED.obj
 0001:0001e900       ?_Getal@?$_Tree_comp_alloc@V?$_Tmap_traits@HV?$basic_string@DU?$char_traits@D@std@@V?$allocator@D@2@@std@@U?$less@H@2@V?$allocator@U?$pair@$$CBHV?$basic_string@DU?$char_traits@D@std@@V?$allocator@D@2@@std@@@std@@@2@$0A@@std@@@std@@QBEABU?$_Wrap_alloc@V?$allocator@U?$_Tree_node@U?$pair@$$CBHV?$basic_string@DU?$char_traits@D@std@@V?$allocator@D@2@@std@@@std@@PAX@std@@@std@@@2@XZ 0041f900 f i cTED.obj
 0001:0001e950       ?_Getcomp@?$_Tree_comp_alloc@V?$_Tmap_traits@HV?$basic_string@DU?$char_traits@D@std@@V?$allocator@D@2@@std@@U?$less@H@2@V?$allocator@U?$pair@$$CBHV?$basic_string@DU?$char_traits@D@std@@V?$allocator@D@2@@std@@@std@@@2@$0A@@std@@@std@@QAEAAU?$less@H@2@XZ 0041f950 f i cTED.obj
 0001:0001e990       ?_Getcomp@?$_Tree_comp_alloc@V?$_Tmap_traits@HV?$basic_string@DU?$char_traits@D@std@@V?$allocator@D@2@@std@@U?$less@H@2@V?$allocator@U?$pair@$$CBHV?$basic_string@DU?$char_traits@D@std@@V?$allocator@D@2@@std@@@std@@@2@$0A@@std@@@std@@QBEABU?$less@H@2@XZ 0041f990 f i cTED.obj
 0001:0001e9d0       ?_Getpfirst@?$_Tree_comp_alloc@V?$_Tmap_traits@HV?$basic_string@DU?$char_traits@D@std@@V?$allocator@D@2@@std@@U?$less@H@2@V?$allocator@U?$pair@$$CBHV?$basic_string@DU?$char_traits@D@std@@V?$allocator@D@2@@std@@@std@@@2@$0A@@std@@@std@@QBEPAPAU_Iterator_base12@2@XZ 0041f9d0 f i cTED.obj
 0001:0001ea20       ?_Grow@?$basic_string@DU?$char_traits@D@std@@V?$allocator@D@2@@std@@QAE_NI_N@Z 0041fa20 f i cTED.obj
 0001:0001eb20       ?_Inside@?$basic_string@DU?$char_traits@D@std@@V?$allocator@D@2@@std@@QAE_NPBD@Z 0041fb20 f i cTED.obj
 0001:0001eb90       ?_Inside@?$vector@GV?$allocator@G@std@@@std@@IBE_NPBG@Z 0041fb90 f i cTED.obj
 0001:0001ec20       ?_Isnil@?$_Tree_comp_alloc@V?$_Tmap_traits@HV?$basic_string@DU?$char_traits@D@std@@V?$allocator@D@2@@std@@U?$less@H@2@V?$allocator@U?$pair@$$CBHV?$basic_string@DU?$char_traits@D@std@@V?$allocator@D@2@@std@@@std@@@2@$0A@@std@@@std@@SAAADPAU?$_Tree_node@U?$pair@$$CBHV?$basic_string@DU?$char_traits@D@std@@V?$allocator@D@2@@std@@@std@@PAX@2@@Z 0041fc20 f i cTED.obj
 0001:0001ec60       ?_Isnil@?$_Tree_val@U?$_Tree_simple_types@U?$pair@$$CBHV?$basic_string@DU?$char_traits@D@std@@V?$allocator@D@2@@std@@@std@@@std@@@std@@SAAADPAU?$_Tree_node@U?$pair@$$CBHV?$basic_string@DU?$char_traits@D@std@@V?$allocator@D@2@@std@@@std@@PAX@2@@Z 0041fc60 f i cTED.obj
 0001:0001ec90       ?_Key@?$_Tree@V?$_Tmap_traits@HV?$basic_string@DU?$char_traits@D@std@@V?$allocator@D@2@@std@@U?$less@H@2@V?$allocator@U?$pair@$$CBHV?$basic_string@DU?$char_traits@D@std@@V?$allocator@D@2@@std@@@std@@@2@$0A@@std@@@std@@IBEABHPAU?$_Tree_node@U?$pair@$$CBHV?$basic_string@DU?$char_traits@D@std@@V?$allocator@D@2@@std@@@std@@PAX@2@@Z 0041fc90 f i cTED.obj
 0001:0001ece0       ?_Kfn@?$_Tree@V?$_Tmap_traits@HV?$basic_string@DU?$char_traits@D@std@@V?$allocator@D@2@@std@@U?$less@H@2@V?$allocator@U?$pair@$$CBHV?$basic_string@DU?$char_traits@D@std@@V?$allocator@D@2@@std@@@std@@@2@$0A@@std@@@std@@IBEABHABU?$pair@$$CBHV?$basic_string@DU?$char_traits@D@std@@V?$allocator@D@2@@std@@@2@@Z 0041fce0 f i cTED.obj
 0001:0001ed30       ?_Left@?$_Tree_comp_alloc@V?$_Tmap_traits@HV?$basic_string@DU?$char_traits@D@std@@V?$allocator@D@2@@std@@U?$less@H@2@V?$allocator@U?$pair@$$CBHV?$basic_string@DU?$char_traits@D@std@@V?$allocator@D@2@@std@@@std@@@2@$0A@@std@@@std@@SAAAPAU?$_Tree_node@U?$pair@$$CBHV?$basic_string@DU?$char_traits@D@std@@V?$allocator@D@2@@std@@@std@@PAX@2@PAU32@@Z 0041fd30 f i cTED.obj
 0001:0001ed70       ?_Left@?$_Tree_val@U?$_Tree_simple_types@U?$pair@$$CBHV?$basic_string@DU?$char_traits@D@std@@V?$allocator@D@2@@std@@@std@@@std@@@std@@SAAAPAU?$_Tree_node@U?$pair@$$CBHV?$basic_string@DU?$char_traits@D@std@@V?$allocator@D@2@@std@@@std@@PAX@2@PAU32@@Z 0041fd70 f i cTED.obj
 0001:0001eda0       ?_Lmost@?$_Tree@V?$_Tmap_traits@HV?$basic_string@DU?$char_traits@D@std@@V?$allocator@D@2@@std@@U?$less@H@2@V?$allocator@U?$pair@$$CBHV?$basic_string@DU?$char_traits@D@std@@V?$allocator@D@2@@std@@@std@@@2@$0A@@std@@@std@@IBEAAPAU?$_Tree_node@U?$pair@$$CBHV?$basic_string@DU?$char_traits@D@std@@V?$allocator@D@2@@std@@@std@@PAX@2@XZ 0041fda0 f i cTED.obj
 0001:0001edf0       ?_Lrotate@?$_Tree@V?$_Tmap_traits@HV?$basic_string@DU?$char_traits@D@std@@V?$allocator@D@2@@std@@U?$less@H@2@V?$allocator@U?$pair@$$CBHV?$basic_string@DU?$char_traits@D@std@@V?$allocator@D@2@@std@@@std@@@2@$0A@@std@@@std@@IAEXPAU?$_Tree_node@U?$pair@$$CBHV?$basic_string@DU?$char_traits@D@std@@V?$allocator@D@2@@std@@@std@@PAX@2@@Z 0041fdf0 f i cTED.obj
 0001:0001ef50       ?_Max@?$_Tree_comp_alloc@V?$_Tmap_traits@HV?$basic_string@DU?$char_traits@D@std@@V?$allocator@D@2@@std@@U?$less@H@2@V?$allocator@U?$pair@$$CBHV?$basic_string@DU?$char_traits@D@std@@V?$allocator@D@2@@std@@@std@@@2@$0A@@std@@@std@@SAPAU?$_Tree_node@U?$pair@$$CBHV?$basic_string@DU?$char_traits@D@std@@V?$allocator@D@2@@std@@@std@@PAX@2@PAU32@@Z 0041ff50 f i cTED.obj
 0001:0001ef90       ?_Max@?$_Tree_val@U?$_Tree_simple_types@U?$pair@$$CBHV?$basic_string@DU?$char_traits@D@std@@V?$allocator@D@2@@std@@@std@@@std@@@std@@SAPAU?$_Tree_node@U?$pair@$$CBHV?$basic_string@DU?$char_traits@D@std@@V?$allocator@D@2@@std@@@std@@PAX@2@PAU32@@Z 0041ff90 f i cTED.obj
 0001:0001f000       ?_Min@?$_Tree_comp_alloc@V?$_Tmap_traits@HV?$basic_string@DU?$char_traits@D@std@@V?$allocator@D@2@@std@@U?$less@H@2@V?$allocator@U?$pair@$$CBHV?$basic_string@DU?$char_traits@D@std@@V?$allocator@D@2@@std@@@std@@@2@$0A@@std@@@std@@SAPAU?$_Tree_node@U?$pair@$$CBHV?$basic_string@DU?$char_traits@D@std@@V?$allocator@D@2@@std@@@std@@PAX@2@PAU32@@Z 00420000 f i cTED.obj
 0001:0001f040       ?_Min@?$_Tree_val@U?$_Tree_simple_types@U?$pair@$$CBHV?$basic_string@DU?$char_traits@D@std@@V?$allocator@D@2@@std@@@std@@@std@@@std@@SAPAU?$_Tree_node@U?$pair@$$CBHV?$basic_string@DU?$char_traits@D@std@@V?$allocator@D@2@@std@@@std@@PAX@2@PAU32@@Z 00420040 f i cTED.obj
 0001:0001f0b0       ?_Myhead@?$_Tree_comp_alloc@V?$_Tmap_traits@HV?$basic_string@DU?$char_traits@D@std@@V?$allocator@D@2@@std@@U?$less@H@2@V?$allocator@U?$pair@$$CBHV?$basic_string@DU?$char_traits@D@std@@V?$allocator@D@2@@std@@@std@@@2@$0A@@std@@@std@@QAEAAPAU?$_Tree_node@U?$pair@$$CBHV?$basic_string@DU?$char_traits@D@std@@V?$allocator@D@2@@std@@@std@@PAX@2@XZ 004200b0 f i cTED.obj
 0001:0001f100       ?_Myhead@?$_Tree_comp_alloc@V?$_Tmap_traits@HV?$basic_string@DU?$char_traits@D@std@@V?$allocator@D@2@@std@@U?$less@H@2@V?$allocator@U?$pair@$$CBHV?$basic_string@DU?$char_traits@D@std@@V?$allocator@D@2@@std@@@std@@@2@$0A@@std@@@std@@QBEABQAU?$_Tree_node@U?$pair@$$CBHV?$basic_string@DU?$char_traits@D@std@@V?$allocator@D@2@@std@@@std@@PAX@2@XZ 00420100 f i cTED.obj
 0001:0001f150       ?_Mynode@?$_Tree_unchecked_const_iterator@V?$_Tree_val@U?$_Tree_simple_types@U?$pair@$$CBHV?$basic_string@DU?$char_traits@D@std@@V?$allocator@D@2@@std@@@std@@@std@@@std@@U_Iterator_base12@2@@std@@QBEPAU?$_Tree_node@U?$pair@$$CBHV?$basic_string@DU?$char_traits@D@std@@V?$allocator@D@2@@std@@@std@@PAX@2@XZ 00420150 f i cTED.obj
 0001:0001f180       ?_Myproxy@?$_String_alloc@U?$_String_base_types@DV?$allocator@D@std@@@std@@@std@@QAEAAPAU_Container_proxy@2@XZ 00420180 f i cTED.obj
 0001:0001f1c0       ?_Myproxy@?$_Tree_comp_alloc@V?$_Tmap_traits@HV?$basic_string@DU?$char_traits@D@std@@V?$allocator@D@2@@std@@U?$less@H@2@V?$allocator@U?$pair@$$CBHV?$basic_string@DU?$char_traits@D@std@@V?$allocator@D@2@@std@@@std@@@2@$0A@@std@@@std@@QAEAAPAU_Container_proxy@2@XZ 004201c0 f i cTED.obj
 0001:0001f200       ?_Myptr@?$_String_alloc@U?$_String_base_types@DV?$allocator@D@std@@@std@@@std@@QAEPADXZ 00420200 f i cTED.obj
 0001:0001f250       ?_Myptr@?$_String_alloc@U?$_String_base_types@DV?$allocator@D@std@@@std@@@std@@QBEPBDXZ 00420250 f i cTED.obj
 0001:0001f2a0       ?_Myptr@?$_String_val@U?$_Simple_types@D@std@@@std@@QAEPADXZ 004202a0 f i cTED.obj
 0001:0001f310       ?_Myptr@?$_String_val@U?$_Simple_types@D@std@@@std@@QBEPBDXZ 00420310 f i cTED.obj
 0001:0001f380       ?_Myres@?$_String_alloc@U?$_String_base_types@DV?$allocator@D@std@@@std@@@std@@QAEAAIXZ 00420380 f i cTED.obj
 0001:0001f3d0       ?_Mysize@?$_String_alloc@U?$_String_base_types@DV?$allocator@D@std@@@std@@@std@@QAEAAIXZ 004203d0 f i cTED.obj
 0001:0001f420       ?_Mysize@?$_String_alloc@U?$_String_base_types@DV?$allocator@D@std@@@std@@@std@@QBEABIXZ 00420420 f i cTED.obj
 0001:0001f470       ?_Mysize@?$_Tree_comp_alloc@V?$_Tmap_traits@HV?$basic_string@DU?$char_traits@D@std@@V?$allocator@D@2@@std@@U?$less@H@2@V?$allocator@U?$pair@$$CBHV?$basic_string@DU?$char_traits@D@std@@V?$allocator@D@2@@std@@@std@@@2@$0A@@std@@@std@@QAEAAIXZ 00420470 f i cTED.obj
 0001:0001f4c0       ?_Mysize@?$_Tree_comp_alloc@V?$_Tmap_traits@HV?$basic_string@DU?$char_traits@D@std@@V?$allocator@D@2@@std@@U?$less@H@2@V?$allocator@U?$pair@$$CBHV?$basic_string@DU?$char_traits@D@std@@V?$allocator@D@2@@std@@@std@@@2@$0A@@std@@@std@@QBEABIXZ 004204c0 f i cTED.obj
 0001:0001f510       ?_Myval@?$_Tree_comp_alloc@V?$_Tmap_traits@HV?$basic_string@DU?$char_traits@D@std@@V?$allocator@D@2@@std@@U?$less@H@2@V?$allocator@U?$pair@$$CBHV?$basic_string@DU?$char_traits@D@std@@V?$allocator@D@2@@std@@@std@@@2@$0A@@std@@@std@@SAAAU?$pair@$$CBHV?$basic_string@DU?$char_traits@D@std@@V?$allocator@D@2@@std@@@2@PAU?$_Tree_node@U?$pair@$$CBHV?$basic_string@DU?$char_traits@D@std@@V?$allocator@D@2@@std@@@std@@PAX@2@@Z 00420510 f i cTED.obj
 0001:0001f550       ?_Myval@?$_Tree_val@U?$_Tree_simple_types@U?$pair@$$CBHV?$basic_string@DU?$char_traits@D@std@@V?$allocator@D@2@@std@@@std@@@std@@@std@@SAAAU?$pair@$$CBHV?$basic_string@DU?$char_traits@D@std@@V?$allocator@D@2@@std@@@2@PAU?$_Tree_node@U?$pair@$$CBHV?$basic_string@DU?$char_traits@D@std@@V?$allocator@D@2@@std@@@std@@PAX@2@@Z 00420550 f i cTED.obj
 0001:0001f580       ?_Orphan_all@?$_String_alloc@U?$_String_base_types@DV?$allocator@D@std@@@std@@@std@@QAEXXZ 00420580 f i cTED.obj
 0001:0001f5d0       ?_Orphan_all@?$_Tree_comp_alloc@V?$_Tmap_traits@HV?$basic_string@DU?$char_traits@D@std@@V?$allocator@D@2@@std@@U?$less@H@2@V?$allocator@U?$pair@$$CBHV?$basic_string@DU?$char_traits@D@std@@V?$allocator@D@2@@std@@@std@@@2@$0A@@std@@@std@@QAEXXZ 004205d0 f i cTED.obj
 0001:0001f620       ?_Orphan_ptr@?$_Tree@V?$_Tmap_traits@HV?$basic_string@DU?$char_traits@D@std@@V?$allocator@D@2@@std@@U?$less@H@2@V?$allocator@U?$pair@$$CBHV?$basic_string@DU?$char_traits@D@std@@V?$allocator@D@2@@std@@@std@@@2@$0A@@std@@@std@@IAEXPAU?$_Tree_node@U?$pair@$$CBHV?$basic_string@DU?$char_traits@D@std@@V?$allocator@D@2@@std@@@std@@PAX@2@@Z 00420620 f i cTED.obj
 0001:0001f740       ?_Parent@?$_Tree_comp_alloc@V?$_Tmap_traits@HV?$basic_string@DU?$char_traits@D@std@@V?$allocator@D@2@@std@@U?$less@H@2@V?$allocator@U?$pair@$$CBHV?$basic_string@DU?$char_traits@D@std@@V?$allocator@D@2@@std@@@std@@@2@$0A@@std@@@std@@SAAAPAU?$_Tree_node@U?$pair@$$CBHV?$basic_string@DU?$char_traits@D@std@@V?$allocator@D@2@@std@@@std@@PAX@2@PAU32@@Z 00420740 f i cTED.obj
 0001:0001f780       ?_Parent@?$_Tree_val@U?$_Tree_simple_types@U?$pair@$$CBHV?$basic_string@DU?$char_traits@D@std@@V?$allocator@D@2@@std@@@std@@@std@@@std@@SAAAPAU?$_Tree_node@U?$pair@$$CBHV?$basic_string@DU?$char_traits@D@std@@V?$allocator@D@2@@std@@@std@@PAX@2@PAU32@@Z 00420780 f i cTED.obj
 0001:0001f7b0       ?_Right@?$_Tree_comp_alloc@V?$_Tmap_traits@HV?$basic_string@DU?$char_traits@D@std@@V?$allocator@D@2@@std@@U?$less@H@2@V?$allocator@U?$pair@$$CBHV?$basic_string@DU?$char_traits@D@std@@V?$allocator@D@2@@std@@@std@@@2@$0A@@std@@@std@@SAAAPAU?$_Tree_node@U?$pair@$$CBHV?$basic_string@DU?$char_traits@D@std@@V?$allocator@D@2@@std@@@std@@PAX@2@PAU32@@Z 004207b0 f i cTED.obj
 0001:0001f7f0       ?_Right@?$_Tree_val@U?$_Tree_simple_types@U?$pair@$$CBHV?$basic_string@DU?$char_traits@D@std@@V?$allocator@D@2@@std@@@std@@@std@@@std@@SAAAPAU?$_Tree_node@U?$pair@$$CBHV?$basic_string@DU?$char_traits@D@std@@V?$allocator@D@2@@std@@@std@@PAX@2@PAU32@@Z 004207f0 f i cTED.obj
 0001:0001f820       ?_Rmost@?$_Tree@V?$_Tmap_traits@HV?$basic_string@DU?$char_traits@D@std@@V?$allocator@D@2@@std@@U?$less@H@2@V?$allocator@U?$pair@$$CBHV?$basic_string@DU?$char_traits@D@std@@V?$allocator@D@2@@std@@@std@@@2@$0A@@std@@@std@@IBEAAPAU?$_Tree_node@U?$pair@$$CBHV?$basic_string@DU?$char_traits@D@std@@V?$allocator@D@2@@std@@@std@@PAX@2@XZ 00420820 f i cTED.obj
 0001:0001f870       ?_Root@?$_Tree@V?$_Tmap_traits@HV?$basic_string@DU?$char_traits@D@std@@V?$allocator@D@2@@std@@U?$less@H@2@V?$allocator@U?$pair@$$CBHV?$basic_string@DU?$char_traits@D@std@@V?$allocator@D@2@@std@@@std@@@2@$0A@@std@@@std@@IBEAAPAU?$_Tree_node@U?$pair@$$CBHV?$basic_string@DU?$char_traits@D@std@@V?$allocator@D@2@@std@@@std@@PAX@2@XZ 00420870 f i cTED.obj
 0001:0001f8c0       ?_Rrotate@?$_Tree@V?$_Tmap_traits@HV?$basic_string@DU?$char_traits@D@std@@V?$allocator@D@2@@std@@U?$less@H@2@V?$allocator@U?$pair@$$CBHV?$basic_string@DU?$char_traits@D@std@@V?$allocator@D@2@@std@@@std@@@2@$0A@@std@@@std@@IAEXPAU?$_Tree_node@U?$pair@$$CBHV?$basic_string@DU?$char_traits@D@std@@V?$allocator@D@2@@std@@@std@@PAX@2@@Z 004208c0 f i cTED.obj
 0001:0001fa20       ?_Tidy@?$_Tree@V?$_Tmap_traits@HV?$basic_string@DU?$char_traits@D@std@@V?$allocator@D@2@@std@@U?$less@H@2@V?$allocator@U?$pair@$$CBHV?$basic_string@DU?$char_traits@D@std@@V?$allocator@D@2@@std@@@std@@@2@$0A@@std@@@std@@IAEXXZ 00420a20 f i cTED.obj
 0001:0001fb60       ?_Tidy@?$basic_string@DU?$char_traits@D@std@@V?$allocator@D@2@@std@@QAEX_NI@Z 00420b60 f i cTED.obj
 0001:0001fc50       ?_Traits_compare@?$basic_string@DU?$char_traits@D@std@@V?$allocator@D@2@@std@@SAHQBDI0I@Z 00420c50 f i cTED.obj
 0001:0001fcf0       ?_Xlen@?$basic_string@DU?$char_traits@D@std@@V?$allocator@D@2@@std@@QBEXXZ 00420cf0 f i cTED.obj
 0001:0001fd40       ?_Xran@?$basic_string@DU?$char_traits@D@std@@V?$allocator@D@2@@std@@QBEXXZ 00420d40 f i cTED.obj
 0001:0001fd90       ?allocate@?$_Wrap_alloc@V?$allocator@D@std@@@std@@QAEPADI@Z 00420d90 f i cTED.obj
 0001:0001fde0       ?allocate@?$_Wrap_alloc@V?$allocator@U?$_Tree_node@U?$pair@$$CBHV?$basic_string@DU?$char_traits@D@std@@V?$allocator@D@2@@std@@@std@@PAX@std@@@std@@@std@@QAEPAU?$_Tree_node@U?$pair@$$CBHV?$basic_string@DU?$char_traits@D@std@@V?$allocator@D@2@@std@@@std@@PAX@2@I@Z 00420de0 f i cTED.obj
 0001:0001fe30       ?allocate@?$allocator@D@std@@QAEPADI@Z 00420e30 f i cTED.obj
 0001:0001fe80       ?allocate@?$allocator@U?$_Tree_node@U?$pair@$$CBHV?$basic_string@DU?$char_traits@D@std@@V?$allocator@D@2@@std@@@std@@PAX@std@@@std@@QAEPAU?$_Tree_node@U?$pair@$$CBHV?$basic_string@DU?$char_traits@D@std@@V?$allocator@D@2@@std@@@std@@PAX@2@I@Z 00420e80 f i cTED.obj
 0001:0001fed0       ?assign@?$basic_string@DU?$char_traits@D@std@@V?$allocator@D@2@@std@@QAEAAV12@ABV12@II@Z 00420ed0 f i cTED.obj
 0001:0001ffa0       ?assign@?$basic_string@DU?$char_traits@D@std@@V?$allocator@D@2@@std@@QAEAAV12@PBD@Z 00420fa0 f i cTED.obj
 0001:00020010       ?assign@?$basic_string@DU?$char_traits@D@std@@V?$allocator@D@2@@std@@QAEAAV12@PBDI@Z 00421010 f i cTED.obj
 0001:000200f0       ?assign@?$char_traits@D@std@@SAXAADABD@Z 004210f0 f i cTED.obj
 0001:00020120       ?begin@?$_Tree@V?$_Tmap_traits@HV?$basic_string@DU?$char_traits@D@std@@V?$allocator@D@2@@std@@U?$less@H@2@V?$allocator@U?$pair@$$CBHV?$basic_string@DU?$char_traits@D@std@@V?$allocator@D@2@@std@@@std@@@2@$0A@@std@@@std@@QAE?AV?$_Tree_iterator@V?$_Tree_val@U?$_Tree_simple_types@U?$pair@$$CBHV?$basic_string@DU?$char_traits@D@std@@V?$allocator@D@2@@std@@@std@@@std@@@std@@@2@XZ 00421120 f i cTED.obj
 0001:000201b0       ?c_str@?$basic_string@DU?$char_traits@D@std@@V?$allocator@D@2@@std@@QBEPBDXZ 004211b0 f i cTED.obj
 0001:00020220       ?clear@?$_Tree@V?$_Tmap_traits@HV?$basic_string@DU?$char_traits@D@std@@V?$allocator@D@2@@std@@U?$less@H@2@V?$allocator@U?$pair@$$CBHV?$basic_string@DU?$char_traits@D@std@@V?$allocator@D@2@@std@@@std@@@2@$0A@@std@@@std@@QAEXXZ 00421220 f i cTED.obj
 0001:000202f0       ?compare@?$basic_string@DU?$char_traits@D@std@@V?$allocator@D@2@@std@@QBEHABV12@@Z 004212f0 f i cTED.obj
 0001:00020390       ?compare@?$basic_string@DU?$char_traits@D@std@@V?$allocator@D@2@@std@@QBEHPBD@Z 00421390 f i cTED.obj
 0001:00020410       ?compare@?$char_traits@D@std@@SAHPBD0I@Z 00421410 f i cTED.obj
 0001:00020480       ?copy@?$char_traits@D@std@@SAPADPADPBDI@Z 00421480 f i cTED.obj
 0001:000204f0       ?count@?$_Tree@V?$_Tmap_traits@HV?$basic_string@DU?$char_traits@D@std@@V?$allocator@D@2@@std@@U?$less@H@2@V?$allocator@U?$pair@$$CBHV?$basic_string@DU?$char_traits@D@std@@V?$allocator@D@2@@std@@@std@@@2@$0A@@std@@@std@@QBEIABH@Z 004214f0 f i cTED.obj
 0001:00020610       ?data@?$vector@GV?$allocator@G@std@@@std@@QAEPAGXZ 00421610 f i cTED.obj
 0001:00020690       ?deallocate@?$_Wrap_alloc@V?$allocator@D@std@@@std@@QAEXPADI@Z 00421690 f i cTED.obj
 0001:000206e0       ?deallocate@?$_Wrap_alloc@V?$allocator@U?$_Tree_node@U?$pair@$$CBHV?$basic_string@DU?$char_traits@D@std@@V?$allocator@D@2@@std@@@std@@PAX@std@@@std@@@std@@QAEXPAU?$_Tree_node@U?$pair@$$CBHV?$basic_string@DU?$char_traits@D@std@@V?$allocator@D@2@@std@@@std@@PAX@2@I@Z 004216e0 f i cTED.obj
 0001:00020730       ?deallocate@?$allocator@D@std@@QAEXPADI@Z 00421730 f i cTED.obj
 0001:00020780       ?deallocate@?$allocator@U?$_Tree_node@U?$pair@$$CBHV?$basic_string@DU?$char_traits@D@std@@V?$allocator@D@2@@std@@@std@@PAX@std@@@std@@QAEXPAU?$_Tree_node@U?$pair@$$CBHV?$basic_string@DU?$char_traits@D@std@@V?$allocator@D@2@@std@@@std@@PAX@2@I@Z 00421780 f i cTED.obj
 0001:000207d0       ?end@?$_Tree@V?$_Tmap_traits@HV?$basic_string@DU?$char_traits@D@std@@V?$allocator@D@2@@std@@U?$less@H@2@V?$allocator@U?$pair@$$CBHV?$basic_string@DU?$char_traits@D@std@@V?$allocator@D@2@@std@@@std@@@2@$0A@@std@@@std@@QAE?AV?$_Tree_iterator@V?$_Tree_val@U?$_Tree_simple_types@U?$pair@$$CBHV?$basic_string@DU?$char_traits@D@std@@V?$allocator@D@2@@std@@@std@@@std@@@std@@@2@XZ 004217d0 f i cTED.obj
 0001:00020860       ?equal_range@?$_Tree@V?$_Tmap_traits@HV?$basic_string@DU?$char_traits@D@std@@V?$allocator@D@2@@std@@U?$less@H@2@V?$allocator@U?$pair@$$CBHV?$basic_string@DU?$char_traits@D@std@@V?$allocator@D@2@@std@@@std@@@2@$0A@@std@@@std@@QBE?AU?$pair@V?$_Tree_const_iterator@V?$_Tree_val@U?$_Tree_simple_types@U?$pair@$$CBHV?$basic_string@DU?$char_traits@D@std@@V?$allocator@D@2@@std@@@std@@@std@@@std@@@std@@V12@@2@ABH@Z 00421860 f i cTED.obj
 0001:000208d0       ?erase@?$_Tree@V?$_Tmap_traits@HV?$basic_string@DU?$char_traits@D@std@@V?$allocator@D@2@@std@@U?$less@H@2@V?$allocator@U?$pair@$$CBHV?$basic_string@DU?$char_traits@D@std@@V?$allocator@D@2@@std@@@std@@@2@$0A@@std@@@std@@QAE?AV?$_Tree_iterator@V?$_Tree_val@U?$_Tree_simple_types@U?$pair@$$CBHV?$basic_string@DU?$char_traits@D@std@@V?$allocator@D@2@@std@@@std@@@std@@@std@@@2@V?$_Tree_const_iterator@V?$_Tree_val@U?$_Tree_simple_types@U?$pair@$$CBHV?$basic_string@DU?$char_traits@D@std@@V?$allocator@D@2@@std@@@std@@@std@@@std@@@2@0@Z 004218d0 f i cTED.obj
 0001:00020b50       ?erase@?$_Tree@V?$_Tmap_traits@HV?$basic_string@DU?$char_traits@D@std@@V?$allocator@D@2@@std@@U?$less@H@2@V?$allocator@U?$pair@$$CBHV?$basic_string@DU?$char_traits@D@std@@V?$allocator@D@2@@std@@@std@@@2@$0A@@std@@@std@@QAE?AV?$_Tree_iterator@V?$_Tree_val@U?$_Tree_simple_types@U?$pair@$$CBHV?$basic_string@DU?$char_traits@D@std@@V?$allocator@D@2@@std@@@std@@@std@@@std@@@2@V?$_Tree_const_iterator@V?$_Tree_val@U?$_Tree_simple_types@U?$pair@$$CBHV?$basic_string@DU?$char_traits@D@std@@V?$allocator@D@2@@std@@@std@@@std@@@std@@@2@@Z 00421b50 f i cTED.obj
 0001:000213c0       ?erase@?$basic_string@DU?$char_traits@D@std@@V?$allocator@D@2@@std@@QAEAAV12@I@Z 004223c0 f i cTED.obj
 0001:00021420       ?erase@?$basic_string@DU?$char_traits@D@std@@V?$allocator@D@2@@std@@QAEAAV12@II@Z 00422420 f i cTED.obj
 0001:000214e0       ?length@?$char_traits@D@std@@SAIPBD@Z 004224e0 f i cTED.obj
 0001:00021540       ?lower_bound@?$_Tree@V?$_Tmap_traits@HV?$basic_string@DU?$char_traits@D@std@@V?$allocator@D@2@@std@@U?$less@H@2@V?$allocator@U?$pair@$$CBHV?$basic_string@DU?$char_traits@D@std@@V?$allocator@D@2@@std@@@std@@@2@$0A@@std@@@std@@QAE?AV?$_Tree_iterator@V?$_Tree_val@U?$_Tree_simple_types@U?$pair@$$CBHV?$basic_string@DU?$char_traits@D@std@@V?$allocator@D@2@@std@@@std@@@std@@@std@@@2@ABH@Z 00422540 f i cTED.obj
 0001:000215c0       ?max_size@?$_Tree@V?$_Tmap_traits@HV?$basic_string@DU?$char_traits@D@std@@V?$allocator@D@2@@std@@U?$less@H@2@V?$allocator@U?$pair@$$CBHV?$basic_string@DU?$char_traits@D@std@@V?$allocator@D@2@@std@@@std@@@2@$0A@@std@@@std@@QBEIXZ 004225c0 f i cTED.obj
 0001:00021610       ?max_size@?$_Wrap_alloc@V?$allocator@D@std@@@std@@QBEIU_Nil@2@@Z 00422610 f i cTED.obj
 0001:00021660       ?max_size@?$_Wrap_alloc@V?$allocator@U?$_Tree_node@U?$pair@$$CBHV?$basic_string@DU?$char_traits@D@std@@V?$allocator@D@2@@std@@@std@@PAX@std@@@std@@@std@@QBEIU_Nil@2@@Z 00422660 f i cTED.obj
 0001:000216b0       ?max_size@?$allocator@D@std@@QBEIXZ 004226b0 f i cTED.obj
 0001:000216e0       ?max_size@?$allocator@U?$_Tree_node@U?$pair@$$CBHV?$basic_string@DU?$char_traits@D@std@@V?$allocator@D@2@@std@@@std@@PAX@std@@@std@@QBEIXZ 004226e0 f i cTED.obj
 0001:00021710       ?max_size@?$allocator_traits@V?$allocator@D@std@@@std@@SAIABV?$allocator@D@2@@Z 00422710 f i cTED.obj
 0001:00021750       ?max_size@?$allocator_traits@V?$allocator@U?$_Tree_node@U?$pair@$$CBHV?$basic_string@DU?$char_traits@D@std@@V?$allocator@D@2@@std@@@std@@PAX@std@@@std@@@std@@SAIABV?$allocator@U?$_Tree_node@U?$pair@$$CBHV?$basic_string@DU?$char_traits@D@std@@V?$allocator@D@2@@std@@@std@@PAX@std@@@2@@Z 00422750 f i cTED.obj
 0001:00021790       ?max_size@?$basic_string@DU?$char_traits@D@std@@V?$allocator@D@2@@std@@QBEIXZ 00422790 f i cTED.obj
 0001:00021810       ?move@?$char_traits@D@std@@SAPADPADPBDI@Z 00422810 f i cTED.obj
 0001:00021880       ?pointer_to@?$pointer_traits@PAU?$pair@$$CBHV?$basic_string@DU?$char_traits@D@std@@V?$allocator@D@2@@std@@@std@@@std@@SAPAU?$pair@$$CBHV?$basic_string@DU?$char_traits@D@std@@V?$allocator@D@2@@std@@@2@AAU32@@Z 00422880 f i cTED.obj
 0001:000218c0       ?push_back@?$vector@GV?$allocator@G@std@@@std@@QAEXABG@Z 004228c0 f i cTED.obj
 0001:00021a70       ?select_on_container_copy_construction@?$_Wrap_alloc@V?$allocator@D@std@@@std@@QBE?AU12@U_Nil@2@@Z 00422a70 f i cTED.obj
 0001:00021ad0       ?select_on_container_copy_construction@?$allocator_traits@V?$allocator@D@std@@@std@@SA?AV?$allocator@D@2@ABV32@@Z 00422ad0 f i cTED.obj
 0001:00021b20       ?size@?$_Tree@V?$_Tmap_traits@HV?$basic_string@DU?$char_traits@D@std@@V?$allocator@D@2@@std@@U?$less@H@2@V?$allocator@U?$pair@$$CBHV?$basic_string@DU?$char_traits@D@std@@V?$allocator@D@2@@std@@@std@@@2@$0A@@std@@@std@@QBEIXZ 00422b20 f i cTED.obj
 0001:00021b70       ___local_stdio_scanf_options 00422b70 f i cTED.obj
 0001:00021ba0       __vsscanf_l                00422ba0 f i cTED.obj
 0001:00021c00       _sscanf                    00422c00 f i cTED.obj
 0001:00021c60       ??0cTSAEditorClass@@QAE@XZ 00422c60 f   cTSAEditorClass.obj
 0001:00021d60       ??1cTSAEditorClass@@QAE@XZ 00422d60 f   cTSAEditorClass.obj
 0001:00021e40       ?Create@cTSAEditorClass@@QAEHXZ 00422e40 f   cTSAEditorClass.obj
 0001:00022280       ?CreatePreviewWind@cTSAEditorClass@@QAEHXZ 00423280 f   cTSAEditorClass.obj
 0001:000223b0       ?CreateTilesetWind@cTSAEditorClass@@QAEHXZ 004233b0 f   cTSAEditorClass.obj
 0001:00022540       ?DrawPreview@cTSAEditorClass@@QAEHXZ 00423540 f   cTSAEditorClass.obj
 0001:00022750       ?DrawThisTileset@cTSAEditorClass@@QAEHXZ 00423750 f   cTSAEditorClass.obj
 0001:00022850       ?LoadTSA@cTSAEditorClass@@QAEHXZ 00423850 f   cTSAEditorClass.obj
 0001:000229f0       ?SaveBlock@cTSAEditorClass@@QAEHXZ 004239f0 f   cTSAEditorClass.obj
 0001:00022b70       ??$?8GG@std@@YA_NABV?$allocator@G@0@0@Z 00423b70 f i cUndoBuffer.obj
 0001:00022ba0       ??$?8V?$allocator@G@std@@V01@@std@@YA_NABU?$_Wrap_alloc@V?$allocator@G@std@@@0@0@Z 00423ba0 f i cUndoBuffer.obj
 0001:00022bf0       ??$?9V?$allocator@G@std@@V01@@std@@YA_NABU?$_Wrap_alloc@V?$allocator@G@std@@@0@0@Z 00423bf0 f i cUndoBuffer.obj
 0001:00022c60       ??$_Copy_no_deprecate1@PAGV?$_Vector_iterator@V?$_Vector_val@U?$_Simple_types@G@std@@@std@@@std@@@std@@YA?AV?$_Vector_iterator@V?$_Vector_val@U?$_Simple_types@G@std@@@std@@@0@PAG0V10@Urandom_access_iterator_tag@0@2@Z 00423c60 f i cUndoBuffer.obj
 0001:00022d70       ??$_Copy_no_deprecate@PAGV?$_Vector_iterator@V?$_Vector_val@U?$_Simple_types@G@std@@@std@@@std@@@std@@YA?AV?$_Vector_iterator@V?$_Vector_val@U?$_Simple_types@G@std@@@std@@@0@PAG0V10@@Z 00423d70 f i cUndoBuffer.obj
 0001:00022ea0       ??$_Copy_unchecked1@PAGPAG@std@@YAPAGPAG00U_Trivially_copyable_ptr_iterator_tag@0@@Z 00423ea0 f i cUndoBuffer.obj
 0001:00022ef0       ??$_Copy_unchecked@PAGPAG@std@@YAPAGPAG00@Z 00423ef0 f i cUndoBuffer.obj
 0001:00022f60       ??$_Debug_pointer@G@std@@YAXPAGPB_WI@Z 00423f60 f i cUndoBuffer.obj
 0001:00022fb0       ??$_Debug_range_ptr2@PAGV?$_Vector_iterator@V?$_Vector_val@U?$_Simple_types@G@std@@@std@@@std@@@std@@YAXPAG0AAV?$_Vector_iterator@V?$_Vector_val@U?$_Simple_types@G@std@@@std@@@0@PB_WIUrandom_access_iterator_tag@0@@Z 00423fb0 f i cUndoBuffer.obj
 0001:00023050       ??$_Debug_range_ptr@PAGV?$_Vector_iterator@V?$_Vector_val@U?$_Simple_types@G@std@@@std@@@std@@@std@@YAXPAG0AAV?$_Vector_iterator@V?$_Vector_val@U?$_Simple_types@G@std@@@std@@@0@PB_WI@Z 00424050 f i cUndoBuffer.obj
 0001:000230b0       ??$_Is_checked@V?$_Vector_iterator@V?$_Vector_val@U?$_Simple_types@G@std@@@std@@@std@@@std@@YA?AU?$integral_constant@_N$00@0@V?$_Vector_iterator@V?$_Vector_val@U?$_Simple_types@G@std@@@std@@@0@@Z 004240b0 f i cUndoBuffer.obj
 0001:00023110       ??$_Pocca@U?$_Wrap_alloc@V?$allocator@G@std@@@std@@@std@@YAXAAU?$_Wrap_alloc@V?$allocator@G@std@@@0@ABU10@@Z 00424110 f i cUndoBuffer.obj
 0001:00023190       ??$_Pocca@U?$_Wrap_alloc@V?$allocator@G@std@@@std@@@std@@YAXAAU?$_Wrap_alloc@V?$allocator@G@std@@@0@ABU10@U?$integral_constant@_N$0A@@0@@Z 00424190 f i cUndoBuffer.obj
 0001:000231c0       ??$_Ptr_copy_cat@GG@std@@YA?AU_Really_trivial_ptr_iterator_tag@0@ABQAG0@Z 004241c0 f i cUndoBuffer.obj
 0001:000231f0       ??$_Rechecked@V?$_Vector_val@U?$_Simple_types@G@std@@@std@@@std@@YAAAV?$_Vector_iterator@V?$_Vector_val@U?$_Simple_types@G@std@@@std@@@0@AAV10@PAG@Z 004241f0 f i cUndoBuffer.obj
 0001:00023230       ??$_Ucopy@PAG@?$vector@GV?$allocator@G@std@@@std@@IAEPAGPAG00@Z 00424230 f i cUndoBuffer.obj
 0001:00023290       ??$_Uninitialized_copy@PAGPAGV?$allocator@G@std@@@std@@YAPAGPAG00AAU?$_Wrap_alloc@V?$allocator@G@std@@@0@@Z 00424290 f i cUndoBuffer.obj
 0001:00023310       ??$_Uninitialized_copy_al_unchecked1@GGV?$allocator@G@std@@@std@@YAPAGPAG00AAU?$_Wrap_alloc@V?$allocator@G@std@@@0@U_Really_trivial_ptr_iterator_tag@0@U?$integral_constant@_N$00@0@@Z 00424310 f i cUndoBuffer.obj
 0001:00023360       ??$_Uninitialized_copy_al_unchecked@PAGPAGV?$allocator@G@std@@@std@@YAPAGPAG00AAU?$_Wrap_alloc@V?$allocator@G@std@@@0@@Z 00424360 f i cUndoBuffer.obj
 0001:000233d0       ??$copy@PAGV?$_Vector_iterator@V?$_Vector_val@U?$_Simple_types@G@std@@@std@@@std@@@std@@YA?AV?$_Vector_iterator@V?$_Vector_val@U?$_Simple_types@G@std@@@std@@@0@PAG0V10@@Z 004243d0 f i cUndoBuffer.obj
 0001:000234e0       ??0cUndoBuffer@@QAE@XZ     004244e0 f   cUndoBuffer.obj
 0001:00023540       ??0sUndo@@QAE@XZ           00424540 f i cUndoBuffer.obj
 0001:00023590       ??1cUndoBuffer@@QAE@XZ     00424590 f   cUndoBuffer.obj
 0001:00023610       ??1sUndo@@QAE@XZ           00424610 f i cUndoBuffer.obj
 0001:00023660       ??4?$vector@GV?$allocator@G@std@@@std@@QAEAAV01@ABV01@@Z 00424660 f i cUndoBuffer.obj
 0001:00023930       ??H?$_Vector_iterator@V?$_Vector_val@U?$_Simple_types@G@std@@@std@@@std@@QBE?AV01@H@Z 00424930 f i cUndoBuffer.obj
 0001:00023a20       ??Y?$_Vector_const_iterator@V?$_Vector_val@U?$_Simple_types@G@std@@@std@@@std@@QAEAAV01@H@Z 00424a20 f i cUndoBuffer.obj
 0001:00023b20       ??Y?$_Vector_iterator@V?$_Vector_val@U?$_Simple_types@G@std@@@std@@@std@@QAEAAV01@H@Z 00424b20 f i cUndoBuffer.obj
 0001:00023b70       ?Set@cUndoBuffer@@QAEHKPAG@Z 00424b70 f   cUndoBuffer.obj
 0001:00023cd0       ?_Buy@?$vector@GV?$allocator@G@std@@@std@@IAE_NI@Z 00424cd0 f i cUndoBuffer.obj
 0001:00023db0       ?_Copy_alloc@?$_Vector_alloc@U?$_Vec_base_types@GV?$allocator@G@std@@@std@@@std@@QAEXABU?$_Wrap_alloc@V?$allocator@G@std@@@2@@Z 00424db0 f i cUndoBuffer.obj
 0001:00023e40       ?_Rechecked@?$_Vector_iterator@V?$_Vector_val@U?$_Simple_types@G@std@@@std@@@std@@QAEAAV12@PAG@Z 00424e40 f i cUndoBuffer.obj
 0001:00023e80       ?clear@?$vector@GV?$allocator@G@std@@@std@@QAEXXZ 00424e80 f i cUndoBuffer.obj
 0001:00023f20       ?empty@?$vector@GV?$allocator@G@std@@@std@@QBE_NXZ 00424f20 f i cUndoBuffer.obj
 0001:00023f90       ??A?$vector@HV?$allocator@H@std@@@std@@QAEAAHI@Z 00424f90 f i Door Connections.obj
 0001:00024050       ??A?$vector@VvDoor@@V?$allocator@VvDoor@@@std@@@std@@QAEAAVvDoor@@I@Z 00425050 f i Door Connections.obj
 0001:00024110       ?EnableConnections@@YAHXZ  00425110 f   Door Connections.obj
 0001:00024350       ?SetConnections@@YAHE@Z    00425350 f   Door Connections.obj
 0001:00024440       ?_Get_data@?$_Vector_alloc@U?$_Vec_base_types@HV?$allocator@H@std@@@std@@@std@@QAEAAV?$_Vector_val@U?$_Simple_types@H@std@@@2@XZ 00425440 f i Door Connections.obj
 0001:00024480       ?_Get_data@?$_Vector_alloc@U?$_Vec_base_types@HV?$allocator@H@std@@@std@@@std@@QBEABV?$_Vector_val@U?$_Simple_types@H@std@@@2@XZ 00425480 f i Door Connections.obj
 0001:000244c0       ?_Get_data@?$_Vector_alloc@U?$_Vec_base_types@VvDoor@@V?$allocator@VvDoor@@@std@@@std@@@std@@QAEAAV?$_Vector_val@U?$_Simple_types@VvDoor@@@std@@@2@XZ 004254c0 f i Door Connections.obj
 0001:00024500       ?_Get_data@?$_Vector_alloc@U?$_Vec_base_types@VvDoor@@V?$allocator@VvDoor@@@std@@@std@@@std@@QBEABV?$_Vector_val@U?$_Simple_types@VvDoor@@@std@@@2@XZ 00425500 f i Door Connections.obj
 0001:00024540       ?_Get_second@?$_Compressed_pair@U?$_Wrap_alloc@V?$allocator@H@std@@@std@@V?$_Vector_val@U?$_Simple_types@H@std@@@2@$00@std@@QAEAAV?$_Vector_val@U?$_Simple_types@H@std@@@2@XZ 00425540 f i Door Connections.obj
 0001:00024570       ?_Get_second@?$_Compressed_pair@U?$_Wrap_alloc@V?$allocator@H@std@@@std@@V?$_Vector_val@U?$_Simple_types@H@std@@@2@$00@std@@QBEABV?$_Vector_val@U?$_Simple_types@H@std@@@2@XZ 00425570 f i Door Connections.obj
 0001:000245a0       ?_Get_second@?$_Compressed_pair@U?$_Wrap_alloc@V?$allocator@VvDoor@@@std@@@std@@V?$_Vector_val@U?$_Simple_types@VvDoor@@@std@@@2@$00@std@@QAEAAV?$_Vector_val@U?$_Simple_types@VvDoor@@@std@@@2@XZ 004255a0 f i Door Connections.obj
 0001:000245d0       ?_Get_second@?$_Compressed_pair@U?$_Wrap_alloc@V?$allocator@VvDoor@@@std@@@std@@V?$_Vector_val@U?$_Simple_types@VvDoor@@@std@@@2@$00@std@@QBEABV?$_Vector_val@U?$_Simple_types@VvDoor@@@std@@@2@XZ 004255d0 f i Door Connections.obj
 0001:00024600       ?_Myfirst@?$_Vector_alloc@U?$_Vec_base_types@HV?$allocator@H@std@@@std@@@std@@QAEAAPAHXZ 00425600 f i Door Connections.obj
 0001:00024650       ?_Myfirst@?$_Vector_alloc@U?$_Vec_base_types@HV?$allocator@H@std@@@std@@@std@@QBEABQAHXZ 00425650 f i Door Connections.obj
 0001:000246a0       ?_Myfirst@?$_Vector_alloc@U?$_Vec_base_types@VvDoor@@V?$allocator@VvDoor@@@std@@@std@@@std@@QAEAAPAVvDoor@@XZ 004256a0 f i Door Connections.obj
 0001:000246f0       ?_Myfirst@?$_Vector_alloc@U?$_Vec_base_types@VvDoor@@V?$allocator@VvDoor@@@std@@@std@@@std@@QBEABQAVvDoor@@XZ 004256f0 f i Door Connections.obj
 0001:00024740       ?_Mylast@?$_Vector_alloc@U?$_Vec_base_types@HV?$allocator@H@std@@@std@@@std@@QBEABQAHXZ 00425740 f i Door Connections.obj
 0001:00024790       ?_Mylast@?$_Vector_alloc@U?$_Vec_base_types@VvDoor@@V?$allocator@VvDoor@@@std@@@std@@@std@@QBEABQAVvDoor@@XZ 00425790 f i Door Connections.obj
 0001:000247e0       ?size@?$vector@HV?$allocator@H@std@@@std@@QBEIXZ 004257e0 f i Door Connections.obj
 0001:00024840       ?size@?$vector@VvDoor@@V?$allocator@VvDoor@@@std@@@std@@QBEIXZ 00425840 f i Door Connections.obj
 0001:000248a0       ??$?0$$V@?$_Compressed_pair@U?$_Wrap_alloc@V?$allocator@H@std@@@std@@V?$_Vector_val@U?$_Simple_types@H@std@@@2@$00@std@@QAE@U_Zero_then_variadic_args_t@1@@Z 004258a0 f i DoorManager.obj
 0001:000248f0       ??$?0$$V@?$_Compressed_pair@U?$_Wrap_alloc@V?$allocator@VvDoor@@@std@@@std@@V?$_Vector_val@U?$_Simple_types@VvDoor@@@std@@@2@$00@std@@QAE@U_Zero_then_variadic_args_t@1@@Z 004258f0 f i DoorManager.obj
 0001:00024940       ??$?0AAU?$_Wrap_alloc@V?$allocator@H@std@@@std@@@?$_Wrap_alloc@V?$allocator@U_Container_proxy@std@@@std@@@std@@QAE@AAU?$_Wrap_alloc@V?$allocator@H@std@@@1@@Z 00425940 f i DoorManager.obj
 0001:000249a0       ??$?0AAU?$_Wrap_alloc@V?$allocator@VvDoor@@@std@@@std@@@?$_Wrap_alloc@V?$allocator@U_Container_proxy@std@@@std@@@std@@QAE@AAU?$_Wrap_alloc@V?$allocator@VvDoor@@@std@@@1@@Z 004259a0 f i DoorManager.obj
 0001:00024a00       ??$?0H@?$allocator@U_Container_proxy@std@@@std@@QAE@ABV?$allocator@H@1@@Z 00425a00 f i DoorManager.obj
 0001:00024a30       ??$?0U?$integral_constant@_N$00@std@@@_Any_tag@std@@QAE@$$QAU?$integral_constant@_N$00@1@@Z 00425a30 f i DoorManager.obj
 0001:00024a60       ??$?0VvDoor@@@?$allocator@U_Container_proxy@std@@@std@@QAE@ABV?$allocator@VvDoor@@@1@@Z 00425a60 f i DoorManager.obj
 0001:00024a90       ??$_Copy_memmove@PAHPAH@std@@YAPAHPAH00@Z 00425a90 f i DoorManager.obj
 0001:00024b00       ??$_Copy_memmove@PAVvDoor@@PAV1@@std@@YAPAVvDoor@@PAV1@00@Z 00425b00 f i DoorManager.obj
 0001:00024b70       ??$_Destroy_range1@V?$allocator@H@std@@PAH@std@@YAXPAH0AAU?$_Wrap_alloc@V?$allocator@H@std@@@0@U?$integral_constant@_N$00@0@@Z 00425b70 f i DoorManager.obj
 0001:00024ba0       ??$_Destroy_range1@V?$allocator@VvDoor@@@std@@PAVvDoor@@@std@@YAXPAVvDoor@@0AAU?$_Wrap_alloc@V?$allocator@VvDoor@@@std@@@0@U?$integral_constant@_N$00@0@@Z 00425ba0 f i DoorManager.obj
 0001:00024bd0       ??$_Destroy_range@V?$allocator@H@std@@PAH@std@@YAXPAH0AAU?$_Wrap_alloc@V?$allocator@H@std@@@0@@Z 00425bd0 f i DoorManager.obj
 0001:00024c20       ??$_Destroy_range@V?$allocator@VvDoor@@@std@@PAVvDoor@@@std@@YAXPAVvDoor@@0AAU?$_Wrap_alloc@V?$allocator@VvDoor@@@std@@@0@@Z 00425c20 f i DoorManager.obj
 0001:00024c70       ??$_Move_unchecked1@PAVvDoor@@PAV1@@std@@YAPAVvDoor@@PAV1@00U_Trivially_copyable_ptr_iterator_tag@0@@Z 00425c70 f i DoorManager.obj
 0001:00024cc0       ??$_Move_unchecked@PAVvDoor@@PAV1@@std@@YAPAVvDoor@@PAV1@00@Z 00425cc0 f i DoorManager.obj
 0001:00024d30       ??$_Ptr_move_cat@HH@std@@YA?AU_Really_trivial_ptr_iterator_tag@0@ABQAH0@Z 00425d30 f i DoorManager.obj
 0001:00024d60       ??$_Ptr_move_cat@VvDoor@@V1@@std@@YA?AU_Trivially_copyable_ptr_iterator_tag@0@ABQAVvDoor@@0@Z 00425d60 f i DoorManager.obj
 0001:00024d90       ??$_Rechecked@PAHPAH@std@@YAAAPAHAAPAHPAH@Z 00425d90 f i DoorManager.obj
 0001:00024dc0       ??$_Rechecked@PAVvDoor@@PAV1@@std@@YAAAPAVvDoor@@AAPAV1@PAV1@@Z 00425dc0 f i DoorManager.obj
 0001:00024df0       ??$_Umove@PAH@?$vector@HV?$allocator@H@std@@@std@@IAEPAHPAH00@Z 00425df0 f i DoorManager.obj
 0001:00024e50       ??$_Umove@PAVvDoor@@@?$vector@VvDoor@@V?$allocator@VvDoor@@@std@@@std@@IAEPAVvDoor@@PAV2@00@Z 00425e50 f i DoorManager.obj
 0001:00024eb0       ??$_Unchecked@PAH@std@@YAPAHPAH@Z 00425eb0 f i DoorManager.obj
 0001:00024ee0       ??$_Unchecked@PAVvDoor@@@std@@YAPAVvDoor@@PAV1@@Z 00425ee0 f i DoorManager.obj
 0001:00024f10       ??$_Unfancy@H@std@@YAPAHPAH@Z 00425f10 f i DoorManager.obj
 0001:00024f40       ??$_Unfancy@VvDoor@@@std@@YAPAVvDoor@@PAV1@@Z 00425f40 f i DoorManager.obj
 0001:00024f70       ??$_Uninitialized_move@PAHPAHV?$allocator@H@std@@@std@@YAPAHPAH00AAU?$_Wrap_alloc@V?$allocator@H@std@@@0@@Z 00425f70 f i DoorManager.obj
 0001:00024ff0       ??$_Uninitialized_move@PAVvDoor@@PAV1@V?$allocator@VvDoor@@@std@@@std@@YAPAVvDoor@@PAV1@00AAU?$_Wrap_alloc@V?$allocator@VvDoor@@@std@@@0@@Z 00425ff0 f i DoorManager.obj
 0001:00025070       ??$_Uninitialized_move_al_unchecked1@HHV?$allocator@H@std@@@std@@YAPAHPAH00AAU?$_Wrap_alloc@V?$allocator@H@std@@@0@U_Really_trivial_ptr_iterator_tag@0@U?$integral_constant@_N$00@0@@Z 00426070 f i DoorManager.obj
 0001:000250c0       ??$_Uninitialized_move_al_unchecked1@PAVvDoor@@PAV1@V?$allocator@VvDoor@@@std@@@std@@YAPAVvDoor@@PAV1@00AAU?$_Wrap_alloc@V?$allocator@VvDoor@@@std@@@0@U_General_ptr_iterator_tag@0@U_Any_tag@0@@Z 004260c0 f i DoorManager.obj
 0001:000251c0       ??$_Uninitialized_move_al_unchecked@PAHPAHV?$allocator@H@std@@@std@@YAPAHPAH00AAU?$_Wrap_alloc@V?$allocator@H@std@@@0@@Z 004261c0 f i DoorManager.obj
 0001:00025230       ??$_Uninitialized_move_al_unchecked@PAVvDoor@@PAV1@V?$allocator@VvDoor@@@std@@@std@@YAPAVvDoor@@PAV1@00AAU?$_Wrap_alloc@V?$allocator@VvDoor@@@std@@@0@@Z 00426230 f i DoorManager.obj
 0001:000252b0       ??$addressof@$$CBH@std@@YAPBHABH@Z 004262b0 f i DoorManager.obj
 0001:000252e0       ??$addressof@$$CBVvDoor@@@std@@YAPBVvDoor@@ABV1@@Z 004262e0 f i DoorManager.obj
 0001:00025310       ??$addressof@H@std@@YAPAHAAH@Z 00426310 f i DoorManager.obj
 0001:00025340       ??$addressof@VvDoor@@@std@@YAPAVvDoor@@AAV1@@Z 00426340 f i DoorManager.obj
 0001:00025370       ??$construct@HAAH@?$_Wrap_alloc@V?$allocator@H@std@@@std@@QAEXPAHAAH@Z 00426370 f i DoorManager.obj
 0001:000253d0       ??$construct@HAAH@?$allocator@H@std@@QAEXPAHAAH@Z 004263d0 f i DoorManager.obj
 0001:00025460       ??$construct@HAAH@?$allocator_traits@V?$allocator@H@std@@@std@@SAXAAV?$allocator@H@1@PAHAAH@Z 00426460 f i DoorManager.obj
 0001:000254b0       ??$construct@HABH@?$_Wrap_alloc@V?$allocator@H@std@@@std@@QAEXPAHABH@Z 004264b0 f i DoorManager.obj
 0001:00025510       ??$construct@HABH@?$allocator@H@std@@QAEXPAHABH@Z 00426510 f i DoorManager.obj
 0001:000255a0       ??$construct@HABH@?$allocator_traits@V?$allocator@H@std@@@std@@SAXAAV?$allocator@H@1@PAHABH@Z 004265a0 f i DoorManager.obj
 0001:000255f0       ??$construct@HH@?$_Wrap_alloc@V?$allocator@H@std@@@std@@QAEXPAH$$QAH@Z 004265f0 f i DoorManager.obj
 0001:00025650       ??$construct@HH@?$allocator@H@std@@QAEXPAH$$QAH@Z 00426650 f i DoorManager.obj
 0001:000256e0       ??$construct@HH@?$allocator_traits@V?$allocator@H@std@@@std@@SAXAAV?$allocator@H@1@PAH$$QAH@Z 004266e0 f i DoorManager.obj
 0001:00025730       ??$construct@VvDoor@@AAV1@@?$_Wrap_alloc@V?$allocator@VvDoor@@@std@@@std@@QAEXPAVvDoor@@AAV2@@Z 00426730 f i DoorManager.obj
 0001:00025790       ??$construct@VvDoor@@AAV1@@?$allocator@VvDoor@@@std@@QAEXPAVvDoor@@AAV2@@Z 00426790 f i DoorManager.obj
 0001:00025840       ??$construct@VvDoor@@AAV1@@?$allocator_traits@V?$allocator@VvDoor@@@std@@@std@@SAXAAV?$allocator@VvDoor@@@1@PAVvDoor@@AAV3@@Z 00426840 f i DoorManager.obj
 0001:00025890       ??$construct@VvDoor@@ABV1@@?$_Wrap_alloc@V?$allocator@VvDoor@@@std@@@std@@QAEXPAVvDoor@@ABV2@@Z 00426890 f i DoorManager.obj
 0001:000258f0       ??$construct@VvDoor@@ABV1@@?$allocator@VvDoor@@@std@@QAEXPAVvDoor@@ABV2@@Z 004268f0 f i DoorManager.obj
 0001:000259a0       ??$construct@VvDoor@@ABV1@@?$allocator_traits@V?$allocator@VvDoor@@@std@@@std@@SAXAAV?$allocator@VvDoor@@@1@PAVvDoor@@ABV3@@Z 004269a0 f i DoorManager.obj
 0001:000259f0       ??$construct@VvDoor@@V1@@?$_Wrap_alloc@V?$allocator@VvDoor@@@std@@@std@@QAEXPAVvDoor@@$$QAV2@@Z 004269f0 f i DoorManager.obj
 0001:00025a50       ??$construct@VvDoor@@V1@@?$allocator@VvDoor@@@std@@QAEXPAVvDoor@@$$QAV2@@Z 00426a50 f i DoorManager.obj
 0001:00025b00       ??$construct@VvDoor@@V1@@?$allocator_traits@V?$allocator@VvDoor@@@std@@@std@@SAXAAV?$allocator@VvDoor@@@1@PAVvDoor@@$$QAV3@@Z 00426b00 f i DoorManager.obj
 0001:00025b50       ??$forward@AAH@std@@YAAAHAAH@Z 00426b50 f i DoorManager.obj
 0001:00025b80       ??$forward@AAU?$_Wrap_alloc@V?$allocator@H@std@@@std@@@std@@YAAAU?$_Wrap_alloc@V?$allocator@H@std@@@0@AAU10@@Z 00426b80 f i DoorManager.obj
 0001:00025bb0       ??$forward@AAU?$_Wrap_alloc@V?$allocator@VvDoor@@@std@@@std@@@std@@YAAAU?$_Wrap_alloc@V?$allocator@VvDoor@@@std@@@0@AAU10@@Z 00426bb0 f i DoorManager.obj
 0001:00025be0       ??$forward@AAVvDoor@@@std@@YAAAVvDoor@@AAV1@@Z 00426be0 f i DoorManager.obj
 0001:00025c10       ??$forward@ABVvDoor@@@std@@YAABVvDoor@@ABV1@@Z 00426c10 f i DoorManager.obj
 0001:00025c40       ??$forward@VvDoor@@@std@@YA$$QAVvDoor@@AAV1@@Z 00426c40 f i DoorManager.obj
 0001:00025c70       ??$move@AAVvDoor@@@std@@YA$$QAVvDoor@@AAV1@@Z 00426c70 f i DoorManager.obj
 0001:00025ca0       ??0?$_Iterator012@Urandom_access_iterator_tag@std@@VvDoor@@HPBV3@ABV3@U_Iterator_base12@2@@std@@QAE@$$QAU01@@Z 00426ca0 f i DoorManager.obj
 0001:00025cf0       ??0?$_Iterator012@Urandom_access_iterator_tag@std@@VvDoor@@HPBV3@ABV3@U_Iterator_base12@2@@std@@QAE@ABU01@@Z 00426cf0 f i DoorManager.obj
 0001:00025d40       ??0?$_Iterator012@Urandom_access_iterator_tag@std@@VvDoor@@HPBV3@ABV3@U_Iterator_base12@2@@std@@QAE@XZ 00426d40 f i DoorManager.obj
 0001:00025d90       ??0?$_Vector_alloc@U?$_Vec_base_types@HV?$allocator@H@std@@@std@@@std@@QAE@XZ 00426d90 f i DoorManager.obj
 0001:00025e20       ??0?$_Vector_alloc@U?$_Vec_base_types@VvDoor@@V?$allocator@VvDoor@@@std@@@std@@@std@@QAE@XZ 00426e20 f i DoorManager.obj
 0001:00025eb0       ??0?$_Vector_const_iterator@V?$_Vector_val@U?$_Simple_types@VvDoor@@@std@@@std@@@std@@QAE@$$QAV01@@Z 00426eb0 f i DoorManager.obj
 0001:00025f10       ??0?$_Vector_const_iterator@V?$_Vector_val@U?$_Simple_types@VvDoor@@@std@@@std@@@std@@QAE@ABV01@@Z 00426f10 f i DoorManager.obj
 0001:00025f70       ??0?$_Vector_const_iterator@V?$_Vector_val@U?$_Simple_types@VvDoor@@@std@@@std@@@std@@QAE@PAVvDoor@@PBU_Container_base12@1@@Z 00426f70 f i DoorManager.obj
 0001:00026010       ??0?$_Vector_iterator@V?$_Vector_val@U?$_Simple_types@VvDoor@@@std@@@std@@@std@@QAE@ABV01@@Z 00427010 f i DoorManager.obj
 0001:00026060       ??0?$_Vector_iterator@V?$_Vector_val@U?$_Simple_types@VvDoor@@@std@@@std@@@std@@QAE@PAVvDoor@@PBU_Container_base12@1@@Z 00427060 f i DoorManager.obj
 0001:000260b0       ??0?$_Vector_val@U?$_Simple_types@H@std@@@std@@QAE@XZ 004270b0 f i DoorManager.obj
 0001:00026110       ??0?$_Vector_val@U?$_Simple_types@VvDoor@@@std@@@std@@QAE@XZ 00427110 f i DoorManager.obj
 0001:00026170       ??0?$_Wrap_alloc@V?$allocator@H@std@@@std@@QAE@XZ 00427170 f i DoorManager.obj
 0001:000261c0       ??0?$_Wrap_alloc@V?$allocator@VvDoor@@@std@@@std@@QAE@XZ 004271c0 f i DoorManager.obj
 0001:00026210       ??0?$allocator@H@std@@QAE@XZ 00427210 f i DoorManager.obj
 0001:00026240       ??0?$allocator@VvDoor@@@std@@QAE@XZ 00427240 f i DoorManager.obj
 0001:00026270       ??0?$vector@HV?$allocator@H@std@@@std@@QAE@XZ 00427270 f i DoorManager.obj
 0001:000262e0       ??0?$vector@VvDoor@@V?$allocator@VvDoor@@@std@@@std@@QAE@XZ 004272e0 f i DoorManager.obj
 0001:00026350       ??0DoorManager@@QAE@XZ     00427350 f   DoorManager.obj
 0001:000263c0       ??0vDoor@@QAE@UsDoor@@@Z   004273c0 f   DoorManager.obj
 0001:00026450       ??1?$_Compressed_pair@U?$_Wrap_alloc@V?$allocator@H@std@@@std@@V?$_Vector_val@U?$_Simple_types@H@std@@@2@$00@std@@QAE@XZ 00427450 f i DoorManager.obj
 0001:00026490       ??1?$_Compressed_pair@U?$_Wrap_alloc@V?$allocator@VvDoor@@@std@@@std@@V?$_Vector_val@U?$_Simple_types@VvDoor@@@std@@@2@$00@std@@QAE@XZ 00427490 f i DoorManager.obj
 0001:000264d0       ??1?$_Iterator012@Urandom_access_iterator_tag@std@@VvDoor@@HPBV3@ABV3@U_Iterator_base12@2@@std@@QAE@XZ 004274d0 f i DoorManager.obj
 0001:00026510       ??1?$_Vector_const_iterator@V?$_Vector_val@U?$_Simple_types@VvDoor@@@std@@@std@@@std@@QAE@XZ 00427510 f i DoorManager.obj
 0001:00026550       ??1?$_Vector_iterator@V?$_Vector_val@U?$_Simple_types@VvDoor@@@std@@@std@@@std@@QAE@XZ 00427550 f i DoorManager.obj
 0001:00026590       ??1?$_Vector_val@U?$_Simple_types@H@std@@@std@@QAE@XZ 00427590 f i DoorManager.obj
 0001:000265d0       ??1?$_Vector_val@U?$_Simple_types@VvDoor@@@std@@@std@@QAE@XZ 004275d0 f i DoorManager.obj
 0001:00026610       ??H?$_Vector_iterator@V?$_Vector_val@U?$_Simple_types@VvDoor@@@std@@@std@@@std@@QBE?AV01@H@Z 00427610 f i DoorManager.obj
 0001:00026700       ??Y?$_Vector_const_iterator@V?$_Vector_val@U?$_Simple_types@VvDoor@@@std@@@std@@@std@@QAEAAV01@H@Z 00427700 f i DoorManager.obj
 0001:00026800       ??Y?$_Vector_iterator@V?$_Vector_val@U?$_Simple_types@VvDoor@@@std@@@std@@@std@@QAEAAV01@H@Z 00427800 f i DoorManager.obj
 0001:00026850       ?AddDoor@DoorManager@@QAEHH@Z 00427850 f   DoorManager.obj
 0001:000269d0       ?ConnectDoor@DoorManager@@QAEHE@Z 004279d0 f   DoorManager.obj
 0001:00026c30       ?DC@BackBuffer@@QAEPAUHDC__@@XZ 00427c30 f i DoorManager.obj
 0001:00026c60       ?DeleteDoor@DoorManager@@QAEHHH@Z 00427c60 f   DoorManager.obj
 0001:00026da0       ?DisplayDoors@DoorManager@@QAEHE@Z 00427da0 f   DoorManager.obj
 0001:00027090       ?DoorNum@DoorManager@@QAEGXZ 00428090 f   DoorManager.obj
 0001:000270e0       ?GetAreaOffset@DoorManager@@QAEKH@Z 004280e0 f   DoorManager.obj
 0001:00027150       ?GetDoor@DoorManager@@QAEHHH@Z 00428150 f   DoorManager.obj
 0001:000272e0       ?GetDoorArray@DoorManager@@QAEHPAU_iobuf@@@Z 004282e0 f   DoorManager.obj
 0001:00027380       ?LoadDoors@DoorManager@@QAEHH@Z 00428380 f   DoorManager.obj
 0001:00027460       ?LoadThisDoor@DoorManager@@QAEHH@Z 00428460 f   DoorManager.obj
 0001:00027800       ?SaveDoorOffsets@DoorManager@@QAEHPAU_iobuf@@@Z 00428800 f   DoorManager.obj
 0001:000278a0       ?SaveDoors@DoorManager@@QAEHXZ 004288a0 f   DoorManager.obj
 0001:00027ba0       ?SetAreaOffset@DoorManager@@QAEKHH@Z 00428ba0 f   DoorManager.obj
 0001:00027c20       ?SetupDoors@DoorManager@@QAEHJ@Z 00428c20 f   DoorManager.obj
 0001:00027ef0       ?_Alloc_proxy@?$_Vector_alloc@U?$_Vec_base_types@HV?$allocator@H@std@@@std@@@std@@QAEXXZ 00428ef0 f i DoorManager.obj
 0001:00027fc0       ?_Alloc_proxy@?$_Vector_alloc@U?$_Vec_base_types@VvDoor@@V?$allocator@VvDoor@@@std@@@std@@@std@@QAEXXZ 00428fc0 f i DoorManager.obj
 0001:00028090       ?_Destroy@?$vector@HV?$allocator@H@std@@@std@@IAEXPAH0@Z 00429090 f i DoorManager.obj
 0001:000280f0       ?_Destroy@?$vector@VvDoor@@V?$allocator@VvDoor@@@std@@@std@@IAEXPAVvDoor@@0@Z 004290f0 f i DoorManager.obj
 0001:00028150       ?_Get_first@?$_Compressed_pair@U?$_Wrap_alloc@V?$allocator@H@std@@@std@@V?$_Vector_val@U?$_Simple_types@H@std@@@2@$00@std@@QAEAAU?$_Wrap_alloc@V?$allocator@H@std@@@2@XZ 00429150 f i DoorManager.obj
 0001:00028180       ?_Get_first@?$_Compressed_pair@U?$_Wrap_alloc@V?$allocator@H@std@@@std@@V?$_Vector_val@U?$_Simple_types@H@std@@@2@$00@std@@QBEABU?$_Wrap_alloc@V?$allocator@H@std@@@2@XZ 00429180 f i DoorManager.obj
 0001:000281b0       ?_Get_first@?$_Compressed_pair@U?$_Wrap_alloc@V?$allocator@VvDoor@@@std@@@std@@V?$_Vector_val@U?$_Simple_types@VvDoor@@@std@@@2@$00@std@@QAEAAU?$_Wrap_alloc@V?$allocator@VvDoor@@@std@@@2@XZ 004291b0 f i DoorManager.obj
 0001:000281e0       ?_Get_first@?$_Compressed_pair@U?$_Wrap_alloc@V?$allocator@VvDoor@@@std@@@std@@V?$_Vector_val@U?$_Simple_types@VvDoor@@@std@@@2@$00@std@@QBEABU?$_Wrap_alloc@V?$allocator@VvDoor@@@std@@@2@XZ 004291e0 f i DoorManager.obj
 0001:00028210       ?_Getal@?$_Vector_alloc@U?$_Vec_base_types@HV?$allocator@H@std@@@std@@@std@@QAEAAU?$_Wrap_alloc@V?$allocator@H@std@@@2@XZ 00429210 f i DoorManager.obj
 0001:00028250       ?_Getal@?$_Vector_alloc@U?$_Vec_base_types@HV?$allocator@H@std@@@std@@@std@@QBEABU?$_Wrap_alloc@V?$allocator@H@std@@@2@XZ 00429250 f i DoorManager.obj
 0001:00028290       ?_Getal@?$_Vector_alloc@U?$_Vec_base_types@VvDoor@@V?$allocator@VvDoor@@@std@@@std@@@std@@QAEAAU?$_Wrap_alloc@V?$allocator@VvDoor@@@std@@@2@XZ 00429290 f i DoorManager.obj
 0001:000282d0       ?_Getal@?$_Vector_alloc@U?$_Vec_base_types@VvDoor@@V?$allocator@VvDoor@@@std@@@std@@@std@@QBEABU?$_Wrap_alloc@V?$allocator@VvDoor@@@std@@@2@XZ 004292d0 f i DoorManager.obj
 0001:00028310       ?_Getpfirst@?$_Vector_alloc@U?$_Vec_base_types@HV?$allocator@H@std@@@std@@@std@@QBEPAPAU_Iterator_base12@2@XZ 00429310 f i DoorManager.obj
 0001:00028360       ?_Getpfirst@?$_Vector_alloc@U?$_Vec_base_types@VvDoor@@V?$allocator@VvDoor@@@std@@@std@@@std@@QBEPAPAU_Iterator_base12@2@XZ 00429360 f i DoorManager.obj
 0001:000283b0       ?_Grow_to@?$vector@HV?$allocator@H@std@@@std@@IBEII@Z 004293b0 f i DoorManager.obj
 0001:00028440       ?_Grow_to@?$vector@VvDoor@@V?$allocator@VvDoor@@@std@@@std@@IBEII@Z 00429440 f i DoorManager.obj
 0001:000284d0       ?_Inside@?$vector@HV?$allocator@H@std@@@std@@IBE_NPBH@Z 004294d0 f i DoorManager.obj
 0001:00028560       ?_Inside@?$vector@VvDoor@@V?$allocator@VvDoor@@@std@@@std@@IBE_NPBVvDoor@@@Z 00429560 f i DoorManager.obj
 0001:000285f0       ?_Make_iter@?$vector@VvDoor@@V?$allocator@VvDoor@@@std@@@std@@QBE?AV?$_Vector_iterator@V?$_Vector_val@U?$_Simple_types@VvDoor@@@std@@@std@@@2@V?$_Vector_const_iterator@V?$_Vector_val@U?$_Simple_types@VvDoor@@@std@@@std@@@2@@Z 004295f0 f i DoorManager.obj
 0001:000286a0       ?_Myend@?$_Vector_alloc@U?$_Vec_base_types@HV?$allocator@H@std@@@std@@@std@@QAEAAPAHXZ 004296a0 f i DoorManager.obj
 0001:000286f0       ?_Myend@?$_Vector_alloc@U?$_Vec_base_types@HV?$allocator@H@std@@@std@@@std@@QBEABQAHXZ 004296f0 f i DoorManager.obj
 0001:00028740       ?_Myend@?$_Vector_alloc@U?$_Vec_base_types@VvDoor@@V?$allocator@VvDoor@@@std@@@std@@@std@@QAEAAPAVvDoor@@XZ 00429740 f i DoorManager.obj
 0001:00028790       ?_Myend@?$_Vector_alloc@U?$_Vec_base_types@VvDoor@@V?$allocator@VvDoor@@@std@@@std@@@std@@QBEABQAVvDoor@@XZ 00429790 f i DoorManager.obj
 0001:000287e0       ?_Mylast@?$_Vector_alloc@U?$_Vec_base_types@HV?$allocator@H@std@@@std@@@std@@QAEAAPAHXZ 004297e0 f i DoorManager.obj
 0001:00028830       ?_Mylast@?$_Vector_alloc@U?$_Vec_base_types@VvDoor@@V?$allocator@VvDoor@@@std@@@std@@@std@@QAEAAPAVvDoor@@XZ 00429830 f i DoorManager.obj
 0001:00028880       ?_Myproxy@?$_Vector_alloc@U?$_Vec_base_types@HV?$allocator@H@std@@@std@@@std@@QAEAAPAU_Container_proxy@2@XZ 00429880 f i DoorManager.obj
 0001:000288c0       ?_Myproxy@?$_Vector_alloc@U?$_Vec_base_types@VvDoor@@V?$allocator@VvDoor@@@std@@@std@@@std@@QAEAAPAU_Container_proxy@2@XZ 004298c0 f i DoorManager.obj
 0001:00028900       ?_Orphan_all@?$_Vector_alloc@U?$_Vec_base_types@HV?$allocator@H@std@@@std@@@std@@QAEXXZ 00429900 f i DoorManager.obj
 0001:00028950       ?_Orphan_all@?$_Vector_alloc@U?$_Vec_base_types@VvDoor@@V?$allocator@VvDoor@@@std@@@std@@@std@@QAEXXZ 00429950 f i DoorManager.obj
 0001:000289a0       ?_Orphan_range@?$vector@HV?$allocator@H@std@@@std@@IBEXPAH0@Z 004299a0 f i DoorManager.obj
 0001:00028ab0       ?_Orphan_range@?$vector@VvDoor@@V?$allocator@VvDoor@@@std@@@std@@IBEXPAVvDoor@@0@Z 00429ab0 f i DoorManager.obj
 0001:00028bc0       ?_Reallocate@?$vector@HV?$allocator@H@std@@@std@@IAEXI@Z 00429bc0 f i DoorManager.obj
 0001:00028d50       ?_Reallocate@?$vector@VvDoor@@V?$allocator@VvDoor@@@std@@@std@@IAEXI@Z 00429d50 f i DoorManager.obj
 0001:00028ee0       ?_Reserve@?$vector@HV?$allocator@H@std@@@std@@IAEXI@Z 00429ee0 f i DoorManager.obj
 0001:00028f70       ?_Reserve@?$vector@VvDoor@@V?$allocator@VvDoor@@@std@@@std@@IAEXI@Z 00429f70 f i DoorManager.obj
 0001:00029000       ?_Unused_capacity@?$vector@HV?$allocator@H@std@@@std@@QBEIXZ 0042a000 f i DoorManager.obj
 0001:00029060       ?_Unused_capacity@?$vector@VvDoor@@V?$allocator@VvDoor@@@std@@@std@@QBEIXZ 0042a060 f i DoorManager.obj
 0001:000290c0       ?_Xlen@?$vector@HV?$allocator@H@std@@@std@@IBEXXZ 0042a0c0 f i DoorManager.obj
 0001:00029110       ?_Xlen@?$vector@VvDoor@@V?$allocator@VvDoor@@@std@@@std@@IBEXXZ 0042a110 f i DoorManager.obj
 0001:00029160       ?allocate@?$_Wrap_alloc@V?$allocator@H@std@@@std@@QAEPAHI@Z 0042a160 f i DoorManager.obj
 0001:000291b0       ?allocate@?$_Wrap_alloc@V?$allocator@VvDoor@@@std@@@std@@QAEPAVvDoor@@I@Z 0042a1b0 f i DoorManager.obj
 0001:00029200       ?allocate@?$allocator@H@std@@QAEPAHI@Z 0042a200 f i DoorManager.obj
 0001:00029250       ?allocate@?$allocator@VvDoor@@@std@@QAEPAVvDoor@@I@Z 0042a250 f i DoorManager.obj
 0001:000292a0       ?begin@?$vector@VvDoor@@V?$allocator@VvDoor@@@std@@@std@@QAE?AV?$_Vector_iterator@V?$_Vector_val@U?$_Simple_types@VvDoor@@@std@@@std@@@2@XZ 0042a2a0 f i DoorManager.obj
 0001:00029330       ?capacity@?$vector@HV?$allocator@H@std@@@std@@QBEIXZ 0042a330 f i DoorManager.obj
 0001:00029390       ?capacity@?$vector@VvDoor@@V?$allocator@VvDoor@@@std@@@std@@QBEIXZ 0042a390 f i DoorManager.obj
 0001:000293f0       ?clear@?$vector@HV?$allocator@H@std@@@std@@QAEXXZ 0042a3f0 f i DoorManager.obj
 0001:00029490       ?clear@?$vector@VvDoor@@V?$allocator@VvDoor@@@std@@@std@@QAEXXZ 0042a490 f i DoorManager.obj
 0001:00029530       ?deallocate@?$_Wrap_alloc@V?$allocator@H@std@@@std@@QAEXPAHI@Z 0042a530 f i DoorManager.obj
 0001:00029580       ?deallocate@?$_Wrap_alloc@V?$allocator@VvDoor@@@std@@@std@@QAEXPAVvDoor@@I@Z 0042a580 f i DoorManager.obj
 0001:000295d0       ?deallocate@?$allocator@H@std@@QAEXPAHI@Z 0042a5d0 f i DoorManager.obj
 0001:00029620       ?deallocate@?$allocator@VvDoor@@@std@@QAEXPAVvDoor@@I@Z 0042a620 f i DoorManager.obj
 0001:00029670       ?erase@?$vector@VvDoor@@V?$allocator@VvDoor@@@std@@@std@@QAE?AV?$_Vector_iterator@V?$_Vector_val@U?$_Simple_types@VvDoor@@@std@@@std@@@2@V?$_Vector_const_iterator@V?$_Vector_val@U?$_Simple_types@VvDoor@@@std@@@std@@@2@@Z 0042a670 f i DoorManager.obj
 0001:00029800       ?max_size@?$_Wrap_alloc@V?$allocator@H@std@@@std@@QBEIU_Nil@2@@Z 0042a800 f i DoorManager.obj
 0001:00029850       ?max_size@?$_Wrap_alloc@V?$allocator@VvDoor@@@std@@@std@@QBEIU_Nil@2@@Z 0042a850 f i DoorManager.obj
 0001:000298a0       ?max_size@?$allocator@H@std@@QBEIXZ 0042a8a0 f i DoorManager.obj
 0001:000298d0       ?max_size@?$allocator@VvDoor@@@std@@QBEIXZ 0042a8d0 f i DoorManager.obj
 0001:00029900       ?max_size@?$allocator_traits@V?$allocator@H@std@@@std@@SAIABV?$allocator@H@2@@Z 0042a900 f i DoorManager.obj
 0001:00029940       ?max_size@?$allocator_traits@V?$allocator@VvDoor@@@std@@@std@@SAIABV?$allocator@VvDoor@@@2@@Z 0042a940 f i DoorManager.obj
 0001:00029980       ?max_size@?$vector@HV?$allocator@H@std@@@std@@QBEIXZ 0042a980 f i DoorManager.obj
 0001:000299d0       ?max_size@?$vector@VvDoor@@V?$allocator@VvDoor@@@std@@@std@@QBEIXZ 0042a9d0 f i DoorManager.obj
 0001:00029a20       ?push_back@?$vector@HV?$allocator@H@std@@@std@@QAEX$$QAH@Z 0042aa20 f i DoorManager.obj
 0001:00029be0       ?push_back@?$vector@HV?$allocator@H@std@@@std@@QAEXABH@Z 0042abe0 f i DoorManager.obj
 0001:00029d90       ?push_back@?$vector@VvDoor@@V?$allocator@VvDoor@@@std@@@std@@QAEX$$QAVvDoor@@@Z 0042ad90 f i DoorManager.obj
 0001:00029f50       ?push_back@?$vector@VvDoor@@V?$allocator@VvDoor@@@std@@@std@@QAEXABVvDoor@@@Z 0042af50 f i DoorManager.obj
 0001:0002a100       ??0cEntityManager@@QAE@XZ  0042b100 f   cEnitityManager.obj
 0001:0002a1a0       ?LoadPal@cEntityManager@@QAEHPAUPalData@@PAUsprite_entry@@PAJ@Z 0042b1a0 f   cEnitityManager.obj
 0001:0002a570       ?LoadSet@cEntityManager@@QAEHPAUGFXData@@PAUPalData@@PAUsprite_entry@@E@Z 0042b570 f   cEnitityManager.obj
 0001:0002a9d0       ?MFLoadSet@cEntityManager@@QAEHPAUGFXData@@PAUPalData@@PAUsprite_entry@@E@Z 0042b9d0 f   cEnitityManager.obj
 0001:0002adf0       ??$?0$$V@?$_Compressed_pair@U?$_Wrap_alloc@V?$allocator@PAVFrame@@@std@@@std@@V?$_Vector_val@U?$_Simple_types@PAVFrame@@@std@@@2@$00@std@@QAE@U_Zero_then_variadic_args_t@1@@Z 0042bdf0 f i FrameManager.obj
 0001:0002ae40       ??$_Copy_memmove@PAPAVFrame@@PAPAV1@@std@@YAPAPAVFrame@@PAPAV1@00@Z 0042be40 f i FrameManager.obj
 0001:0002aeb0       ??$_Move_unchecked1@PAPAVFrame@@PAPAV1@@std@@YAPAPAVFrame@@PAPAV1@00U_Trivially_copyable_ptr_iterator_tag@0@@Z 0042beb0 f i FrameManager.obj
 0001:0002af00       ??$_Move_unchecked@PAPAVFrame@@PAPAV1@@std@@YAPAPAVFrame@@PAPAV1@00@Z 0042bf00 f i FrameManager.obj
 0001:0002af70       ??$_Ptr_move_cat@PAVFrame@@PAV1@@std@@YA?AU_Really_trivial_ptr_iterator_tag@0@ABQAPAVFrame@@0@Z 0042bf70 f i FrameManager.obj
 0001:0002afa0       ??$_Rechecked@PAPAVFrame@@PAPAV1@@std@@YAAAPAPAVFrame@@AAPAPAV1@PAPAV1@@Z 0042bfa0 f i FrameManager.obj
 0001:0002afd0       ??$_Umove@PAPAVFrame@@@?$vector@PAVFrame@@V?$allocator@PAVFrame@@@std@@@std@@IAEPAPAVFrame@@PAPAV2@00@Z 0042bfd0 f i FrameManager.obj
 0001:0002b030       ??$_Unchecked@PAPAVFrame@@@std@@YAPAPAVFrame@@PAPAV1@@Z 0042c030 f i FrameManager.obj
 0001:0002b060       ??$_Unfancy@PAVFrame@@@std@@YAPAPAVFrame@@PAPAV1@@Z 0042c060 f i FrameManager.obj
 0001:0002b090       ??$_Uninitialized_move@PAPAVFrame@@PAPAV1@V?$allocator@PAVFrame@@@std@@@std@@YAPAPAVFrame@@PAPAV1@00AAU?$_Wrap_alloc@V?$allocator@PAVFrame@@@std@@@0@@Z 0042c090 f i FrameManager.obj
 0001:0002b110       ??$_Uninitialized_move_al_unchecked1@PAVFrame@@PAV1@V?$allocator@PAVFrame@@@std@@@std@@YAPAPAVFrame@@PAPAV1@00AAU?$_Wrap_alloc@V?$allocator@PAVFrame@@@std@@@0@U_Really_trivial_ptr_iterator_tag@0@U?$integral_constant@_N$00@0@@Z 0042c110 f i FrameManager.obj
 0001:0002b160       ??$_Uninitialized_move_al_unchecked@PAPAVFrame@@PAPAV1@V?$allocator@PAVFrame@@@std@@@std@@YAPAPAVFrame@@PAPAV1@00AAU?$_Wrap_alloc@V?$allocator@PAVFrame@@@std@@@0@@Z 0042c160 f i FrameManager.obj
 0001:0002b1d0       ??$addressof@QAVFrame@@@std@@YAPBQAVFrame@@ABQAV1@@Z 0042c1d0 f i FrameManager.obj
 0001:0002b200       ??$construct@PAVFrame@@AAPAV1@@?$_Wrap_alloc@V?$allocator@PAVFrame@@@std@@@std@@QAEXPAPAVFrame@@AAPAV2@@Z 0042c200 f i FrameManager.obj
 0001:0002b260       ??$construct@PAVFrame@@AAPAV1@@?$allocator@PAVFrame@@@std@@QAEXPAPAVFrame@@AAPAV2@@Z 0042c260 f i FrameManager.obj
 0001:0002b2f0       ??$construct@PAVFrame@@AAPAV1@@?$allocator_traits@V?$allocator@PAVFrame@@@std@@@std@@SAXAAV?$allocator@PAVFrame@@@1@PAPAVFrame@@AAPAV3@@Z 0042c2f0 f i FrameManager.obj
 0001:0002b340       ??$construct@PAVFrame@@ABQAV1@@?$_Wrap_alloc@V?$allocator@PAVFrame@@@std@@@std@@QAEXPAPAVFrame@@ABQAV2@@Z 0042c340 f i FrameManager.obj
 0001:0002b3a0       ??$construct@PAVFrame@@ABQAV1@@?$allocator@PAVFrame@@@std@@QAEXPAPAVFrame@@ABQAV2@@Z 0042c3a0 f i FrameManager.obj
 0001:0002b430       ??$construct@PAVFrame@@ABQAV1@@?$allocator_traits@V?$allocator@PAVFrame@@@std@@@std@@SAXAAV?$allocator@PAVFrame@@@1@PAPAVFrame@@ABQAV3@@Z 0042c430 f i FrameManager.obj
 0001:0002b480       ??$forward@AAPAVFrame@@@std@@YAAAPAVFrame@@AAPAV1@@Z 0042c480 f i FrameManager.obj
 0001:0002b4b0       ??$forward@ABQAVFrame@@@std@@YAABQAVFrame@@ABQAV1@@Z 0042c4b0 f i FrameManager.obj
 0001:0002b4e0       ??0?$_Iterator012@Urandom_access_iterator_tag@std@@PAVFrame@@HPBQAV3@ABQAV3@U_Iterator_base12@2@@std@@QAE@ABU01@@Z 0042c4e0 f i FrameManager.obj
 0001:0002b530       ??0?$_Vector_alloc@U?$_Vec_base_types@PAVFrame@@V?$allocator@PAVFrame@@@std@@@std@@@std@@QAE@XZ 0042c530 f i FrameManager.obj
 0001:0002b5c0       ??0?$_Vector_const_iterator@V?$_Vector_val@U?$_Simple_types@PAVFrame@@@std@@@std@@@std@@QAE@ABV01@@Z 0042c5c0 f i FrameManager.obj
 0001:0002b620       ??0?$_Vector_iterator@V?$_Vector_val@U?$_Simple_types@PAVFrame@@@std@@@std@@@std@@QAE@ABV01@@Z 0042c620 f i FrameManager.obj
 0001:0002b670       ??0?$_Vector_val@U?$_Simple_types@PAVFrame@@@std@@@std@@QAE@XZ 0042c670 f i FrameManager.obj
 0001:0002b6d0       ??0?$_Wrap_alloc@V?$allocator@PAVFrame@@@std@@@std@@QAE@XZ 0042c6d0 f i FrameManager.obj
 0001:0002b720       ??0?$allocator@PAVFrame@@@std@@QAE@XZ 0042c720 f i FrameManager.obj
 0001:0002b750       ??0?$vector@PAVFrame@@V?$allocator@PAVFrame@@@std@@@std@@QAE@XZ 0042c750 f i FrameManager.obj
 0001:0002b7c0       ??0FrameManager@@QAE@KPAU_iobuf@@HH@Z 0042c7c0 f   FrameManager.obj
 0001:0002b8c0       ??0FrameManager@@QAE@KPAU_iobuf@@HHPAEPAJ@Z 0042c8c0 f   FrameManager.obj
 0001:0002b9c0       ??D?$_Vector_iterator@V?$_Vector_val@U?$_Simple_types@PAVFrame@@@std@@@std@@@std@@QBEAAPAVFrame@@XZ 0042c9c0 f i FrameManager.obj
 0001:0002ba00       ??H?$_Vector_iterator@V?$_Vector_val@U?$_Simple_types@PAVFrame@@@std@@@std@@@std@@QBE?AV01@H@Z 0042ca00 f i FrameManager.obj
 0001:0002baf0       ??Y?$_Vector_const_iterator@V?$_Vector_val@U?$_Simple_types@PAVFrame@@@std@@@std@@@std@@QAEAAV01@H@Z 0042caf0 f i FrameManager.obj
 0001:0002bbf0       ??Y?$_Vector_iterator@V?$_Vector_val@U?$_Simple_types@PAVFrame@@@std@@@std@@@std@@QAEAAV01@H@Z 0042cbf0 f i FrameManager.obj
 0001:0002bc40       ??_GFrame@@QAEPAXI@Z       0042cc40 f i FrameManager.obj
 0001:0002bca0       ?AddFrame@FrameManager@@QAEXPAVFrame@@H@Z 0042cca0 f   FrameManager.obj
 0001:0002c080       ?Animate@FrameManager@@QAE_NPAVBackBuffer@@@Z 0042d080 f   FrameManager.obj
 0001:0002c180       ?DeleteFrame@FrameManager@@QAEHH@Z 0042d180 f   FrameManager.obj
 0001:0002c2b0       ?GetAnimatedFrame@FrameManager@@QAEPAVFrame@@XZ 0042d2b0 f   FrameManager.obj
 0001:0002c2f0       ?GetBitField@cOAMEdit@@SAHJJJ@Z 0042d2f0 f i FrameManager.obj
 0001:0002c340       ?GetStaticFrame@FrameManager@@QAEPAVFrame@@XZ 0042d340 f   FrameManager.obj
 0001:0002c410       ?LoadFrames@FrameManager@@QAEXKPAU_iobuf@@HH@Z 0042d410 f   FrameManager.obj
 0001:0002c650       ?LoadFrames@FrameManager@@QAEXKPAU_iobuf@@HHPAEPAJ@Z 0042d650 f   FrameManager.obj
 0001:0002c880       ?Save@FrameManager@@QAEXW4SaveOptions@@PAXH@Z 0042d880 f   FrameManager.obj
 0001:0002c940       ?SetStaticFrame@FrameManager@@QAEXH@Z 0042d940 f   FrameManager.obj
 0001:0002c9b0       ?UpdateSprite@FrameManager@@QAEHHHGGCHH_N0H@Z 0042d9b0 f   FrameManager.obj
 0001:0002cd80       ?_Alloc_proxy@?$_Vector_alloc@U?$_Vec_base_types@PAVFrame@@V?$allocator@PAVFrame@@@std@@@std@@@std@@QAEXXZ 0042dd80 f i FrameManager.obj
 0001:0002ce50       ?_Get_first@?$_Compressed_pair@U?$_Wrap_alloc@V?$allocator@PAVFrame@@@std@@@std@@V?$_Vector_val@U?$_Simple_types@PAVFrame@@@std@@@2@$00@std@@QBEABU?$_Wrap_alloc@V?$allocator@PAVFrame@@@std@@@2@XZ 0042de50 f i FrameManager.obj
 0001:0002ce80       ?_Getal@?$_Vector_alloc@U?$_Vec_base_types@PAVFrame@@V?$allocator@PAVFrame@@@std@@@std@@@std@@QBEABU?$_Wrap_alloc@V?$allocator@PAVFrame@@@std@@@2@XZ 0042de80 f i FrameManager.obj
 0001:0002cec0       ?_Getpfirst@?$_Vector_alloc@U?$_Vec_base_types@PAVFrame@@V?$allocator@PAVFrame@@@std@@@std@@@std@@QBEPAPAU_Iterator_base12@2@XZ 0042dec0 f i FrameManager.obj
 0001:0002cf10       ?_Grow_to@?$vector@PAVFrame@@V?$allocator@PAVFrame@@@std@@@std@@IBEII@Z 0042df10 f i FrameManager.obj
 0001:0002cfa0       ?_Inside@?$vector@PAVFrame@@V?$allocator@PAVFrame@@@std@@@std@@IBE_NPBQAVFrame@@@Z 0042dfa0 f i FrameManager.obj
 0001:0002d030       ?_Make_iter@?$vector@PAVFrame@@V?$allocator@PAVFrame@@@std@@@std@@QBE?AV?$_Vector_iterator@V?$_Vector_val@U?$_Simple_types@PAVFrame@@@std@@@std@@@2@V?$_Vector_const_iterator@V?$_Vector_val@U?$_Simple_types@PAVFrame@@@std@@@std@@@2@@Z 0042e030 f i FrameManager.obj
 0001:0002d0e0       ?_Myend@?$_Vector_alloc@U?$_Vec_base_types@PAVFrame@@V?$allocator@PAVFrame@@@std@@@std@@@std@@QBEABQAPAVFrame@@XZ 0042e0e0 f i FrameManager.obj
 0001:0002d130       ?_Orphan_range@?$vector@PAVFrame@@V?$allocator@PAVFrame@@@std@@@std@@IBEXPAPAVFrame@@0@Z 0042e130 f i FrameManager.obj
 0001:0002d240       ?_Reallocate@?$vector@PAVFrame@@V?$allocator@PAVFrame@@@std@@@std@@IAEXI@Z 0042e240 f i FrameManager.obj
 0001:0002d3d0       ?_Reserve@?$vector@PAVFrame@@V?$allocator@PAVFrame@@@std@@@std@@IAEXI@Z 0042e3d0 f i FrameManager.obj
 0001:0002d460       ?_Unused_capacity@?$vector@PAVFrame@@V?$allocator@PAVFrame@@@std@@@std@@QBEIXZ 0042e460 f i FrameManager.obj
 0001:0002d4c0       ?_Xlen@?$vector@PAVFrame@@V?$allocator@PAVFrame@@@std@@@std@@IBEXXZ 0042e4c0 f i FrameManager.obj
 0001:0002d510       ?_Xran@?$vector@PAVFrame@@V?$allocator@PAVFrame@@@std@@@std@@IBEXXZ 0042e510 f i FrameManager.obj
 0001:0002d560       ?allocate@?$_Wrap_alloc@V?$allocator@PAVFrame@@@std@@@std@@QAEPAPAVFrame@@I@Z 0042e560 f i FrameManager.obj
 0001:0002d5b0       ?allocate@?$allocator@PAVFrame@@@std@@QAEPAPAVFrame@@I@Z 0042e5b0 f i FrameManager.obj
 0001:0002d600       ?at@?$vector@PAVFrame@@V?$allocator@PAVFrame@@@std@@@std@@QAEAAPAVFrame@@I@Z 0042e600 f i FrameManager.obj
 0001:0002d660       ?capacity@?$vector@PAVFrame@@V?$allocator@PAVFrame@@@std@@@std@@QBEIXZ 0042e660 f i FrameManager.obj
 0001:0002d6c0       ?clear@?$vector@PAVFrame@@V?$allocator@PAVFrame@@@std@@@std@@QAEXXZ 0042e6c0 f i FrameManager.obj
 0001:0002d760       ?erase@?$vector@PAVFrame@@V?$allocator@PAVFrame@@@std@@@std@@QAE?AV?$_Vector_iterator@V?$_Vector_val@U?$_Simple_types@PAVFrame@@@std@@@std@@@2@V?$_Vector_const_iterator@V?$_Vector_val@U?$_Simple_types@PAVFrame@@@std@@@std@@@2@@Z 0042e760 f i FrameManager.obj
 0001:0002d8f0       ?front@?$vector@PAVFrame@@V?$allocator@PAVFrame@@@std@@@std@@QAEAAPAVFrame@@XZ 0042e8f0 f i FrameManager.obj
 0001:0002d9b0       ?max_size@?$_Wrap_alloc@V?$allocator@PAVFrame@@@std@@@std@@QBEIU_Nil@2@@Z 0042e9b0 f i FrameManager.obj
 0001:0002da00       ?max_size@?$allocator@PAVFrame@@@std@@QBEIXZ 0042ea00 f i FrameManager.obj
 0001:0002da30       ?max_size@?$allocator_traits@V?$allocator@PAVFrame@@@std@@@std@@SAIABV?$allocator@PAVFrame@@@2@@Z 0042ea30 f i FrameManager.obj
 0001:0002da70       ?max_size@?$vector@PAVFrame@@V?$allocator@PAVFrame@@@std@@@std@@QBEIXZ 0042ea70 f i FrameManager.obj
 0001:0002dac0       ?maxframe@FrameManager@@QAEHXZ 0042eac0 f   FrameManager.obj
 0001:0002db00       ?push_back@?$vector@PAVFrame@@V?$allocator@PAVFrame@@@std@@@std@@QAEXABQAVFrame@@@Z 0042eb00 f i FrameManager.obj
 0001:0002dcb0       ??$_Move_unchecked1@PAUOverAllOAM@@PAU1@@std@@YAPAUOverAllOAM@@PAU1@00U_Trivially_copyable_ptr_iterator_tag@0@@Z 0042ecb0 f i Frames.obj
 0001:0002dd00       ??$_Move_unchecked@PAUOverAllOAM@@PAU1@@std@@YAPAUOverAllOAM@@PAU1@00@Z 0042ed00 f i Frames.obj
 0001:0002dd70       ??0Frame@@QAE@HH@Z         0042ed70 f   Frames.obj
 0001:0002def0       ??0Frame@@QAE@KPAU_iobuf@@HHPAEPAJ@Z 0042eef0 f   Frames.obj
 0001:0002e020       ??0Frame@@QAE@XZ           0042f020 f   Frames.obj
 0001:0002e0e0       ??1Frame@@QAE@XZ           0042f0e0 f   Frames.obj
 0001:0002e110       ?AddPart@Frame@@QAEXPAUEncodedOAM@@@Z 0042f110 f   Frames.obj
 0001:0002e220       ?DeletePart@Frame@@QAEHH@Z 0042f220 f   Frames.obj
 0001:0002e380       ?Update@Frame@@QAEXXZ      0042f380 f   Frames.obj
 0001:0002e3b0       ?_Make_iter@?$vector@UOverAllOAM@@V?$allocator@UOverAllOAM@@@std@@@std@@QBE?AV?$_Vector_iterator@V?$_Vector_val@U?$_Simple_types@UOverAllOAM@@@std@@@std@@@2@V?$_Vector_const_iterator@V?$_Vector_val@U?$_Simple_types@UOverAllOAM@@@std@@@std@@@2@@Z 0042f3b0 f i Frames.obj
 0001:0002e460       ?erase@?$vector@UOverAllOAM@@V?$allocator@UOverAllOAM@@@std@@@std@@QAE?AV?$_Vector_iterator@V?$_Vector_val@U?$_Simple_types@UOverAllOAM@@@std@@@std@@@2@V?$_Vector_const_iterator@V?$_Vector_val@U?$_Simple_types@UOverAllOAM@@@std@@@std@@@2@@Z 0042f460 f i Frames.obj
 0001:0002e5f0       ?EncodeOAM0@FrameManager@@SAGEEEEEEE@Z 0042f5f0 f   FrameUtilities.obj
 0001:0002e6f0       ?EncodeOAM1@FrameManager@@SAG_NGE00E@Z 0042f6f0 f   FrameUtilities.obj
 0001:0002e7c0       ?EncodeOAM2@FrameManager@@SAGGEE@Z 0042f7c0 f   FrameUtilities.obj
 0001:0002e850       ?GetBitField@cOAMManager@@SAHJJJ@Z 0042f850 f i FrameUtilities.obj
 0001:0002e8a0       ?SetBitValue@@YAGGH@Z      0042f8a0 f   FrameUtilities.obj
 0001:0002e8d0       ?UnpackOAM@FrameManager@@SAXPAUEncodedOAM@@PAUDecodedOAM@@@Z 0042f8d0 f   FrameUtilities.obj
 0001:0002eab0       ?ConnControls@@YAH_N@Z     0042fab0 f   frmDoor.obj
 0001:0002ec00       ?DwProc@@YGHPAUHWND__@@IIJ@Z 0042fc00 f   frmDoor.obj
 0001:0002f150       ?GetState@MapManager@@QAEPAVMapEditingState@@XZ 00430150 f i frmDoor.obj
 0001:0002f180       ?SaveConnections@@YAHXZ    00430180 f   frmDoor.obj
 0001:0002f430       ?SaveThisDoor@DoorManager@@QAEHH@Z 00430430 f   frmDoor.obj
 0001:0002f930       ?MapDataProc@@YGHPAUHWND__@@IIJ@Z 00430930 f   frmMapData.obj
 0001:0002f9e0       ??$?0$$V@?$_Compressed_pair@U?$_Wrap_alloc@V?$allocator@PAVOffsetArrayContainer@@@std@@@std@@V?$_Vector_val@U?$_Simple_types@PAVOffsetArrayContainer@@@std@@@2@$00@std@@QAE@U_Zero_then_variadic_args_t@1@@Z 004309e0 f i GameConfiguration.obj
 0001:0002fa30       ??$?0AAU?$_Wrap_alloc@V?$allocator@PAVOffsetArrayContainer@@@std@@@std@@@?$_Wrap_alloc@V?$allocator@U_Container_proxy@std@@@std@@@std@@QAE@AAU?$_Wrap_alloc@V?$allocator@PAVOffsetArrayContainer@@@std@@@1@@Z 00430a30 f i GameConfiguration.obj
 0001:0002fa90       ??$?0PAVOffsetArrayContainer@@@?$allocator@U_Container_proxy@std@@@std@@QAE@ABV?$allocator@PAVOffsetArrayContainer@@@1@@Z 00430a90 f i GameConfiguration.obj
 0001:0002fac0       ??$_Copy_memmove@PAPAVOffsetArrayContainer@@PAPAV1@@std@@YAPAPAVOffsetArrayContainer@@PAPAV1@00@Z 00430ac0 f i GameConfiguration.obj
 0001:0002fb30       ??$_Destroy_range1@V?$allocator@PAVOffsetArrayContainer@@@std@@PAPAVOffsetArrayContainer@@@std@@YAXPAPAVOffsetArrayContainer@@0AAU?$_Wrap_alloc@V?$allocator@PAVOffsetArrayContainer@@@std@@@0@U?$integral_constant@_N$00@0@@Z 00430b30 f i GameConfiguration.obj
 0001:0002fb60       ??$_Destroy_range@V?$allocator@PAVOffsetArrayContainer@@@std@@PAPAVOffsetArrayContainer@@@std@@YAXPAPAVOffsetArrayContainer@@0AAU?$_Wrap_alloc@V?$allocator@PAVOffsetArrayContainer@@@std@@@0@@Z 00430b60 f i GameConfiguration.obj
 0001:0002fbb0       ??$_Ptr_move_cat@PAVOffsetArrayContainer@@PAV1@@std@@YA?AU_Really_trivial_ptr_iterator_tag@0@ABQAPAVOffsetArrayContainer@@0@Z 00430bb0 f i GameConfiguration.obj
 0001:0002fbe0       ??$_Rechecked@PAPAVOffsetArrayContainer@@PAPAV1@@std@@YAAAPAPAVOffsetArrayContainer@@AAPAPAV1@PAPAV1@@Z 00430be0 f i GameConfiguration.obj
 0001:0002fc10       ??$_Umove@PAPAVOffsetArrayContainer@@@?$vector@PAVOffsetArrayContainer@@V?$allocator@PAVOffsetArrayContainer@@@std@@@std@@IAEPAPAVOffsetArrayContainer@@PAPAV2@00@Z 00430c10 f i GameConfiguration.obj
 0001:0002fc70       ??$_Unchecked@PAPAVOffsetArrayContainer@@@std@@YAPAPAVOffsetArrayContainer@@PAPAV1@@Z 00430c70 f i GameConfiguration.obj
 0001:0002fca0       ??$_Unfancy@PAVOffsetArrayContainer@@@std@@YAPAPAVOffsetArrayContainer@@PAPAV1@@Z 00430ca0 f i GameConfiguration.obj
 0001:0002fcd0       ??$_Uninitialized_move@PAPAVOffsetArrayContainer@@PAPAV1@V?$allocator@PAVOffsetArrayContainer@@@std@@@std@@YAPAPAVOffsetArrayContainer@@PAPAV1@00AAU?$_Wrap_alloc@V?$allocator@PAVOffsetArrayContainer@@@std@@@0@@Z 00430cd0 f i GameConfiguration.obj
 0001:0002fd50       ??$_Uninitialized_move_al_unchecked1@PAVOffsetArrayContainer@@PAV1@V?$allocator@PAVOffsetArrayContainer@@@std@@@std@@YAPAPAVOffsetArrayContainer@@PAPAV1@00AAU?$_Wrap_alloc@V?$allocator@PAVOffsetArrayContainer@@@std@@@0@U_Really_trivial_ptr_iterator_tag@0@U?$integral_constant@_N$00@0@@Z 00430d50 f i GameConfiguration.obj
 0001:0002fda0       ??$_Uninitialized_move_al_unchecked@PAPAVOffsetArrayContainer@@PAPAV1@V?$allocator@PAVOffsetArrayContainer@@@std@@@std@@YAPAPAVOffsetArrayContainer@@PAPAV1@00AAU?$_Wrap_alloc@V?$allocator@PAVOffsetArrayContainer@@@std@@@0@@Z 00430da0 f i GameConfiguration.obj
 0001:0002fe10       ??$addressof@QAVOffsetArrayContainer@@@std@@YAPBQAVOffsetArrayContainer@@ABQAV1@@Z 00430e10 f i GameConfiguration.obj
 0001:0002fe40       ??$construct@PAVOffsetArrayContainer@@AAPAV1@@?$_Wrap_alloc@V?$allocator@PAVOffsetArrayContainer@@@std@@@std@@QAEXPAPAVOffsetArrayContainer@@AAPAV2@@Z 00430e40 f i GameConfiguration.obj
 0001:0002fea0       ??$construct@PAVOffsetArrayContainer@@AAPAV1@@?$allocator@PAVOffsetArrayContainer@@@std@@QAEXPAPAVOffsetArrayContainer@@AAPAV2@@Z 00430ea0 f i GameConfiguration.obj
 0001:0002ff30       ??$construct@PAVOffsetArrayContainer@@AAPAV1@@?$allocator_traits@V?$allocator@PAVOffsetArrayContainer@@@std@@@std@@SAXAAV?$allocator@PAVOffsetArrayContainer@@@1@PAPAVOffsetArrayContainer@@AAPAV3@@Z 00430f30 f i GameConfiguration.obj
 0001:0002ff80       ??$construct@PAVOffsetArrayContainer@@ABQAV1@@?$_Wrap_alloc@V?$allocator@PAVOffsetArrayContainer@@@std@@@std@@QAEXPAPAVOffsetArrayContainer@@ABQAV2@@Z 00430f80 f i GameConfiguration.obj
 0001:0002ffe0       ??$construct@PAVOffsetArrayContainer@@ABQAV1@@?$allocator@PAVOffsetArrayContainer@@@std@@QAEXPAPAVOffsetArrayContainer@@ABQAV2@@Z 00430fe0 f i GameConfiguration.obj
 0001:00030070       ??$construct@PAVOffsetArrayContainer@@ABQAV1@@?$allocator_traits@V?$allocator@PAVOffsetArrayContainer@@@std@@@std@@SAXAAV?$allocator@PAVOffsetArrayContainer@@@1@PAPAVOffsetArrayContainer@@ABQAV3@@Z 00431070 f i GameConfiguration.obj
 0001:000300c0       ??$forward@AAPAVOffsetArrayContainer@@@std@@YAAAPAVOffsetArrayContainer@@AAPAV1@@Z 004310c0 f i GameConfiguration.obj
 0001:000300f0       ??$forward@AAU?$_Wrap_alloc@V?$allocator@PAVOffsetArrayContainer@@@std@@@std@@@std@@YAAAU?$_Wrap_alloc@V?$allocator@PAVOffsetArrayContainer@@@std@@@0@AAU10@@Z 004310f0 f i GameConfiguration.obj
 0001:00030120       ??$forward@ABQAVOffsetArrayContainer@@@std@@YAABQAVOffsetArrayContainer@@ABQAV1@@Z 00431120 f i GameConfiguration.obj
 0001:00030150       ??0?$_Vector_alloc@U?$_Vec_base_types@PAVOffsetArrayContainer@@V?$allocator@PAVOffsetArrayContainer@@@std@@@std@@@std@@QAE@XZ 00431150 f i GameConfiguration.obj
 0001:000301e0       ??0?$_Vector_val@U?$_Simple_types@PAVOffsetArrayContainer@@@std@@@std@@QAE@XZ 004311e0 f i GameConfiguration.obj
 0001:00030240       ??0?$_Wrap_alloc@V?$allocator@PAVOffsetArrayContainer@@@std@@@std@@QAE@XZ 00431240 f i GameConfiguration.obj
 0001:00030290       ??0?$allocator@PAVOffsetArrayContainer@@@std@@QAE@XZ 00431290 f i GameConfiguration.obj
 0001:000302c0       ??0?$vector@PAVOffsetArrayContainer@@V?$allocator@PAVOffsetArrayContainer@@@std@@@std@@QAE@XZ 004312c0 f i GameConfiguration.obj
 0001:00030330       ??0GameConfiguration@@QAE@H@Z 00431330 f   GameConfiguration.obj
 0001:000305d0       ??0OffsetArrayContainer@@QAE@PADK_NH@Z 004315d0 f i GameConfiguration.obj
 0001:000306a0       ??1?$_Compressed_pair@U?$_Wrap_alloc@V?$allocator@PAVOffsetArrayContainer@@@std@@@std@@V?$_Vector_val@U?$_Simple_types@PAVOffsetArrayContainer@@@std@@@2@$00@std@@QAE@XZ 004316a0 f i GameConfiguration.obj
 0001:000306e0       ??1?$_Vector_alloc@U?$_Vec_base_types@PAVOffsetArrayContainer@@V?$allocator@PAVOffsetArrayContainer@@@std@@@std@@@std@@QAE@XZ 004316e0 f i GameConfiguration.obj
 0001:00030760       ??1?$_Vector_val@U?$_Simple_types@PAVOffsetArrayContainer@@@std@@@std@@QAE@XZ 00431760 f i GameConfiguration.obj
 0001:000307a0       ??1?$vector@PAVOffsetArrayContainer@@V?$allocator@PAVOffsetArrayContainer@@@std@@@std@@QAE@XZ 004317a0 f i GameConfiguration.obj
 0001:00030820       ??A?$vector@PAVOffsetArrayContainer@@V?$allocator@PAVOffsetArrayContainer@@@std@@@std@@QAEAAPAVOffsetArrayContainer@@I@Z 00431820 f i GameConfiguration.obj
 0001:000308e0       ?GetOffsetContainer@GameConfiguration@@QAEPAVOffsetArrayContainer@@PAD@Z 004318e0 f   GameConfiguration.obj
 0001:00030a00       ?_Alloc_proxy@?$_Vector_alloc@U?$_Vec_base_types@PAVOffsetArrayContainer@@V?$allocator@PAVOffsetArrayContainer@@@std@@@std@@@std@@QAEXXZ 00431a00 f i GameConfiguration.obj
 0001:00030ad0       ?_Destroy@?$vector@PAVOffsetArrayContainer@@V?$allocator@PAVOffsetArrayContainer@@@std@@@std@@IAEXPAPAVOffsetArrayContainer@@0@Z 00431ad0 f i GameConfiguration.obj
 0001:00030b30       ?_Free_proxy@?$_Vector_alloc@U?$_Vec_base_types@PAVOffsetArrayContainer@@V?$allocator@PAVOffsetArrayContainer@@@std@@@std@@@std@@QAEXXZ 00431b30 f i GameConfiguration.obj
 0001:00030bf0       ?_Get_data@?$_Vector_alloc@U?$_Vec_base_types@PAVOffsetArrayContainer@@V?$allocator@PAVOffsetArrayContainer@@@std@@@std@@@std@@QAEAAV?$_Vector_val@U?$_Simple_types@PAVOffsetArrayContainer@@@std@@@2@XZ 00431bf0 f i GameConfiguration.obj
 0001:00030c30       ?_Get_data@?$_Vector_alloc@U?$_Vec_base_types@PAVOffsetArrayContainer@@V?$allocator@PAVOffsetArrayContainer@@@std@@@std@@@std@@QBEABV?$_Vector_val@U?$_Simple_types@PAVOffsetArrayContainer@@@std@@@2@XZ 00431c30 f i GameConfiguration.obj
 0001:00030c70       ?_Get_first@?$_Compressed_pair@U?$_Wrap_alloc@V?$allocator@PAVOffsetArrayContainer@@@std@@@std@@V?$_Vector_val@U?$_Simple_types@PAVOffsetArrayContainer@@@std@@@2@$00@std@@QAEAAU?$_Wrap_alloc@V?$allocator@PAVOffsetArrayContainer@@@std@@@2@XZ 00431c70 f i GameConfiguration.obj
 0001:00030ca0       ?_Get_first@?$_Compressed_pair@U?$_Wrap_alloc@V?$allocator@PAVOffsetArrayContainer@@@std@@@std@@V?$_Vector_val@U?$_Simple_types@PAVOffsetArrayContainer@@@std@@@2@$00@std@@QBEABU?$_Wrap_alloc@V?$allocator@PAVOffsetArrayContainer@@@std@@@2@XZ 00431ca0 f i GameConfiguration.obj
 0001:00030cd0       ?_Get_second@?$_Compressed_pair@U?$_Wrap_alloc@V?$allocator@PAVOffsetArrayContainer@@@std@@@std@@V?$_Vector_val@U?$_Simple_types@PAVOffsetArrayContainer@@@std@@@2@$00@std@@QAEAAV?$_Vector_val@U?$_Simple_types@PAVOffsetArrayContainer@@@std@@@2@XZ 00431cd0 f i GameConfiguration.obj
 0001:00030d00       ?_Get_second@?$_Compressed_pair@U?$_Wrap_alloc@V?$allocator@PAVOffsetArrayContainer@@@std@@@std@@V?$_Vector_val@U?$_Simple_types@PAVOffsetArrayContainer@@@std@@@2@$00@std@@QBEABV?$_Vector_val@U?$_Simple_types@PAVOffsetArrayContainer@@@std@@@2@XZ 00431d00 f i GameConfiguration.obj
 0001:00030d30       ?_Getal@?$_Vector_alloc@U?$_Vec_base_types@PAVOffsetArrayContainer@@V?$allocator@PAVOffsetArrayContainer@@@std@@@std@@@std@@QAEAAU?$_Wrap_alloc@V?$allocator@PAVOffsetArrayContainer@@@std@@@2@XZ 00431d30 f i GameConfiguration.obj
 0001:00030d70       ?_Getal@?$_Vector_alloc@U?$_Vec_base_types@PAVOffsetArrayContainer@@V?$allocator@PAVOffsetArrayContainer@@@std@@@std@@@std@@QBEABU?$_Wrap_alloc@V?$allocator@PAVOffsetArrayContainer@@@std@@@2@XZ 00431d70 f i GameConfiguration.obj
 0001:00030db0       ?_Getpfirst@?$_Vector_alloc@U?$_Vec_base_types@PAVOffsetArrayContainer@@V?$allocator@PAVOffsetArrayContainer@@@std@@@std@@@std@@QBEPAPAU_Iterator_base12@2@XZ 00431db0 f i GameConfiguration.obj
 0001:00030e00       ?_Grow_to@?$vector@PAVOffsetArrayContainer@@V?$allocator@PAVOffsetArrayContainer@@@std@@@std@@IBEII@Z 00431e00 f i GameConfiguration.obj
 0001:00030e90       ?_Inside@?$vector@PAVOffsetArrayContainer@@V?$allocator@PAVOffsetArrayContainer@@@std@@@std@@IBE_NPBQAVOffsetArrayContainer@@@Z 00431e90 f i GameConfiguration.obj
 0001:00030f20       ?_Myend@?$_Vector_alloc@U?$_Vec_base_types@PAVOffsetArrayContainer@@V?$allocator@PAVOffsetArrayContainer@@@std@@@std@@@std@@QAEAAPAPAVOffsetArrayContainer@@XZ 00431f20 f i GameConfiguration.obj
 0001:00030f70       ?_Myend@?$_Vector_alloc@U?$_Vec_base_types@PAVOffsetArrayContainer@@V?$allocator@PAVOffsetArrayContainer@@@std@@@std@@@std@@QBEABQAPAVOffsetArrayContainer@@XZ 00431f70 f i GameConfiguration.obj
 0001:00030fc0       ?_Myfirst@?$_Vector_alloc@U?$_Vec_base_types@PAVOffsetArrayContainer@@V?$allocator@PAVOffsetArrayContainer@@@std@@@std@@@std@@QAEAAPAPAVOffsetArrayContainer@@XZ 00431fc0 f i GameConfiguration.obj
 0001:00031010       ?_Myfirst@?$_Vector_alloc@U?$_Vec_base_types@PAVOffsetArrayContainer@@V?$allocator@PAVOffsetArrayContainer@@@std@@@std@@@std@@QBEABQAPAVOffsetArrayContainer@@XZ 00432010 f i GameConfiguration.obj
 0001:00031060       ?_Mylast@?$_Vector_alloc@U?$_Vec_base_types@PAVOffsetArrayContainer@@V?$allocator@PAVOffsetArrayContainer@@@std@@@std@@@std@@QAEAAPAPAVOffsetArrayContainer@@XZ 00432060 f i GameConfiguration.obj
 0001:000310b0       ?_Mylast@?$_Vector_alloc@U?$_Vec_base_types@PAVOffsetArrayContainer@@V?$allocator@PAVOffsetArrayContainer@@@std@@@std@@@std@@QBEABQAPAVOffsetArrayContainer@@XZ 004320b0 f i GameConfiguration.obj
 0001:00031100       ?_Myproxy@?$_Vector_alloc@U?$_Vec_base_types@PAVOffsetArrayContainer@@V?$allocator@PAVOffsetArrayContainer@@@std@@@std@@@std@@QAEAAPAU_Container_proxy@2@XZ 00432100 f i GameConfiguration.obj
 0001:00031140       ?_Orphan_all@?$_Vector_alloc@U?$_Vec_base_types@PAVOffsetArrayContainer@@V?$allocator@PAVOffsetArrayContainer@@@std@@@std@@@std@@QAEXXZ 00432140 f i GameConfiguration.obj
 0001:00031190       ?_Orphan_range@?$vector@PAVOffsetArrayContainer@@V?$allocator@PAVOffsetArrayContainer@@@std@@@std@@IBEXPAPAVOffsetArrayContainer@@0@Z 00432190 f i GameConfiguration.obj
 0001:000312a0       ?_Reallocate@?$vector@PAVOffsetArrayContainer@@V?$allocator@PAVOffsetArrayContainer@@@std@@@std@@IAEXI@Z 004322a0 f i GameConfiguration.obj
 0001:00031430       ?_Reserve@?$vector@PAVOffsetArrayContainer@@V?$allocator@PAVOffsetArrayContainer@@@std@@@std@@IAEXI@Z 00432430 f i GameConfiguration.obj
 0001:000314c0       ?_Tidy@?$vector@PAVOffsetArrayContainer@@V?$allocator@PAVOffsetArrayContainer@@@std@@@std@@IAEXXZ 004324c0 f i GameConfiguration.obj
 0001:00031590       ?_Unused_capacity@?$vector@PAVOffsetArrayContainer@@V?$allocator@PAVOffsetArrayContainer@@@std@@@std@@QBEIXZ 00432590 f i GameConfiguration.obj
 0001:000315f0       ?_Xlen@?$vector@PAVOffsetArrayContainer@@V?$allocator@PAVOffsetArrayContainer@@@std@@@std@@IBEXXZ 004325f0 f i GameConfiguration.obj
 0001:00031640       ?allocate@?$_Wrap_alloc@V?$allocator@PAVOffsetArrayContainer@@@std@@@std@@QAEPAPAVOffsetArrayContainer@@I@Z 00432640 f i GameConfiguration.obj
 0001:00031690       ?allocate@?$allocator@PAVOffsetArrayContainer@@@std@@QAEPAPAVOffsetArrayContainer@@I@Z 00432690 f i GameConfiguration.obj
 0001:000316e0       ?capacity@?$vector@PAVOffsetArrayContainer@@V?$allocator@PAVOffsetArrayContainer@@@std@@@std@@QBEIXZ 004326e0 f i GameConfiguration.obj
 0001:00031740       ?deallocate@?$_Wrap_alloc@V?$allocator@PAVOffsetArrayContainer@@@std@@@std@@QAEXPAPAVOffsetArrayContainer@@I@Z 00432740 f i GameConfiguration.obj
 0001:00031790       ?deallocate@?$allocator@PAVOffsetArrayContainer@@@std@@QAEXPAPAVOffsetArrayContainer@@I@Z 00432790 f i GameConfiguration.obj
 0001:000317e0       ?max_size@?$_Wrap_alloc@V?$allocator@PAVOffsetArrayContainer@@@std@@@std@@QBEIU_Nil@2@@Z 004327e0 f i GameConfiguration.obj
 0001:00031830       ?max_size@?$allocator@PAVOffsetArrayContainer@@@std@@QBEIXZ 00432830 f i GameConfiguration.obj
 0001:00031860       ?max_size@?$allocator_traits@V?$allocator@PAVOffsetArrayContainer@@@std@@@std@@SAIABV?$allocator@PAVOffsetArrayContainer@@@2@@Z 00432860 f i GameConfiguration.obj
 0001:000318a0       ?max_size@?$vector@PAVOffsetArrayContainer@@V?$allocator@PAVOffsetArrayContainer@@@std@@@std@@QBEIXZ 004328a0 f i GameConfiguration.obj
 0001:000318f0       ?push_back@?$vector@PAVOffsetArrayContainer@@V?$allocator@PAVOffsetArrayContainer@@@std@@@std@@QAEXABQAVOffsetArrayContainer@@@Z 004328f0 f i GameConfiguration.obj
 0001:00031aa0       ?size@?$vector@PAVOffsetArrayContainer@@V?$allocator@PAVOffsetArrayContainer@@@std@@@std@@QBEIXZ 00432aa0 f i GameConfiguration.obj
 0001:00031b00       ??0GBAGraphics@@QAE@XZ     00432b00 f   GBAGraphics.obj
 0001:00031bb0       ??0GBAMethods@@QAE@XZ      00432bb0 f   GBAMethods.obj
 0001:00031be0       ??1GBAMethods@@QAE@XZ      00432be0 f   GBAMethods.obj
 0001:00031c10       ?DecodePal@GBAMethods@@QAEPAXPAFPAJHD@Z 00432c10 f   GBAMethods.obj
 0001:00031d00       ?EncodePal@GBAMethods@@QAEPAXPAFPAJHD@Z 00432d00 f   GBAMethods.obj
 0001:00031e30       ?FindFreeSpace@GBAMethods@@QAEJJE@Z 00432e30 f   GBAMethods.obj
 0001:00031fe0       ?LZ77Comp@GBAMethods@@QAEKKPAEH0@Z 00432fe0 f   GBAMethods.obj
 0001:00032340       ?LZ77UnComp@GBAMethods@@QAEJPAE0@Z 00433340 f   GBAMethods.obj
 0001:00032520       ?Reopen@GBAMethods@@QAEXXZ 00433520 f   GBAMethods.obj
 0001:00032580       ?ReturnEOF@GBAMethods@@SAHPAU_iobuf@@@Z 00433580 f   GBAMethods.obj
 0001:00032610       ?ReturnFileName@GBAMethods@@QAEHPAD0H@Z 00433610 f   GBAMethods.obj
 0001:00032660       ?ReturnFileName@GBAMethods@@SAHPAD0HE@Z 00433660 f   GBAMethods.obj
 0001:00032730       ?ZMUncompRle@GBAMethods@@QAEJGPAE0PAJ@Z 00433730 f   GBAMethods.obj
 0001:000329f0       ?compress@GBAMethods@@QAEJQAE0K@Z 004339f0 f   GBAMethods.obj
 0001:00032be0       ??0GlobalVars@@QAE@XZ      00433be0 f   GlobalVars.obj
 0001:00032d60       ??A?$vector@UnEnemies@@V?$allocator@UnEnemies@@@std@@@std@@QAEAAUnEnemies@@I@Z 00433d60 f i HeaderEditor.obj
 0001:00032e20       ??A?$vector@UnEnemyList@@V?$allocator@UnEnemyList@@@std@@@std@@QAEAAUnEnemyList@@I@Z 00433e20 f i HeaderEditor.obj
 0001:00032ee0       ?ChangeSprites@@YAHXZ      00433ee0 f   HeaderEditor.obj
 0001:00033240       ?HeaderProced@@YGHPAUHWND__@@IIJ@Z 00434240 f   HeaderEditor.obj
 0001:00033890       ?LoadHeaderControls@@YAHXZ 00434890 f   HeaderEditor.obj
 0001:00034030       ?Max@nEnemyList@@QAEEXZ    00435030 f i HeaderEditor.obj
 0001:00034080       ?SaveHeader@@YAHE@Z        00435080 f   HeaderEditor.obj
 0001:00034b90       ?SetupHeaderControls@@YAHXZ 00435b90 f   HeaderEditor.obj
 0001:00035100       ?_Get_data@?$_Vector_alloc@U?$_Vec_base_types@UnEnemies@@V?$allocator@UnEnemies@@@std@@@std@@@std@@QAEAAV?$_Vector_val@U?$_Simple_types@UnEnemies@@@std@@@2@XZ 00436100 f i HeaderEditor.obj
 0001:00035140       ?_Get_data@?$_Vector_alloc@U?$_Vec_base_types@UnEnemies@@V?$allocator@UnEnemies@@@std@@@std@@@std@@QBEABV?$_Vector_val@U?$_Simple_types@UnEnemies@@@std@@@2@XZ 00436140 f i HeaderEditor.obj
 0001:00035180       ?_Get_data@?$_Vector_alloc@U?$_Vec_base_types@UnEnemyList@@V?$allocator@UnEnemyList@@@std@@@std@@@std@@QAEAAV?$_Vector_val@U?$_Simple_types@UnEnemyList@@@std@@@2@XZ 00436180 f i HeaderEditor.obj
 0001:000351c0       ?_Get_data@?$_Vector_alloc@U?$_Vec_base_types@UnEnemyList@@V?$allocator@UnEnemyList@@@std@@@std@@@std@@QBEABV?$_Vector_val@U?$_Simple_types@UnEnemyList@@@std@@@2@XZ 004361c0 f i HeaderEditor.obj
 0001:00035200       ?_Get_second@?$_Compressed_pair@U?$_Wrap_alloc@V?$allocator@UnEnemies@@@std@@@std@@V?$_Vector_val@U?$_Simple_types@UnEnemies@@@std@@@2@$00@std@@QAEAAV?$_Vector_val@U?$_Simple_types@UnEnemies@@@std@@@2@XZ 00436200 f i HeaderEditor.obj
 0001:00035230       ?_Get_second@?$_Compressed_pair@U?$_Wrap_alloc@V?$allocator@UnEnemies@@@std@@@std@@V?$_Vector_val@U?$_Simple_types@UnEnemies@@@std@@@2@$00@std@@QBEABV?$_Vector_val@U?$_Simple_types@UnEnemies@@@std@@@2@XZ 00436230 f i HeaderEditor.obj
 0001:00035260       ?_Get_second@?$_Compressed_pair@U?$_Wrap_alloc@V?$allocator@UnEnemyList@@@std@@@std@@V?$_Vector_val@U?$_Simple_types@UnEnemyList@@@std@@@2@$00@std@@QAEAAV?$_Vector_val@U?$_Simple_types@UnEnemyList@@@std@@@2@XZ 00436260 f i HeaderEditor.obj
 0001:00035290       ?_Get_second@?$_Compressed_pair@U?$_Wrap_alloc@V?$allocator@UnEnemyList@@@std@@@std@@V?$_Vector_val@U?$_Simple_types@UnEnemyList@@@std@@@2@$00@std@@QBEABV?$_Vector_val@U?$_Simple_types@UnEnemyList@@@std@@@2@XZ 00436290 f i HeaderEditor.obj
 0001:000352c0       ?_Myfirst@?$_Vector_alloc@U?$_Vec_base_types@UnEnemies@@V?$allocator@UnEnemies@@@std@@@std@@@std@@QAEAAPAUnEnemies@@XZ 004362c0 f i HeaderEditor.obj
 0001:00035310       ?_Myfirst@?$_Vector_alloc@U?$_Vec_base_types@UnEnemies@@V?$allocator@UnEnemies@@@std@@@std@@@std@@QBEABQAUnEnemies@@XZ 00436310 f i HeaderEditor.obj
 0001:00035360       ?_Myfirst@?$_Vector_alloc@U?$_Vec_base_types@UnEnemyList@@V?$allocator@UnEnemyList@@@std@@@std@@@std@@QAEAAPAUnEnemyList@@XZ 00436360 f i HeaderEditor.obj
 0001:000353b0       ?_Myfirst@?$_Vector_alloc@U?$_Vec_base_types@UnEnemyList@@V?$allocator@UnEnemyList@@@std@@@std@@@std@@QBEABQAUnEnemyList@@XZ 004363b0 f i HeaderEditor.obj
 0001:00035400       ?_Mylast@?$_Vector_alloc@U?$_Vec_base_types@UnEnemies@@V?$allocator@UnEnemies@@@std@@@std@@@std@@QBEABQAUnEnemies@@XZ 00436400 f i HeaderEditor.obj
 0001:00035450       ?_Mylast@?$_Vector_alloc@U?$_Vec_base_types@UnEnemyList@@V?$allocator@UnEnemyList@@@std@@@std@@@std@@QBEABQAUnEnemyList@@XZ 00436450 f i HeaderEditor.obj
 0001:000354a0       ?size@?$vector@UnEnemies@@V?$allocator@UnEnemies@@@std@@@std@@QBEIXZ 004364a0 f i HeaderEditor.obj
 0001:00035500       ?size@?$vector@UnEnemyList@@V?$allocator@UnEnemyList@@@std@@@std@@QBEIXZ 00436500 f i HeaderEditor.obj
 0001:00035560       ??0Image@@QAE@XZ           00436560 f   image.obj
 0001:000355b0       ??1Image@@QAE@XZ           004365b0 f   image.obj
 0001:00035620       ?Blit@Image@@QAEXPAUHDC__@@HHHHHH@Z 00436620 f   image.obj
 0001:000356a0       ?Clear@Image@@QAEXXZ       004366a0 f   image.obj
 0001:00035700       ?Create@Image@@QAEXHH@Z    00436700 f   image.obj
 0001:00035960       ?Create@Image@@QAEXHHPAJ@Z 00436960 f   image.obj
 0001:00035bd0       ?DC@Image@@QAEPAUHDC__@@XZ 00436bd0 f   image.obj
 0001:00035c00       ?Destroy@Image@@QAEXXZ     00436c00 f   image.obj
 0001:00035d00       ?Draw@Image@@QAEXAAVTileBuffer@@JJHH@Z 00436d00 f   image.obj
 0001:00035da0       ?Draw@Image@@QAEXPBEJJHHH@Z 00436da0 f   image.obj
 0001:00035f60       ?Fill@Image@@QAEXHHHHE@Z   00436f60 f   image.obj
 0001:00036060       ?RebuildMask@Image@@IAEXXZ 00437060 f   image.obj
 0001:000361b0       ?SaveToFile@Image@@QAEXPAU_iobuf@@@Z 004371b0 f   image.obj
 0001:00036470       ?SetPalette@Image@@QAEXPAJHH@Z 00437470 f   image.obj
 0001:00036590       ?TransBlit@Image@@QAEXPAUHDC__@@HHHHHH@Z 00437590 f   image.obj
 0001:00036660       ?Zero@Image@@IAEXXZ        00437660 f   image.obj
 0001:00036710       ?ApplyIPS@@YAHPAD0@Z       00437710 f   IPSPatch.obj
 0001:00036970       ?GetIPSAddress@@YAJPAU_iobuf@@@Z 00437970 f   IPSPatch.obj
 0001:00036a20       ?GetIPSShort@@YAJPAU_iobuf@@@Z 00437a20 f   IPSPatch.obj
 0001:00036ac0       ??0MapManager@@QAE@XZ      00437ac0 f i main.obj
 0001:00036d60       ?ClearGlobals@@YAHXZ       00437d60 f   main.obj
 0001:00036f70       ?DialogProc@@YGHPAUHWND__@@IIJ@Z 00437f70 f   main.obj
 0001:00037d80       ?DisableByState@@YAXPAVsChecks@@@Z 00438d80 f   main.obj
 0001:00037ec0       ?HandleDetections@@YAHPAUHWND__@@IIJ@Z 00438ec0 f   main.obj
 0001:00039b50       ?LoadCombos@@YAXPAVsCombo@@PADH@Z 0043ab50 f   main.obj
 0001:00039d80       ?LoadConfigFile@@YAHPAD@Z  0043ad80 f   main.obj
 0001:0003a260       ?SetUpCombos@@YAHH@Z       0043b260 f   main.obj
 0001:0003acd0       ?UpdateHeaderControls@@YAHXZ 0043bcd0 f   main.obj
 0001:0003b1a0       ?hwndMain@@YAPAUHWND__@@XZ 0043c1a0 f   main.obj
 0001:0003b1e0       ?hwndMain@@YAXPAUHWND__@@@Z 0043c1e0 f   main.obj
 0001:0003b230       ?sMessage@@YAHPAD@Z        0043c230 f   main.obj
 0001:0003b290       _WinMain@16                0043c290 f   main.obj
 0001:0003b740       ?ClearContainer@@YAXXZ     0043c740 f   MainWindow.obj
 0001:0003b7e0       ?ContainerProc@@YGJPAUHWND__@@IIJ@Z 0043c7e0 f   MainWindow.obj
 0001:0003b8a0       ?InitContainer@@YAHXZ      0043c8a0 f   MainWindow.obj
 0001:0003bac0       ?MakeMultiWindow@@YAXXZ    0043cac0 f   MainWindow.obj
 0001:0003bd70       ?MoveMainToMap@@YAXPAUHWND__@@0@Z 0043cd70 f   MainWindow.obj
 0001:0003be80       ?MoveTilesetBelowMain@@YAXPAUHWND__@@0@Z 0043ce80 f   MainWindow.obj
 0001:0003bf90       ??0MapEditingState@@QAE@XZ 0043cf90 f   MapEditingState.obj
 0001:0003c000       ?GetAction@MapEditingState@@QAE?AW4editingActions@@XZ 0043d000 f   MapEditingState.obj
 0001:0003c030       ?GetObjId@MapEditingState@@QAEHXZ 0043d030 f   MapEditingState.obj
 0001:0003c060       ?GetState@MapEditingState@@QAE?AW4editingStates@@XZ 0043d060 f   MapEditingState.obj
 0001:0003c090       ?SetAction@MapEditingState@@QAE_NW4editingActions@@@Z 0043d090 f   MapEditingState.obj
 0001:0003c100       ?SetObjId@MapEditingState@@QAE_NH@Z 0043d100 f   MapEditingState.obj
 0001:0003c180       ?SetState@MapEditingState@@QAE_NW4editingStates@@@Z 0043d180 f   MapEditingState.obj
 0001:0003c1f0       ?MoveObject@MapManager@@QAEXJ@Z 0043d1f0 f   MapManager.obj
 0001:0003c6b0       ?Resize@MapManager@@QAEXW4editingStates@@W4editingActions@@IJ@Z 0043d6b0 f   MapManager.obj
 0001:0003c970       ?SaveLayer@MapManager@@SAHPAVGBAMethods@@PAU_iobuf@@EPAKPAVnMapBuffer@@@Z 0043d970 f   MapManager.obj
 0001:0003cac0       ?GetActiveBuffer@@YAPAVnMapBuffer@@XZ 0043dac0 f   MapWindow.obj
 0001:0003cc40       ?MapProc@@YGJPAUHWND__@@IIJ@Z 0043dc40 f   MapWindow.obj
 0001:0003de40       ?CreateMiniMapImage@MiniMapClass@@QAEHHH@Z 0043ee40 f   MinimapEditor.obj
 0001:0003df90       ?DecompressMap@MiniMapClass@@QAEHXZ 0043ef90 f   MinimapEditor.obj
 0001:0003e180       ?DrawMap@MiniMapClass@@QAEHXZ 0043f180 f   MinimapEditor.obj
 0001:0003e260       ?DrawMapLoc@@YAHPAUHDC__@@@Z 0043f260 f   MinimapEditor.obj
 0001:0003e450       ?DrawTileset@MiniMapClass@@QAEHXZ 0043f450 f   MinimapEditor.obj
 0001:0003e550       ?MiniGraphicProc@@YGJPAUHWND__@@IIJ@Z 0043f550 f   MinimapEditor.obj
 0001:0003e880       ?MiniProc@@YGHPAUHWND__@@IIJ@Z 0043f880 f   MinimapEditor.obj
 0001:0003eae0       ?MiniTilesetProc@@YGJPAUHWND__@@IIJ@Z 0043fae0 f   MinimapEditor.obj
 0001:0003ed60       ?SaveMap@MiniMapClass@@QAEHXZ 0043fd60 f   MinimapEditor.obj
 0001:0003ef50       ??0MiniMapClass@@QAE@XZ    0043ff50 f   MinimapEditorClass.obj
 0001:0003f050       ?Create@MiniMapClass@@QAEHXZ 00440050 f   MinimapEditorClass.obj
 0001:0003f860       ?CreateMiniMapTileImage@MiniMapClass@@QAEHHH@Z 00440860 f   MinimapEditorClass.obj
 0001:0003f9b0       ?Zero@MiniMapClass@@AAEHXZ 004409b0 f   MinimapEditorClass.obj
 0001:0003fa50       ?DrawClipIdent@@YAHXZ      00440a50 f   nFunctions.obj
 0001:0003fc20       ?DrawTileRect@@YAHPAUHDC__@@UMousePointer@@H@Z 00440c20 f   nFunctions.obj
 0001:0003fd10       ?EditLayers@@YAHIJ@Z       00440d10 f   nFunctions.obj
 0001:0003ff50       ?EditThisLayer@@YAHPAVnMapBuffer@@IJEG@Z 00440f50 f   nFunctions.obj
 0001:00040340       ?Gimmeasprite@@YAHHH@Z     00441340 f   nFunctions.obj
 0001:00040500       ?InputBoxProc@@YGJPAUHWND__@@IIJ@Z 00441500 f   nFunctions.obj
 0001:00040690       ?LoadInput@@YAHJ@Z         00441690 f   nFunctions.obj
 0001:00040700       ??0nMapBuffer@@QAE@XZ      00441700 f   nMapBuffer.obj
 0001:000407a0       ??1nMapBuffer@@QAE@XZ      004417a0 f   nMapBuffer.obj
 0001:00040800       ??$?0AAU?$_Wrap_alloc@V?$allocator@K@std@@@std@@@?$_Wrap_alloc@V?$allocator@U_Container_proxy@std@@@std@@@std@@QAE@AAU?$_Wrap_alloc@V?$allocator@K@std@@@1@@Z 00441800 f i frmOAM.obj
 0001:00040860       ??$?0K@?$allocator@U_Container_proxy@std@@@std@@QAE@ABV?$allocator@K@1@@Z 00441860 f i frmOAM.obj
 0001:00040890       ??$?0U?$_Wrap_alloc@V?$allocator@K@std@@@std@@$$V@?$_Compressed_pair@U?$_Wrap_alloc@V?$allocator@K@std@@@std@@V?$_Vector_val@U?$_Simple_types@K@std@@@2@$00@std@@QAE@U_One_then_variadic_args_t@1@$$QAU?$_Wrap_alloc@V?$allocator@K@std@@@1@@Z 00441890 f i frmOAM.obj
 0001:000408f0       ??$?0U?$_Wrap_alloc@V?$allocator@K@std@@@std@@X@?$_Vector_alloc@U?$_Vec_base_types@KV?$allocator@K@std@@@std@@@std@@QAE@$$QAU?$_Wrap_alloc@V?$allocator@K@std@@@1@@Z 004418f0 f i frmOAM.obj
 0001:00040990       ??$?0V?$allocator@K@std@@@?$_Wrap_alloc@V?$allocator@K@std@@@std@@QAE@$$QAV?$allocator@K@1@@Z 00441990 f i frmOAM.obj
 0001:000409f0       ??$_Copy_memmove@PBKPAK@std@@YAPAKPBK0PAK@Z 004419f0 f i frmOAM.obj
 0001:00040a60       ??$_Destroy_range1@V?$allocator@K@std@@PAK@std@@YAXPAK0AAU?$_Wrap_alloc@V?$allocator@K@std@@@0@U?$integral_constant@_N$00@0@@Z 00441a60 f i frmOAM.obj
 0001:00040a90       ??$_Destroy_range@V?$allocator@K@std@@PAK@std@@YAXPAK0AAU?$_Wrap_alloc@V?$allocator@K@std@@@0@@Z 00441a90 f i frmOAM.obj
 0001:00040ae0       ??$_Ptr_copy_cat@$$CBKK@std@@YA?AU_Really_trivial_ptr_iterator_tag@0@ABQBKABQAK@Z 00441ae0 f i frmOAM.obj
 0001:00040b10       ??$_Rechecked@PAKPAK@std@@YAAAPAKAAPAKPAK@Z 00441b10 f i frmOAM.obj
 0001:00040b40       ??$_Ucopy@V?$_Vector_const_iterator@V?$_Vector_val@U?$_Simple_types@K@std@@@std@@@std@@@?$vector@KV?$allocator@K@std@@@std@@IAEPAKV?$_Vector_const_iterator@V?$_Vector_val@U?$_Simple_types@K@std@@@std@@@1@0PAK@Z 00441b40 f i frmOAM.obj
 0001:00040c40       ??$_Unchecked@PAK@std@@YAPAKPAK@Z 00441c40 f i frmOAM.obj
 0001:00040c70       ??$_Unchecked@V?$_Vector_val@U?$_Simple_types@K@std@@@std@@@std@@YAPBKV?$_Vector_const_iterator@V?$_Vector_val@U?$_Simple_types@K@std@@@std@@@0@@Z 00441c70 f i frmOAM.obj
 0001:00040d00       ??$_Uninitialized_copy@V?$_Vector_const_iterator@V?$_Vector_val@U?$_Simple_types@K@std@@@std@@@std@@PAKV?$allocator@K@2@@std@@YAPAKV?$_Vector_const_iterator@V?$_Vector_val@U?$_Simple_types@K@std@@@std@@@0@0PAKAAU?$_Wrap_alloc@V?$allocator@K@std@@@0@@Z 00441d00 f i frmOAM.obj
 0001:00040e20       ??$_Uninitialized_copy_al_unchecked1@$$CBKKV?$allocator@K@std@@@std@@YAPAKPBK0PAKAAU?$_Wrap_alloc@V?$allocator@K@std@@@0@U_Really_trivial_ptr_iterator_tag@0@U?$integral_constant@_N$00@0@@Z 00441e20 f i frmOAM.obj
 0001:00040e70       ??$_Uninitialized_copy_al_unchecked@PBKPAKV?$allocator@K@std@@@std@@YAPAKPBK0PAKAAU?$_Wrap_alloc@V?$allocator@K@std@@@0@@Z 00441e70 f i frmOAM.obj
 0001:00040ee0       ??$forward@AAU?$_Wrap_alloc@V?$allocator@K@std@@@std@@@std@@YAAAU?$_Wrap_alloc@V?$allocator@K@std@@@0@AAU10@@Z 00441ee0 f i frmOAM.obj
 0001:00040f10       ??$forward@U?$_Wrap_alloc@V?$allocator@K@std@@@std@@@std@@YA$$QAU?$_Wrap_alloc@V?$allocator@K@std@@@0@AAU10@@Z 00441f10 f i frmOAM.obj
 0001:00040f40       ??$forward@V?$allocator@K@std@@@std@@YA$$QAV?$allocator@K@0@AAV10@@Z 00441f40 f i frmOAM.obj
 0001:00040f70       ??$move@AAU?$_Wrap_alloc@V?$allocator@K@std@@@std@@@std@@YA$$QAU?$_Wrap_alloc@V?$allocator@K@std@@@0@AAU10@@Z 00441f70 f i frmOAM.obj
 0001:00040fa0       ??0?$_Iterator012@Urandom_access_iterator_tag@std@@KHPBKABKU_Iterator_base12@2@@std@@QAE@ABU01@@Z 00441fa0 f i frmOAM.obj
 0001:00040ff0       ??0?$_Vector_const_iterator@V?$_Vector_val@U?$_Simple_types@K@std@@@std@@@std@@QAE@ABV01@@Z 00441ff0 f i frmOAM.obj
 0001:00041050       ??0?$_Vector_val@U?$_Simple_types@K@std@@@std@@QAE@XZ 00442050 f i frmOAM.obj
 0001:000410b0       ??0?$_Wrap_alloc@V?$allocator@K@std@@@std@@QAE@$$QAU01@@Z 004420b0 f i frmOAM.obj
 0001:00041110       ??0?$allocator@K@std@@QAE@ABV01@@Z 00442110 f i frmOAM.obj
 0001:00041140       ??0?$vector@KV?$allocator@K@std@@@std@@QAE@ABV01@@Z 00442140 f i frmOAM.obj
 0001:00041290       ??1?$_Compressed_pair@U?$_Wrap_alloc@V?$allocator@K@std@@@std@@V?$_Vector_val@U?$_Simple_types@K@std@@@2@$00@std@@QAE@XZ 00442290 f i frmOAM.obj
 0001:000412d0       ??1?$_Vector_alloc@U?$_Vec_base_types@KV?$allocator@K@std@@@std@@@std@@QAE@XZ 004422d0 f i frmOAM.obj
 0001:00041350       ??1?$_Vector_val@U?$_Simple_types@K@std@@@std@@QAE@XZ 00442350 f i frmOAM.obj
 0001:00041390       ??1?$vector@KV?$allocator@K@std@@@std@@QAE@XZ 00442390 f i frmOAM.obj
 0001:00041410       ??A?$vector@KV?$allocator@K@std@@@std@@QAEAAKI@Z 00442410 f i frmOAM.obj
 0001:000414d0       ?AnimationProc@@YGJPAUHWND__@@IIJ@Z 004424d0 f   frmOAM.obj
 0001:000416b0       ?GetCurrentFrameTable@@YAKXZ 004426b0 f   frmOAM.obj
 0001:000417a0       ?LoadPartsControl@@YAXXZ   004427a0 f   frmOAM.obj
 0001:00041890       ?OAMPalProc@@YGJPAUHWND__@@IIJ@Z 00442890 f   frmOAM.obj
 0001:00041cf0       ?OAMPartProc@@YGJPAUHWND__@@IIJ@Z 00442cf0 f   frmOAM.obj
 0001:00041e00       ?OAMProc@@YGHPAUHWND__@@IIJ@Z 00442e00 f   frmOAM.obj
 0001:00042d20       ?OAMSpriteProc@@YGJPAUHWND__@@IIJ@Z 00443d20 f   frmOAM.obj
 0001:00042f70       ?OAMTileProc@@YGJPAUHWND__@@IIJ@Z 00443f70 f   frmOAM.obj
 0001:000431c0       ?ReloadFramesControl@@YAXXZ 004441c0 f   frmOAM.obj
 0001:000432d0       ?SetCurrentFrameTable@@YAKK@Z 004442d0 f   frmOAM.obj
 0001:000433a0       ?SetSizeShapeRect@@YAXPAUtagRECT@@@Z 004443a0 f   frmOAM.obj
 0001:000434f0       ?SpecialKeyDownX@@YGJPAUHWND__@@IIJ@Z 004444f0 f   frmOAM.obj
 0001:00043570       ?SpecialKeyDownY@@YGJPAUHWND__@@IIJ@Z 00444570 f   frmOAM.obj
 0001:000435f0       ?UpdateStaticSprite@@YAXXZ 004445f0 f   frmOAM.obj
 0001:00043740       ?_Alloc_proxy@?$_Vector_alloc@U?$_Vec_base_types@KV?$allocator@K@std@@@std@@@std@@QAEXXZ 00444740 f i frmOAM.obj
 0001:00043810       ?_Buy@?$vector@KV?$allocator@K@std@@@std@@IAE_NI@Z 00444810 f i frmOAM.obj
 0001:000438f0       ?_Destroy@?$vector@KV?$allocator@K@std@@@std@@IAEXPAK0@Z 004448f0 f i frmOAM.obj
 0001:00043950       ?_Free_proxy@?$_Vector_alloc@U?$_Vec_base_types@KV?$allocator@K@std@@@std@@@std@@QAEXXZ 00444950 f i frmOAM.obj
 0001:00043a10       ?_Get_data@?$_Vector_alloc@U?$_Vec_base_types@KV?$allocator@K@std@@@std@@@std@@QBEABV?$_Vector_val@U?$_Simple_types@K@std@@@2@XZ 00444a10 f i frmOAM.obj
 0001:00043a50       ?_Get_first@?$_Compressed_pair@U?$_Wrap_alloc@V?$allocator@K@std@@@std@@V?$_Vector_val@U?$_Simple_types@K@std@@@2@$00@std@@QAEAAU?$_Wrap_alloc@V?$allocator@K@std@@@2@XZ 00444a50 f i frmOAM.obj
 0001:00043a80       ?_Get_first@?$_Compressed_pair@U?$_Wrap_alloc@V?$allocator@K@std@@@std@@V?$_Vector_val@U?$_Simple_types@K@std@@@2@$00@std@@QBEABU?$_Wrap_alloc@V?$allocator@K@std@@@2@XZ 00444a80 f i frmOAM.obj
 0001:00043ab0       ?_Get_second@?$_Compressed_pair@U?$_Wrap_alloc@V?$allocator@K@std@@@std@@V?$_Vector_val@U?$_Simple_types@K@std@@@2@$00@std@@QBEABV?$_Vector_val@U?$_Simple_types@K@std@@@2@XZ 00444ab0 f i frmOAM.obj
 0001:00043ae0       ?_Getal@?$_Vector_alloc@U?$_Vec_base_types@KV?$allocator@K@std@@@std@@@std@@QAEAAU?$_Wrap_alloc@V?$allocator@K@std@@@2@XZ 00444ae0 f i frmOAM.obj
 0001:00043b20       ?_Getal@?$_Vector_alloc@U?$_Vec_base_types@KV?$allocator@K@std@@@std@@@std@@QBEABU?$_Wrap_alloc@V?$allocator@K@std@@@2@XZ 00444b20 f i frmOAM.obj
 0001:00043b60       ?_Myend@?$_Vector_alloc@U?$_Vec_base_types@KV?$allocator@K@std@@@std@@@std@@QAEAAPAKXZ 00444b60 f i frmOAM.obj
 0001:00043bb0       ?_Myfirst@?$_Vector_alloc@U?$_Vec_base_types@KV?$allocator@K@std@@@std@@@std@@QBEABQAKXZ 00444bb0 f i frmOAM.obj
 0001:00043c00       ?_Mylast@?$_Vector_alloc@U?$_Vec_base_types@KV?$allocator@K@std@@@std@@@std@@QAEAAPAKXZ 00444c00 f i frmOAM.obj
 0001:00043c50       ?_Mylast@?$_Vector_alloc@U?$_Vec_base_types@KV?$allocator@K@std@@@std@@@std@@QBEABQAKXZ 00444c50 f i frmOAM.obj
 0001:00043ca0       ?_Myproxy@?$_Vector_alloc@U?$_Vec_base_types@KV?$allocator@K@std@@@std@@@std@@QAEAAPAU_Container_proxy@2@XZ 00444ca0 f i frmOAM.obj
 0001:00043ce0       ?_Orphan_all@?$_Vector_alloc@U?$_Vec_base_types@KV?$allocator@K@std@@@std@@@std@@QAEXXZ 00444ce0 f i frmOAM.obj
 0001:00043d30       ?_Tidy@?$vector@KV?$allocator@K@std@@@std@@IAEXXZ 00444d30 f i frmOAM.obj
 0001:00043e00       ?_Unchecked@?$_Vector_const_iterator@V?$_Vector_val@U?$_Simple_types@K@std@@@std@@@std@@QBEPBKXZ 00444e00 f i frmOAM.obj
 0001:00043e30       ?_Xlen@?$vector@KV?$allocator@K@std@@@std@@IBEXXZ 00444e30 f i frmOAM.obj
 0001:00043e80       ?allocate@?$_Wrap_alloc@V?$allocator@K@std@@@std@@QAEPAKI@Z 00444e80 f i frmOAM.obj
 0001:00043ed0       ?allocate@?$allocator@K@std@@QAEPAKI@Z 00444ed0 f i frmOAM.obj
 0001:00043f20       ?begin@?$vector@KV?$allocator@K@std@@@std@@QBE?AV?$_Vector_const_iterator@V?$_Vector_val@U?$_Simple_types@K@std@@@std@@@2@XZ 00444f20 f i frmOAM.obj
 0001:00043fb0       ?deallocate@?$_Wrap_alloc@V?$allocator@K@std@@@std@@QAEXPAKI@Z 00444fb0 f i frmOAM.obj
 0001:00044000       ?deallocate@?$allocator@K@std@@QAEXPAKI@Z 00445000 f i frmOAM.obj
 0001:00044050       ?end@?$vector@KV?$allocator@K@std@@@std@@QBE?AV?$_Vector_const_iterator@V?$_Vector_val@U?$_Simple_types@K@std@@@std@@@2@XZ 00445050 f i frmOAM.obj
 0001:000440e0       ?max_size@?$_Wrap_alloc@V?$allocator@K@std@@@std@@QBEIU_Nil@2@@Z 004450e0 f i frmOAM.obj
 0001:00044130       ?max_size@?$allocator@K@std@@QBEIXZ 00445130 f i frmOAM.obj
 0001:00044160       ?max_size@?$allocator_traits@V?$allocator@K@std@@@std@@SAIABV?$allocator@K@2@@Z 00445160 f i frmOAM.obj
 0001:000441a0       ?max_size@?$vector@KV?$allocator@K@std@@@std@@QBEIXZ 004451a0 f i frmOAM.obj
 0001:000441f0       ?select_on_container_copy_construction@?$_Wrap_alloc@V?$allocator@K@std@@@std@@QBE?AU12@U_Nil@2@@Z 004451f0 f i frmOAM.obj
 0001:00044250       ?select_on_container_copy_construction@?$allocator_traits@V?$allocator@K@std@@@std@@SA?AV?$allocator@K@2@ABV32@@Z 00445250 f i frmOAM.obj
 0001:000442a0       ?size@?$vector@KV?$allocator@K@std@@@std@@QBEIXZ 004452a0 f i frmOAM.obj
 0001:00044300       ??$?0$$V@?$_Compressed_pair@U?$_Wrap_alloc@V?$allocator@K@std@@@std@@V?$_Vector_val@U?$_Simple_types@K@std@@@2@$00@std@@QAE@U_Zero_then_variadic_args_t@1@@Z 00445300 f i OamFrameTable.obj
 0001:00044350       ??$_Copy_memmove@PAKPAK@std@@YAPAKPAK00@Z 00445350 f i OamFrameTable.obj
 0001:000443c0       ??$_Ptr_move_cat@KK@std@@YA?AU_Really_trivial_ptr_iterator_tag@0@ABQAK0@Z 004453c0 f i OamFrameTable.obj
 0001:000443f0       ??$_Umove@PAK@?$vector@KV?$allocator@K@std@@@std@@IAEPAKPAK00@Z 004453f0 f i OamFrameTable.obj
 0001:00044450       ??$_Unfancy@K@std@@YAPAKPAK@Z 00445450 f i OamFrameTable.obj
 0001:00044480       ??$_Uninitialized_move@PAKPAKV?$allocator@K@std@@@std@@YAPAKPAK00AAU?$_Wrap_alloc@V?$allocator@K@std@@@0@@Z 00445480 f i OamFrameTable.obj
 0001:00044500       ??$_Uninitialized_move_al_unchecked1@KKV?$allocator@K@std@@@std@@YAPAKPAK00AAU?$_Wrap_alloc@V?$allocator@K@std@@@0@U_Really_trivial_ptr_iterator_tag@0@U?$integral_constant@_N$00@0@@Z 00445500 f i OamFrameTable.obj
 0001:00044550       ??$_Uninitialized_move_al_unchecked@PAKPAKV?$allocator@K@std@@@std@@YAPAKPAK00AAU?$_Wrap_alloc@V?$allocator@K@std@@@0@@Z 00445550 f i OamFrameTable.obj
 0001:000445c0       ??$addressof@$$CBK@std@@YAPBKABK@Z 004455c0 f i OamFrameTable.obj
 0001:000445f0       ??$construct@KAAK@?$_Wrap_alloc@V?$allocator@K@std@@@std@@QAEXPAKAAK@Z 004455f0 f i OamFrameTable.obj
 0001:00044650       ??$construct@KAAK@?$allocator@K@std@@QAEXPAKAAK@Z 00445650 f i OamFrameTable.obj
 0001:000446e0       ??$construct@KAAK@?$allocator_traits@V?$allocator@K@std@@@std@@SAXAAV?$allocator@K@1@PAKAAK@Z 004456e0 f i OamFrameTable.obj
 0001:00044730       ??$construct@KABK@?$_Wrap_alloc@V?$allocator@K@std@@@std@@QAEXPAKABK@Z 00445730 f i OamFrameTable.obj
 0001:00044790       ??$construct@KABK@?$allocator@K@std@@QAEXPAKABK@Z 00445790 f i OamFrameTable.obj
 0001:00044820       ??$construct@KABK@?$allocator_traits@V?$allocator@K@std@@@std@@SAXAAV?$allocator@K@1@PAKABK@Z 00445820 f i OamFrameTable.obj
 0001:00044870       ??$forward@AAK@std@@YAAAKAAK@Z 00445870 f i OamFrameTable.obj
 0001:000448a0       ??$forward@ABK@std@@YAABKABK@Z 004458a0 f i OamFrameTable.obj
 0001:000448d0       ??0?$_Vector_alloc@U?$_Vec_base_types@KV?$allocator@K@std@@@std@@@std@@QAE@XZ 004458d0 f i OamFrameTable.obj
 0001:00044960       ??0?$_Wrap_alloc@V?$allocator@K@std@@@std@@QAE@XZ 00445960 f i OamFrameTable.obj
 0001:000449b0       ??0?$allocator@K@std@@QAE@XZ 004459b0 f i OamFrameTable.obj
 0001:000449e0       ??0?$vector@KV?$allocator@K@std@@@std@@QAE@XZ 004459e0 f i OamFrameTable.obj
 0001:00044a50       ??0OamFrameTable@@QAE@HPAD@Z 00445a50 f   OamFrameTable.obj
 0001:00044b30       ?Read@OamFrameTable@@QAEXXZ 00445b30 f   OamFrameTable.obj
 0001:00044d20       ?_Getpfirst@?$_Vector_alloc@U?$_Vec_base_types@KV?$allocator@K@std@@@std@@@std@@QBEPAPAU_Iterator_base12@2@XZ 00445d20 f i OamFrameTable.obj
 0001:00044d70       ?_Grow_to@?$vector@KV?$allocator@K@std@@@std@@IBEII@Z 00445d70 f i OamFrameTable.obj
 0001:00044e00       ?_Inside@?$vector@KV?$allocator@K@std@@@std@@IBE_NPBK@Z 00445e00 f i OamFrameTable.obj
 0001:00044e90       ?_Myend@?$_Vector_alloc@U?$_Vec_base_types@KV?$allocator@K@std@@@std@@@std@@QBEABQAKXZ 00445e90 f i OamFrameTable.obj
 0001:00044ee0       ?_Orphan_range@?$vector@KV?$allocator@K@std@@@std@@IBEXPAK0@Z 00445ee0 f i OamFrameTable.obj
 0001:00044ff0       ?_Reallocate@?$vector@KV?$allocator@K@std@@@std@@IAEXI@Z 00445ff0 f i OamFrameTable.obj
 0001:00045180       ?_Reserve@?$vector@KV?$allocator@K@std@@@std@@IAEXI@Z 00446180 f i OamFrameTable.obj
 0001:00045210       ?_Unused_capacity@?$vector@KV?$allocator@K@std@@@std@@QBEIXZ 00446210 f i OamFrameTable.obj
 0001:00045270       ?capacity@?$vector@KV?$allocator@K@std@@@std@@QBEIXZ 00446270 f i OamFrameTable.obj
 0001:000452d0       ?clear@?$vector@KV?$allocator@K@std@@@std@@QAEXXZ 004462d0 f i OamFrameTable.obj
 0001:00045370       ?push_back@?$vector@KV?$allocator@K@std@@@std@@QAEXABK@Z 00446370 f i OamFrameTable.obj
 0001:00045520       ?CreatePalHWND@cOAMEdit@@QAEHXZ 00446520 f   OAMWinProcedureInit.obj
 0001:00045670       ?CreatePartHWND@cOAMEdit@@QAEHXZ 00446670 f   OAMWinProcedureInit.obj
 0001:00045760       ?CreateSpriteAnimationHWND@cOAMEdit@@QAEHXZ 00446760 f   OAMWinProcedureInit.obj
 0001:000458b0       ?CreateSpriteHWND@cOAMEdit@@QAEHXZ 004468b0 f   OAMWinProcedureInit.obj
 0001:00045a00       ?CreateTileHWND@cOAMEdit@@QAEHXZ 00446a00 f   OAMWinProcedureInit.obj
 0001:00045b50       ?ChangeColor@@YAHXZ        00446b50 f   PaletteEditor.obj
 0001:00045d50       ?LPProc@@YGHPAUHWND__@@IIJ@Z 00446d50 f   PaletteEditor.obj
 0001:000463c0       ?LoadColor@@YAHJ@Z         004473c0 f   PaletteEditor.obj
 0001:000466c0       ??0clsPreviewSprite@@QAE@XZ 004476c0 f   clsPreviewSprite.obj
 0001:00046760       ?Blit@clsPreviewSprite@@QAEXHPAUHDC__@@HHHHHH@Z 00447760 f   clsPreviewSprite.obj
 0001:000467d0       ?Blit@clsPreviewSprite@@QAEXPAUHDC__@@HHHHHH@Z 004477d0 f   clsPreviewSprite.obj
 0001:000468b0       ?CheckAddresses@clsPreviewSprite@@QAEXXZ 004478b0 f   clsPreviewSprite.obj
 0001:000469b0       ?ClearLayers@clsPreviewSprite@@QAEXXZ 004479b0 f   clsPreviewSprite.obj
 0001:00046a40       ?Create@clsPreviewSprite@@QAEXHH@Z 00447a40 f   clsPreviewSprite.obj
 0001:00046af0       ?Draw@clsPreviewSprite@@QAEXHAAVTileBuffer@@JJHH@Z 00447af0 f   clsPreviewSprite.obj
 0001:00046b60       ?GetFullImage@clsPreviewSprite@@QAE?AVImage@@XZ 00447b60 f   clsPreviewSprite.obj
 0001:00046bf0       ?GetLayer@clsPreviewSprite@@QAE?AVImage@@H@Z 00447bf0 f   clsPreviewSprite.obj
 0001:00046c60       ?RefreshImage@clsPreviewSprite@@QAEXXZ 00447c60 f   clsPreviewSprite.obj
 0001:00046ca0       ?SetAddresses@clsPreviewSprite@@QAEXXZ 00447ca0 f   clsPreviewSprite.obj
 0001:00046d40       ?SetPalette@clsPreviewSprite@@QAEXPAJHH@Z 00447d40 f   clsPreviewSprite.obj
 0001:00046de0       ?TransBlit@clsPreviewSprite@@QAEXPAUHDC__@@HHHHHH@Z 00447de0 f   clsPreviewSprite.obj
 0001:00046eb0       ?UpdateCache@clsPreviewSprite@@AAEXXZ 00447eb0 f   clsPreviewSprite.obj
 0001:00046f50       ?DrawBackGround@@YAHPAVImage@@@Z 00447f50 f   ROMFile.obj
 0001:000472a0       ?DrawLayer@@YAHPAVnMapBuffer@@E@Z 004482a0 f   ROMFile.obj
 0001:00047500       ?DrawLevel@@YAHXZ          00448500 f   ROMFile.obj
 0001:00047790       ?DrawRoom@@YAH_N00@Z       00448790 f   ROMFile.obj
 0001:00047c70       ?GetArrays@@YAHXZ          00448c70 f   ROMFile.obj
 0001:00047e20       ?GetLayerData@@YAHEEK@Z    00448e20 f   ROMFile.obj
 0001:00048190       ?GetMFArrays@@YAHXZ        00449190 f   ROMFile.obj
 0001:00048460       ?LoadData@@YAHXZ           00449460 f   ROMFile.obj
 0001:00048550       ?LoadHeader@@YAHJ@Z        00449550 f   ROMFile.obj
 0001:00048870       ?LoadMFROM@@YAHXZ          00449870 f   ROMFile.obj
 0001:000488e0       ?LoadZMROM@@YAHXZ          004498e0 f   ROMFile.obj
 0001:00048950       ?OpenRom@@YAXXZ            00449950 f   ROMFile.obj
 0001:00049210       ?SaveLevel@@YAHPAU_iobuf@@K@Z 0044a210 f   ROMFile.obj
 0001:00049520       ?ZMCompress@@YAHPAU_iobuf@@@Z 0044a520 f   ROMFile.obj
 0001:00049700       ??$?0$$V@?$_Compressed_pair@U?$_Wrap_alloc@V?$allocator@PAVFrameManager@@@std@@@std@@V?$_Vector_val@U?$_Simple_types@PAVFrameManager@@@std@@@2@$00@std@@QAE@U_Zero_then_variadic_args_t@1@@Z 0044a700 f i RoomClass.obj
 0001:00049750       ??$?0AAU?$_Wrap_alloc@V?$allocator@PAVFrameManager@@@std@@@std@@@?$_Wrap_alloc@V?$allocator@U_Container_proxy@std@@@std@@@std@@QAE@AAU?$_Wrap_alloc@V?$allocator@PAVFrameManager@@@std@@@1@@Z 0044a750 f i RoomClass.obj
 0001:000497b0       ??$?0PAVFrameManager@@@?$allocator@U_Container_proxy@std@@@std@@QAE@ABV?$allocator@PAVFrameManager@@@1@@Z 0044a7b0 f i RoomClass.obj
 0001:000497e0       ??$forward@AAU?$_Wrap_alloc@V?$allocator@PAVFrameManager@@@std@@@std@@@std@@YAAAU?$_Wrap_alloc@V?$allocator@PAVFrameManager@@@std@@@0@AAU10@@Z 0044a7e0 f i RoomClass.obj
 0001:00049810       ??0?$_Vector_alloc@U?$_Vec_base_types@PAVFrameManager@@V?$allocator@PAVFrameManager@@@std@@@std@@@std@@QAE@XZ 0044a810 f i RoomClass.obj
 0001:000498a0       ??0?$_Vector_val@U?$_Simple_types@PAVFrameManager@@@std@@@std@@QAE@XZ 0044a8a0 f i RoomClass.obj
 0001:00049900       ??0?$_Wrap_alloc@V?$allocator@PAVFrameManager@@@std@@@std@@QAE@XZ 0044a900 f i RoomClass.obj
 0001:00049950       ??0?$allocator@PAVFrameManager@@@std@@QAE@XZ 0044a950 f i RoomClass.obj
 0001:00049980       ??0?$vector@PAVFrameManager@@V?$allocator@PAVFrameManager@@@std@@@std@@QAE@XZ 0044a980 f i RoomClass.obj
 0001:000499f0       ??1?$_Compressed_pair@U?$_Wrap_alloc@V?$allocator@PAVFrameManager@@@std@@@std@@V?$_Vector_val@U?$_Simple_types@PAVFrameManager@@@std@@@2@$00@std@@QAE@XZ 0044a9f0 f i RoomClass.obj
 0001:00049a30       ??1?$_Vector_alloc@U?$_Vec_base_types@PAVFrameManager@@V?$allocator@PAVFrameManager@@@std@@@std@@@std@@QAE@XZ 0044aa30 f i RoomClass.obj
 0001:00049ab0       ??1?$_Vector_val@U?$_Simple_types@PAVFrameManager@@@std@@@std@@QAE@XZ 0044aab0 f i RoomClass.obj
 0001:00049af0       ??1?$vector@PAVFrameManager@@V?$allocator@PAVFrameManager@@@std@@@std@@QAE@XZ 0044aaf0 f i RoomClass.obj
 0001:00049b70       ?Load@RoomClass@@QAEXKPAU_iobuf@@@Z 0044ab70 f   RoomClass.obj
 0001:00049c50       ?_Alloc_proxy@?$_Vector_alloc@U?$_Vec_base_types@PAVFrameManager@@V?$allocator@PAVFrameManager@@@std@@@std@@@std@@QAEXXZ 0044ac50 f i RoomClass.obj
 0001:00049d20       ?_Free_proxy@?$_Vector_alloc@U?$_Vec_base_types@PAVFrameManager@@V?$allocator@PAVFrameManager@@@std@@@std@@@std@@QAEXXZ 0044ad20 f i RoomClass.obj
 0001:00049de0       ?_Myproxy@?$_Vector_alloc@U?$_Vec_base_types@PAVFrameManager@@V?$allocator@PAVFrameManager@@@std@@@std@@@std@@QAEAAPAU_Container_proxy@2@XZ 0044ade0 f i RoomClass.obj
 0001:00049e20       ?_Tidy@?$vector@PAVFrameManager@@V?$allocator@PAVFrameManager@@@std@@@std@@IAEXXZ 0044ae20 f i RoomClass.obj
 0001:00049ef0       ?ClearLayer@@YAXPAVnMapBuffer@@@Z 0044aef0 f   RoomOptions.obj
 0001:00049f60       ?ExtendedProc@@YGHPAUHWND__@@IIJ@Z 0044af60 f   RoomOptions.obj
 0001:0004aa70       ?LoadExtensions@@YAHXZ     0044ba70 f   RoomOptions.obj
 0001:0004abe0       ?ResizeLayer@@YAXPAVnMapBuffer@@HH@Z 0044bbe0 f   RoomOptions.obj
 0001:0004ace0       ??$?0U?$_Wrap_alloc@V?$allocator@G@std@@@std@@$$V@?$_Compressed_pair@U?$_Wrap_alloc@V?$allocator@G@std@@@std@@V?$_Vector_val@U?$_Simple_types@G@std@@@2@$00@std@@QAE@U_One_then_variadic_args_t@1@$$QAU?$_Wrap_alloc@V?$allocator@G@std@@@1@@Z 0044bce0 f i SceneryEditor.obj
 0001:0004ad40       ??$?0U?$_Wrap_alloc@V?$allocator@G@std@@@std@@X@?$_Vector_alloc@U?$_Vec_base_types@GV?$allocator@G@std@@@std@@@std@@QAE@$$QAU?$_Wrap_alloc@V?$allocator@G@std@@@1@@Z 0044bd40 f i SceneryEditor.obj
 0001:0004ade0       ??$?0V?$allocator@G@std@@@?$_Wrap_alloc@V?$allocator@G@std@@@std@@QAE@$$QAV?$allocator@G@1@@Z 0044bde0 f i SceneryEditor.obj
 0001:0004ae40       ??$_Copy_memmove@PBGPAG@std@@YAPAGPBG0PAG@Z 0044be40 f i SceneryEditor.obj
 0001:0004aeb0       ??$_Ptr_copy_cat@$$CBGG@std@@YA?AU_Really_trivial_ptr_iterator_tag@0@ABQBGABQAG@Z 0044beb0 f i SceneryEditor.obj
 0001:0004aee0       ??$_Ucopy@V?$_Vector_const_iterator@V?$_Vector_val@U?$_Simple_types@G@std@@@std@@@std@@@?$vector@GV?$allocator@G@std@@@std@@IAEPAGV?$_Vector_const_iterator@V?$_Vector_val@U?$_Simple_types@G@std@@@std@@@1@0PAG@Z 0044bee0 f i SceneryEditor.obj
 0001:0004afe0       ??$_Unchecked@V?$_Vector_val@U?$_Simple_types@G@std@@@std@@@std@@YAPBGV?$_Vector_const_iterator@V?$_Vector_val@U?$_Simple_types@G@std@@@std@@@0@@Z 0044bfe0 f i SceneryEditor.obj
 0001:0004b070       ??$_Uninitialized_copy@V?$_Vector_const_iterator@V?$_Vector_val@U?$_Simple_types@G@std@@@std@@@std@@PAGV?$allocator@G@2@@std@@YAPAGV?$_Vector_const_iterator@V?$_Vector_val@U?$_Simple_types@G@std@@@std@@@0@0PAGAAU?$_Wrap_alloc@V?$allocator@G@std@@@0@@Z 0044c070 f i SceneryEditor.obj
 0001:0004b190       ??$_Uninitialized_copy_al_unchecked1@$$CBGGV?$allocator@G@std@@@std@@YAPAGPBG0PAGAAU?$_Wrap_alloc@V?$allocator@G@std@@@0@U_Really_trivial_ptr_iterator_tag@0@U?$integral_constant@_N$00@0@@Z 0044c190 f i SceneryEditor.obj
 0001:0004b1e0       ??$_Uninitialized_copy_al_unchecked@PBGPAGV?$allocator@G@std@@@std@@YAPAGPBG0PAGAAU?$_Wrap_alloc@V?$allocator@G@std@@@0@@Z 0044c1e0 f i SceneryEditor.obj
 0001:0004b250       ??$forward@U?$_Wrap_alloc@V?$allocator@G@std@@@std@@@std@@YA$$QAU?$_Wrap_alloc@V?$allocator@G@std@@@0@AAU10@@Z 0044c250 f i SceneryEditor.obj
 0001:0004b280       ??$forward@V?$allocator@G@std@@@std@@YA$$QAV?$allocator@G@0@AAV10@@Z 0044c280 f i SceneryEditor.obj
 0001:0004b2b0       ??$move@AAU?$_Wrap_alloc@V?$allocator@G@std@@@std@@@std@@YA$$QAU?$_Wrap_alloc@V?$allocator@G@std@@@0@AAU10@@Z 0044c2b0 f i SceneryEditor.obj
 0001:0004b2e0       ??0?$_Wrap_alloc@V?$allocator@G@std@@@std@@QAE@$$QAU01@@Z 0044c2e0 f i SceneryEditor.obj
 0001:0004b340       ??0?$allocator@G@std@@QAE@ABV01@@Z 0044c340 f i SceneryEditor.obj
 0001:0004b370       ??0?$vector@GV?$allocator@G@std@@@std@@QAE@ABV01@@Z 0044c370 f i SceneryEditor.obj
 0001:0004b4c0       ??0cCopyData@@QAE@ABV0@@Z  0044c4c0 f i SceneryEditor.obj
 0001:0004b550       ??0cUndoBuffer@@QAE@ABV0@@Z 0044c550 f i SceneryEditor.obj
 0001:0004b5c0       ??0nMapBuffer@@QAE@ABV0@@Z 0044c5c0 f i SceneryEditor.obj
 0001:0004b770       ??0sUndo@@QAE@ABU0@@Z      0044c770 f i SceneryEditor.obj
 0001:0004b7d0       ?DrawGraphicTiles@@YAHXZ   0044c7d0 f   SceneryEditor.obj
 0001:0004b8e0       ?DrawThisScene@@YAHE@Z     0044c8e0 f   SceneryEditor.obj
 0001:0004c030       ?InitSceneryWindow@@YAHXZ  0044d030 f   SceneryEditor.obj
 0001:0004c160       ?InitTSWindow@@YAHXZ       0044d160 f   SceneryEditor.obj
 0001:0004c290       ?SWProc@@YGJPAUHWND__@@IIJ@Z 0044d290 f   SceneryEditor.obj
 0001:0004c8a0       ?SaveCurScene@@YAHXZ       0044d8a0 f   SceneryEditor.obj
 0001:0004cb40       ?SceneProc@@YGHPAUHWND__@@IIJ@Z 0044db40 f   SceneryEditor.obj
 0001:0004cfd0       ?TSWProc@@YGJPAUHWND__@@IIJ@Z 0044dfd0 f   SceneryEditor.obj
 0001:0004d490       ?_Unchecked@?$_Vector_const_iterator@V?$_Vector_val@U?$_Simple_types@G@std@@@std@@@std@@QBEPBGXZ 0044e490 f i SceneryEditor.obj
 0001:0004d4c0       ?begin@?$vector@GV?$allocator@G@std@@@std@@QBE?AV?$_Vector_const_iterator@V?$_Vector_val@U?$_Simple_types@G@std@@@std@@@2@XZ 0044e4c0 f i SceneryEditor.obj
 0001:0004d550       ?end@?$vector@GV?$allocator@G@std@@@std@@QBE?AV?$_Vector_const_iterator@V?$_Vector_val@U?$_Simple_types@G@std@@@std@@@2@XZ 0044e550 f i SceneryEditor.obj
 0001:0004d5e0       ?select_on_container_copy_construction@?$_Wrap_alloc@V?$allocator@G@std@@@std@@QBE?AU12@U_Nil@2@@Z 0044e5e0 f i SceneryEditor.obj
 0001:0004d640       ?select_on_container_copy_construction@?$allocator_traits@V?$allocator@G@std@@@std@@SA?AV?$allocator@G@2@ABV32@@Z 0044e640 f i SceneryEditor.obj
 0001:0004d690       ??0sChecks@@QAE@XZ         0044e690 f   sChecks.obj
 0001:0004d6e0       ??1sChecks@@QAE@XZ         0044e6e0 f   sChecks.obj
 0001:0004d750       ?SetCnt@sChecks@@QAEHPAUHWND__@@@Z 0044e750 f   sChecks.obj
 0001:0004d790       ?State@sChecks@@QAEH_N@Z   0044e790 f   sChecks.obj
 0001:0004d7f0       ?cClear@sChecks@@QAEHXZ    0044e7f0 f   sChecks.obj
 0001:0004d830       ?value@sChecks@@QAEHE@Z    0044e830 f   sChecks.obj
 0001:0004d8c0       ?value@sChecks@@QAEHXZ     0044e8c0 f   sChecks.obj
 0001:0004d920       ??0sCombo@@QAE@XZ          0044e920 f   sCombo.obj
 0001:0004d970       ??1sCombo@@QAE@XZ          0044e970 f   sCombo.obj
 0001:0004d9e0       ?Additem@sCombo@@QAEHPAD@Z 0044e9e0 f   sCombo.obj
 0001:0004da40       ?Clear@sCombo@@QAEHXZ      0044ea40 f   sCombo.obj
 0001:0004daa0       ?Disable@sCombo@@QAEHXZ    0044eaa0 f   sCombo.obj
 0001:0004daf0       ?Enable@sCombo@@QAEHXZ     0044eaf0 f   sCombo.obj
 0001:0004db40       ?GetHwnd@sCombo@@QAEPAUHWND__@@XZ 0044eb40 f   sCombo.obj
 0001:0004db70       ?GetListIndex@sCombo@@QAEJXZ 0044eb70 f   sCombo.obj
 0001:0004dbd0       ?Init@sCombo@@QAEHPAUHWND__@@@Z 0044ebd0 f   sCombo.obj
 0001:0004dc20       ?SetListIndex@sCombo@@QAEHH@Z 0044ec20 f   sCombo.obj
 0001:0004dc80       ?cClear@sCombo@@QAEHXZ     0044ec80 f   sCombo.obj
 0001:0004dcc0       ?ChangeScrollbars@@YAXPAUHWND__@@HH@Z 0044ecc0 f   ScrollBarHandle.obj
 0001:0004dee0       ?UpdateScroll@@YAXPAUHWND__@@IHHH@Z 0044eee0 f   ScrollBarHandle.obj
 0001:0004e210       ?DrawScrolls@@YAHHPAVScroller@@@Z 0044f210 f   Scrolls.obj
 0001:0004e430       ?LoadScrollControls@@YAXPAVScroller@@@Z 0044f430 f   Scrolls.obj
 0001:0004e530       ?LoadScrollInfo@@YAXHPAVScroller@@@Z 0044f530 f   Scrolls.obj
 0001:0004e7b0       ??0sList@@QAE@XZ           0044f7b0 f   sList.obj
 0001:0004e800       ??1sList@@QAE@XZ           0044f800 f   sList.obj
 0001:0004e870       ?Additem@sList@@QAEHPAD@Z  0044f870 f   sList.obj
 0001:0004e8d0       ?Clear@sList@@QAEHXZ       0044f8d0 f   sList.obj
 0001:0004e930       ?GetListIndex@sList@@QAEJXZ 0044f930 f   sList.obj
 0001:0004e990       ?Init@sList@@QAEHPAUHWND__@@@Z 0044f990 f   sList.obj
 0001:0004e9e0       ?SetListIndex@sList@@QAEHH@Z 0044f9e0 f   sList.obj
 0001:0004ea40       ?cClear@sList@@QAEHXZ      0044fa40 f   sList.obj
 0001:0004ea80       ??$_Move_unchecked1@PAUscrollData@@PAU1@@std@@YAPAUscrollData@@PAU1@00U_Trivially_copyable_ptr_iterator_tag@0@@Z 0044fa80 f i frmScrolls.obj
 0001:0004ead0       ??$_Move_unchecked@PAUscrollData@@PAU1@@std@@YAPAUscrollData@@PAU1@00@Z 0044fad0 f i frmScrolls.obj
 0001:0004eb40       ??0?$_Iterator012@Urandom_access_iterator_tag@std@@UscrollData@@HPBU3@ABU3@U_Iterator_base12@2@@std@@QAE@$$QAU01@@Z 0044fb40 f i frmScrolls.obj
 0001:0004eb90       ??0?$_Iterator012@Urandom_access_iterator_tag@std@@UscrollData@@HPBU3@ABU3@U_Iterator_base12@2@@std@@QAE@ABU01@@Z 0044fb90 f i frmScrolls.obj
 0001:0004ebe0       ??0?$_Iterator012@Urandom_access_iterator_tag@std@@UscrollData@@HPBU3@ABU3@U_Iterator_base12@2@@std@@QAE@XZ 0044fbe0 f i frmScrolls.obj
 0001:0004ec30       ??0?$_Vector_const_iterator@V?$_Vector_val@U?$_Simple_types@UscrollData@@@std@@@std@@@std@@QAE@$$QAV01@@Z 0044fc30 f i frmScrolls.obj
 0001:0004ec90       ??0?$_Vector_const_iterator@V?$_Vector_val@U?$_Simple_types@UscrollData@@@std@@@std@@@std@@QAE@ABV01@@Z 0044fc90 f i frmScrolls.obj
 0001:0004ecf0       ??0?$_Vector_const_iterator@V?$_Vector_val@U?$_Simple_types@UscrollData@@@std@@@std@@@std@@QAE@PAUscrollData@@PBU_Container_base12@1@@Z 0044fcf0 f i frmScrolls.obj
 0001:0004ed90       ??0?$_Vector_iterator@V?$_Vector_val@U?$_Simple_types@UscrollData@@@std@@@std@@@std@@QAE@ABV01@@Z 0044fd90 f i frmScrolls.obj
 0001:0004ede0       ??0?$_Vector_iterator@V?$_Vector_val@U?$_Simple_types@UscrollData@@@std@@@std@@@std@@QAE@PAUscrollData@@PBU_Container_base12@1@@Z 0044fde0 f i frmScrolls.obj
 0001:0004ee30       ??1?$_Iterator012@Urandom_access_iterator_tag@std@@UscrollData@@HPBU3@ABU3@U_Iterator_base12@2@@std@@QAE@XZ 0044fe30 f i frmScrolls.obj
 0001:0004ee70       ??1?$_Vector_const_iterator@V?$_Vector_val@U?$_Simple_types@UscrollData@@@std@@@std@@@std@@QAE@XZ 0044fe70 f i frmScrolls.obj
 0001:0004eeb0       ??1?$_Vector_iterator@V?$_Vector_val@U?$_Simple_types@UscrollData@@@std@@@std@@@std@@QAE@XZ 0044feb0 f i frmScrolls.obj
 0001:0004eef0       ??H?$_Vector_iterator@V?$_Vector_val@U?$_Simple_types@UscrollData@@@std@@@std@@@std@@QBE?AV01@H@Z 0044fef0 f i frmScrolls.obj
 0001:0004efe0       ??Y?$_Vector_const_iterator@V?$_Vector_val@U?$_Simple_types@UscrollData@@@std@@@std@@@std@@QAEAAV01@H@Z 0044ffe0 f i frmScrolls.obj
 0001:0004f0e0       ??Y?$_Vector_iterator@V?$_Vector_val@U?$_Simple_types@UscrollData@@@std@@@std@@@std@@QAEAAV01@H@Z 004500e0 f i frmScrolls.obj
 0001:0004f130       ?ScrollWndProc@@YGHPAUHWND__@@IIJ@Z 00450130 f   frmScrolls.obj
 0001:0004f450       ?_Make_iter@?$vector@UscrollData@@V?$allocator@UscrollData@@@std@@@std@@QBE?AV?$_Vector_iterator@V?$_Vector_val@U?$_Simple_types@UscrollData@@@std@@@std@@@2@V?$_Vector_const_iterator@V?$_Vector_val@U?$_Simple_types@UscrollData@@@std@@@std@@@2@@Z 00450450 f i frmScrolls.obj
 0001:0004f500       ?begin@?$vector@UscrollData@@V?$allocator@UscrollData@@@std@@@std@@QAE?AV?$_Vector_iterator@V?$_Vector_val@U?$_Simple_types@UscrollData@@@std@@@std@@@2@XZ 00450500 f i frmScrolls.obj
 0001:0004f590       ?erase@?$vector@UscrollData@@V?$allocator@UscrollData@@@std@@@std@@QAE?AV?$_Vector_iterator@V?$_Vector_val@U?$_Simple_types@UscrollData@@@std@@@std@@@2@V?$_Vector_const_iterator@V?$_Vector_val@U?$_Simple_types@UscrollData@@@std@@@std@@@2@@Z 00450590 f i frmScrolls.obj
 0001:0004f720       ??0SprGBuf@@QAE@PAEPAJ@Z   00450720 f   SprGBuf.obj
 0001:0004f7e0       ??0SprGBuf@@QAE@XZ         004507e0 f   SprGBuf.obj
 0001:0004f8a0       ??1SprGBuf@@QAE@XZ         004508a0 f   SprGBuf.obj
 0001:0004f940       ?Create@SprGBuf@@QAEXPAEPAJ@Z 00450940 f   SprGBuf.obj
 0001:0004fb10       ?LoadCurSprite@@YAHXZ      00450b10 f   Sprite Selector.obj
 0001:0004fc30       ?SSProc@@YGHPAUHWND__@@IIJ@Z 00450c30 f   Sprite Selector.obj
 0001:000501b0       ?SetCurSprite@@YAHXZ       004511b0 f   Sprite Selector.obj
 0001:00050370       ?_Xran@?$vector@PAVFrameManager@@V?$allocator@PAVFrameManager@@@std@@@std@@IBEXXZ 00451370 f i Sprite Selector.obj
 0001:000503c0       ?at@?$vector@PAVFrameManager@@V?$allocator@PAVFrameManager@@@std@@@std@@QAEAAPAVFrameManager@@I@Z 004513c0 f i Sprite Selector.obj
 0001:00050420       ?DrawPal@@YAHPAUHDC__@@PAJHHH@Z 00451420 f   SpriteEditor.obj
 0001:00050610       ?DrawPal@@YAXPAUHDC__@@PAJ@Z 00451610 f   SpriteEditor.obj
 0001:00050660       ?cSSEPalProc@@YGJPAUHWND__@@IIJ@Z 00451660 f   SpriteEditor.obj
 0001:00050790       ?cSSEProc@@YGHPAUHWND__@@IIJ@Z 00451790 f   SpriteEditor.obj
 0001:00051280       ?cSSESpriteProc@@YGJPAUHWND__@@IIJ@Z 00452280 f   SpriteEditor.obj
 0001:00051380       ??$?0$$V@?$_Compressed_pair@U?$_Wrap_alloc@V?$allocator@UnEnemies@@@std@@@std@@V?$_Vector_val@U?$_Simple_types@UnEnemies@@@std@@@2@$00@std@@QAE@U_Zero_then_variadic_args_t@1@@Z 00452380 f i SpriteObjectManager.obj
 0001:000513d0       ??$?0$$V@?$_Compressed_pair@U?$_Wrap_alloc@V?$allocator@UnEnemyList@@@std@@@std@@V?$_Vector_val@U?$_Simple_types@UnEnemyList@@@std@@@2@$00@std@@QAE@U_Zero_then_variadic_args_t@1@@Z 004523d0 f i SpriteObjectManager.obj
 0001:00051420       ??$?0AAU?$_Wrap_alloc@V?$allocator@UnEnemies@@@std@@@std@@@?$_Wrap_alloc@V?$allocator@U_Container_proxy@std@@@std@@@std@@QAE@AAU?$_Wrap_alloc@V?$allocator@UnEnemies@@@std@@@1@@Z 00452420 f i SpriteObjectManager.obj
 0001:00051480       ??$?0AAU?$_Wrap_alloc@V?$allocator@UnEnemyList@@@std@@@std@@@?$_Wrap_alloc@V?$allocator@U_Container_proxy@std@@@std@@@std@@QAE@AAU?$_Wrap_alloc@V?$allocator@UnEnemyList@@@std@@@1@@Z 00452480 f i SpriteObjectManager.obj
 0001:000514e0       ??$?0U?$_Wrap_alloc@V?$allocator@UnEnemies@@@std@@@std@@$$V@?$_Compressed_pair@U?$_Wrap_alloc@V?$allocator@UnEnemies@@@std@@@std@@V?$_Vector_val@U?$_Simple_types@UnEnemies@@@std@@@2@$00@std@@QAE@U_One_then_variadic_args_t@1@$$QAU?$_Wrap_alloc@V?$allocator@UnEnemies@@@std@@@1@@Z 004524e0 f i SpriteObjectManager.obj
 0001:00051540       ??$?0U?$_Wrap_alloc@V?$allocator@UnEnemies@@@std@@@std@@X@?$_Vector_alloc@U?$_Vec_base_types@UnEnemies@@V?$allocator@UnEnemies@@@std@@@std@@@std@@QAE@$$QAU?$_Wrap_alloc@V?$allocator@UnEnemies@@@std@@@1@@Z 00452540 f i SpriteObjectManager.obj
 0001:000515e0       ??$?0UnEnemies@@@?$allocator@U_Container_proxy@std@@@std@@QAE@ABV?$allocator@UnEnemies@@@1@@Z 004525e0 f i SpriteObjectManager.obj
 0001:00051610       ??$?0UnEnemyList@@@?$allocator@U_Container_proxy@std@@@std@@QAE@ABV?$allocator@UnEnemyList@@@1@@Z 00452610 f i SpriteObjectManager.obj
 0001:00051640       ??$?0V?$allocator@UnEnemies@@@std@@@?$_Wrap_alloc@V?$allocator@UnEnemies@@@std@@@std@@QAE@$$QAV?$allocator@UnEnemies@@@1@@Z 00452640 f i SpriteObjectManager.obj
 0001:000516a0       ??$_Copy_memmove@PAUnEnemies@@PAU1@@std@@YAPAUnEnemies@@PAU1@00@Z 004526a0 f i SpriteObjectManager.obj
 0001:00051710       ??$_Copy_memmove@PBUnEnemies@@PAU1@@std@@YAPAUnEnemies@@PBU1@0PAU1@@Z 00452710 f i SpriteObjectManager.obj
 0001:00051780       ??$_Destroy_range1@V?$allocator@UnEnemies@@@std@@PAUnEnemies@@@std@@YAXPAUnEnemies@@0AAU?$_Wrap_alloc@V?$allocator@UnEnemies@@@std@@@0@U?$integral_constant@_N$00@0@@Z 00452780 f i SpriteObjectManager.obj
 0001:000517b0       ??$_Destroy_range1@V?$allocator@UnEnemyList@@@std@@PAUnEnemyList@@@std@@YAXPAUnEnemyList@@0AAU?$_Wrap_alloc@V?$allocator@UnEnemyList@@@std@@@0@U?$integral_constant@_N$0A@@0@@Z 004527b0 f i SpriteObjectManager.obj
 0001:00051810       ??$_Destroy_range@V?$allocator@UnEnemies@@@std@@PAUnEnemies@@@std@@YAXPAUnEnemies@@0AAU?$_Wrap_alloc@V?$allocator@UnEnemies@@@std@@@0@@Z 00452810 f i SpriteObjectManager.obj
 0001:00051860       ??$_Destroy_range@V?$allocator@UnEnemyList@@@std@@PAUnEnemyList@@@std@@YAXPAUnEnemyList@@0AAU?$_Wrap_alloc@V?$allocator@UnEnemyList@@@std@@@0@@Z 00452860 f i SpriteObjectManager.obj
 0001:000518b0       ??$_Move_unchecked1@PAUnEnemies@@PAU1@@std@@YAPAUnEnemies@@PAU1@00U_Trivially_copyable_ptr_iterator_tag@0@@Z 004528b0 f i SpriteObjectManager.obj
 0001:00051900       ??$_Move_unchecked@PAUnEnemies@@PAU1@@std@@YAPAUnEnemies@@PAU1@00@Z 00452900 f i SpriteObjectManager.obj
 0001:00051970       ??$_Ptr_copy_cat@$$CBUnEnemies@@U1@@std@@YA?AU_Really_trivial_ptr_iterator_tag@0@ABQBUnEnemies@@ABQAU2@@Z 00452970 f i SpriteObjectManager.obj
 0001:000519a0       ??$_Ptr_move_cat@UnEnemies@@U1@@std@@YA?AU_Really_trivial_ptr_iterator_tag@0@ABQAUnEnemies@@0@Z 004529a0 f i SpriteObjectManager.obj
 0001:000519d0       ??$_Ptr_move_cat@UnEnemyList@@U1@@std@@YA?AU_General_ptr_iterator_tag@0@ABQAUnEnemyList@@0@Z 004529d0 f i SpriteObjectManager.obj
 0001:00051a10       ??$_Rechecked@PAUnEnemies@@PAU1@@std@@YAAAPAUnEnemies@@AAPAU1@PAU1@@Z 00452a10 f i SpriteObjectManager.obj
 0001:00051a40       ??$_Rechecked@PAUnEnemyList@@PAU1@@std@@YAAAPAUnEnemyList@@AAPAU1@PAU1@@Z 00452a40 f i SpriteObjectManager.obj
 0001:00051a70       ??$_Ucopy@V?$_Vector_const_iterator@V?$_Vector_val@U?$_Simple_types@UnEnemies@@@std@@@std@@@std@@@?$vector@UnEnemies@@V?$allocator@UnEnemies@@@std@@@std@@IAEPAUnEnemies@@V?$_Vector_const_iterator@V?$_Vector_val@U?$_Simple_types@UnEnemies@@@std@@@std@@@1@0PAU2@@Z 00452a70 f i SpriteObjectManager.obj
 0001:00051b70       ??$_Umove@PAUnEnemies@@@?$vector@UnEnemies@@V?$allocator@UnEnemies@@@std@@@std@@IAEPAUnEnemies@@PAU2@00@Z 00452b70 f i SpriteObjectManager.obj
 0001:00051bd0       ??$_Umove@PAUnEnemyList@@@?$vector@UnEnemyList@@V?$allocator@UnEnemyList@@@std@@@std@@IAEPAUnEnemyList@@PAU2@00@Z 00452bd0 f i SpriteObjectManager.obj
 0001:00051c30       ??$_Unchecked@PAUnEnemies@@@std@@YAPAUnEnemies@@PAU1@@Z 00452c30 f i SpriteObjectManager.obj
 0001:00051c60       ??$_Unchecked@PAUnEnemyList@@@std@@YAPAUnEnemyList@@PAU1@@Z 00452c60 f i SpriteObjectManager.obj
 0001:00051c90       ??$_Unchecked@V?$_Vector_val@U?$_Simple_types@UnEnemies@@@std@@@std@@@std@@YAPBUnEnemies@@V?$_Vector_const_iterator@V?$_Vector_val@U?$_Simple_types@UnEnemies@@@std@@@std@@@0@@Z 00452c90 f i SpriteObjectManager.obj
 0001:00051d20       ??$_Unfancy@UnEnemies@@@std@@YAPAUnEnemies@@PAU1@@Z 00452d20 f i SpriteObjectManager.obj
 0001:00051d50       ??$_Unfancy@UnEnemyList@@@std@@YAPAUnEnemyList@@PAU1@@Z 00452d50 f i SpriteObjectManager.obj
 0001:00051d80       ??$_Uninitialized_copy@V?$_Vector_const_iterator@V?$_Vector_val@U?$_Simple_types@UnEnemies@@@std@@@std@@@std@@PAUnEnemies@@V?$allocator@UnEnemies@@@2@@std@@YAPAUnEnemies@@V?$_Vector_const_iterator@V?$_Vector_val@U?$_Simple_types@UnEnemies@@@std@@@std@@@0@0PAU1@AAU?$_Wrap_alloc@V?$allocator@UnEnemies@@@std@@@0@@Z 00452d80 f i SpriteObjectManager.obj
 0001:00051ea0       ??$_Uninitialized_copy_al_unchecked1@$$CBUnEnemies@@U1@V?$allocator@UnEnemies@@@std@@@std@@YAPAUnEnemies@@PBU1@0PAU1@AAU?$_Wrap_alloc@V?$allocator@UnEnemies@@@std@@@0@U_Really_trivial_ptr_iterator_tag@0@U?$integral_constant@_N$00@0@@Z 00452ea0 f i SpriteObjectManager.obj
 0001:00051ef0       ??$_Uninitialized_copy_al_unchecked@PBUnEnemies@@PAU1@V?$allocator@UnEnemies@@@std@@@std@@YAPAUnEnemies@@PBU1@0PAU1@AAU?$_Wrap_alloc@V?$allocator@UnEnemies@@@std@@@0@@Z 00452ef0 f i SpriteObjectManager.obj
 0001:00051f60       ??$_Uninitialized_move@PAUnEnemies@@PAU1@V?$allocator@UnEnemies@@@std@@@std@@YAPAUnEnemies@@PAU1@00AAU?$_Wrap_alloc@V?$allocator@UnEnemies@@@std@@@0@@Z 00452f60 f i SpriteObjectManager.obj
 0001:00051fe0       ??$_Uninitialized_move@PAUnEnemyList@@PAU1@V?$allocator@UnEnemyList@@@std@@@std@@YAPAUnEnemyList@@PAU1@00AAU?$_Wrap_alloc@V?$allocator@UnEnemyList@@@std@@@0@@Z 00452fe0 f i SpriteObjectManager.obj
 0001:00052060       ??$_Uninitialized_move_al_unchecked1@PAUnEnemyList@@PAU1@V?$allocator@UnEnemyList@@@std@@@std@@YAPAUnEnemyList@@PAU1@00AAU?$_Wrap_alloc@V?$allocator@UnEnemyList@@@std@@@0@U_General_ptr_iterator_tag@0@U_Any_tag@0@@Z 00453060 f i SpriteObjectManager.obj
 0001:00052160       ??$_Uninitialized_move_al_unchecked1@UnEnemies@@U1@V?$allocator@UnEnemies@@@std@@@std@@YAPAUnEnemies@@PAU1@00AAU?$_Wrap_alloc@V?$allocator@UnEnemies@@@std@@@0@U_Really_trivial_ptr_iterator_tag@0@U?$integral_constant@_N$00@0@@Z 00453160 f i SpriteObjectManager.obj
 0001:000521b0       ??$_Uninitialized_move_al_unchecked@PAUnEnemies@@PAU1@V?$allocator@UnEnemies@@@std@@@std@@YAPAUnEnemies@@PAU1@00AAU?$_Wrap_alloc@V?$allocator@UnEnemies@@@std@@@0@@Z 004531b0 f i SpriteObjectManager.obj
 0001:00052220       ??$_Uninitialized_move_al_unchecked@PAUnEnemyList@@PAU1@V?$allocator@UnEnemyList@@@std@@@std@@YAPAUnEnemyList@@PAU1@00AAU?$_Wrap_alloc@V?$allocator@UnEnemyList@@@std@@@0@@Z 00453220 f i SpriteObjectManager.obj
 0001:000522a0       ??$addressof@$$CBUnEnemies@@@std@@YAPBUnEnemies@@ABU1@@Z 004532a0 f i SpriteObjectManager.obj
 0001:000522d0       ??$addressof@$$CBUnEnemyList@@@std@@YAPBUnEnemyList@@ABU1@@Z 004532d0 f i SpriteObjectManager.obj
 0001:00052300       ??$construct@UnEnemies@@AAU1@@?$_Wrap_alloc@V?$allocator@UnEnemies@@@std@@@std@@QAEXPAUnEnemies@@AAU2@@Z 00453300 f i SpriteObjectManager.obj
 0001:00052360       ??$construct@UnEnemies@@AAU1@@?$allocator@UnEnemies@@@std@@QAEXPAUnEnemies@@AAU2@@Z 00453360 f i SpriteObjectManager.obj
 0001:000523f0       ??$construct@UnEnemies@@AAU1@@?$allocator_traits@V?$allocator@UnEnemies@@@std@@@std@@SAXAAV?$allocator@UnEnemies@@@1@PAUnEnemies@@AAU3@@Z 004533f0 f i SpriteObjectManager.obj
 0001:00052440       ??$construct@UnEnemies@@ABU1@@?$_Wrap_alloc@V?$allocator@UnEnemies@@@std@@@std@@QAEXPAUnEnemies@@ABU2@@Z 00453440 f i SpriteObjectManager.obj
 0001:000524a0       ??$construct@UnEnemies@@ABU1@@?$allocator@UnEnemies@@@std@@QAEXPAUnEnemies@@ABU2@@Z 004534a0 f i SpriteObjectManager.obj
 0001:00052530       ??$construct@UnEnemies@@ABU1@@?$allocator_traits@V?$allocator@UnEnemies@@@std@@@std@@SAXAAV?$allocator@UnEnemies@@@1@PAUnEnemies@@ABU3@@Z 00453530 f i SpriteObjectManager.obj
 0001:00052580       ??$construct@UnEnemyList@@AAU1@@?$_Wrap_alloc@V?$allocator@UnEnemyList@@@std@@@std@@QAEXPAUnEnemyList@@AAU2@@Z 00453580 f i SpriteObjectManager.obj
 0001:000525e0       ??$construct@UnEnemyList@@AAU1@@?$allocator@UnEnemyList@@@std@@QAEXPAUnEnemyList@@AAU2@@Z 004535e0 f i SpriteObjectManager.obj
 0001:000526b0       ??$construct@UnEnemyList@@AAU1@@?$allocator_traits@V?$allocator@UnEnemyList@@@std@@@std@@SAXAAV?$allocator@UnEnemyList@@@1@PAUnEnemyList@@AAU3@@Z 004536b0 f i SpriteObjectManager.obj
 0001:00052700       ??$construct@UnEnemyList@@ABU1@@?$_Wrap_alloc@V?$allocator@UnEnemyList@@@std@@@std@@QAEXPAUnEnemyList@@ABU2@@Z 00453700 f i SpriteObjectManager.obj
 0001:00052760       ??$construct@UnEnemyList@@ABU1@@?$allocator@UnEnemyList@@@std@@QAEXPAUnEnemyList@@ABU2@@Z 00453760 f i SpriteObjectManager.obj
 0001:00052830       ??$construct@UnEnemyList@@ABU1@@?$allocator_traits@V?$allocator@UnEnemyList@@@std@@@std@@SAXAAV?$allocator@UnEnemyList@@@1@PAUnEnemyList@@ABU3@@Z 00453830 f i SpriteObjectManager.obj
 0001:00052880       ??$construct@UnEnemyList@@U1@@?$_Wrap_alloc@V?$allocator@UnEnemyList@@@std@@@std@@QAEXPAUnEnemyList@@$$QAU2@@Z 00453880 f i SpriteObjectManager.obj
 0001:000528e0       ??$construct@UnEnemyList@@U1@@?$allocator@UnEnemyList@@@std@@QAEXPAUnEnemyList@@$$QAU2@@Z 004538e0 f i SpriteObjectManager.obj
 0001:00052960       ??$construct@UnEnemyList@@U1@@?$allocator_traits@V?$allocator@UnEnemyList@@@std@@@std@@SAXAAV?$allocator@UnEnemyList@@@1@PAUnEnemyList@@$$QAU3@@Z 00453960 f i SpriteObjectManager.obj
 0001:000529b0       ??$destroy@UnEnemyList@@@?$_Wrap_alloc@V?$allocator@UnEnemyList@@@std@@@std@@QAEXPAUnEnemyList@@@Z 004539b0 f i SpriteObjectManager.obj
 0001:00052a00       ??$destroy@UnEnemyList@@@?$allocator@UnEnemyList@@@std@@QAEXPAUnEnemyList@@@Z 00453a00 f i SpriteObjectManager.obj
 0001:00052a50       ??$destroy@UnEnemyList@@@?$allocator_traits@V?$allocator@UnEnemyList@@@std@@@std@@SAXAAV?$allocator@UnEnemyList@@@1@PAUnEnemyList@@@Z 00453a50 f i SpriteObjectManager.obj
 0001:00052a90       ??$forward@AAU?$_Wrap_alloc@V?$allocator@UnEnemies@@@std@@@std@@@std@@YAAAU?$_Wrap_alloc@V?$allocator@UnEnemies@@@std@@@0@AAU10@@Z 00453a90 f i SpriteObjectManager.obj
 0001:00052ac0       ??$forward@AAU?$_Wrap_alloc@V?$allocator@UnEnemyList@@@std@@@std@@@std@@YAAAU?$_Wrap_alloc@V?$allocator@UnEnemyList@@@std@@@0@AAU10@@Z 00453ac0 f i SpriteObjectManager.obj
 0001:00052af0       ??$forward@AAUnEnemies@@@std@@YAAAUnEnemies@@AAU1@@Z 00453af0 f i SpriteObjectManager.obj
 0001:00052b20       ??$forward@AAUnEnemyList@@@std@@YAAAUnEnemyList@@AAU1@@Z 00453b20 f i SpriteObjectManager.obj
 0001:00052b50       ??$forward@ABUnEnemies@@@std@@YAABUnEnemies@@ABU1@@Z 00453b50 f i SpriteObjectManager.obj
 0001:00052b80       ??$forward@ABUnEnemyList@@@std@@YAABUnEnemyList@@ABU1@@Z 00453b80 f i SpriteObjectManager.obj
 0001:00052bb0       ??$forward@U?$_Wrap_alloc@V?$allocator@UnEnemies@@@std@@@std@@@std@@YA$$QAU?$_Wrap_alloc@V?$allocator@UnEnemies@@@std@@@0@AAU10@@Z 00453bb0 f i SpriteObjectManager.obj
 0001:00052be0       ??$forward@UnEnemyList@@@std@@YA$$QAUnEnemyList@@AAU1@@Z 00453be0 f i SpriteObjectManager.obj
 0001:00052c10       ??$forward@V?$allocator@UnEnemies@@@std@@@std@@YA$$QAV?$allocator@UnEnemies@@@0@AAV10@@Z 00453c10 f i SpriteObjectManager.obj
 0001:00052c40       ??$forward@V?$vector@UnEnemies@@V?$allocator@UnEnemies@@@std@@@std@@@std@@YA$$QAV?$vector@UnEnemies@@V?$allocator@UnEnemies@@@std@@@0@AAV10@@Z 00453c40 f i SpriteObjectManager.obj
 0001:00052c70       ??$move@AAU?$_Wrap_alloc@V?$allocator@UnEnemies@@@std@@@std@@@std@@YA$$QAU?$_Wrap_alloc@V?$allocator@UnEnemies@@@std@@@0@AAU10@@Z 00453c70 f i SpriteObjectManager.obj
 0001:00052ca0       ??$move@AAUnEnemyList@@@std@@YA$$QAUnEnemyList@@AAU1@@Z 00453ca0 f i SpriteObjectManager.obj
 0001:00052cd0       ??0?$_Iterator012@Urandom_access_iterator_tag@std@@UnEnemies@@HPBU3@ABU3@U_Iterator_base12@2@@std@@QAE@$$QAU01@@Z 00453cd0 f i SpriteObjectManager.obj
 0001:00052d20       ??0?$_Iterator012@Urandom_access_iterator_tag@std@@UnEnemies@@HPBU3@ABU3@U_Iterator_base12@2@@std@@QAE@ABU01@@Z 00453d20 f i SpriteObjectManager.obj
 0001:00052d70       ??0?$_Iterator012@Urandom_access_iterator_tag@std@@UnEnemies@@HPBU3@ABU3@U_Iterator_base12@2@@std@@QAE@XZ 00453d70 f i SpriteObjectManager.obj
 0001:00052dc0       ??0?$_Vector_alloc@U?$_Vec_base_types@UnEnemies@@V?$allocator@UnEnemies@@@std@@@std@@@std@@QAE@XZ 00453dc0 f i SpriteObjectManager.obj
 0001:00052e50       ??0?$_Vector_alloc@U?$_Vec_base_types@UnEnemyList@@V?$allocator@UnEnemyList@@@std@@@std@@@std@@QAE@XZ 00453e50 f i SpriteObjectManager.obj
 0001:00052ee0       ??0?$_Vector_const_iterator@V?$_Vector_val@U?$_Simple_types@UnEnemies@@@std@@@std@@@std@@QAE@$$QAV01@@Z 00453ee0 f i SpriteObjectManager.obj
 0001:00052f40       ??0?$_Vector_const_iterator@V?$_Vector_val@U?$_Simple_types@UnEnemies@@@std@@@std@@@std@@QAE@ABV01@@Z 00453f40 f i SpriteObjectManager.obj
 0001:00052fa0       ??0?$_Vector_const_iterator@V?$_Vector_val@U?$_Simple_types@UnEnemies@@@std@@@std@@@std@@QAE@PAUnEnemies@@PBU_Container_base12@1@@Z 00453fa0 f i SpriteObjectManager.obj
 0001:00053040       ??0?$_Vector_iterator@V?$_Vector_val@U?$_Simple_types@UnEnemies@@@std@@@std@@@std@@QAE@ABV01@@Z 00454040 f i SpriteObjectManager.obj
 0001:00053090       ??0?$_Vector_iterator@V?$_Vector_val@U?$_Simple_types@UnEnemies@@@std@@@std@@@std@@QAE@PAUnEnemies@@PBU_Container_base12@1@@Z 00454090 f i SpriteObjectManager.obj
 0001:000530e0       ??0?$_Vector_val@U?$_Simple_types@UnEnemies@@@std@@@std@@QAE@XZ 004540e0 f i SpriteObjectManager.obj
 0001:00053140       ??0?$_Vector_val@U?$_Simple_types@UnEnemyList@@@std@@@std@@QAE@XZ 00454140 f i SpriteObjectManager.obj
 0001:000531a0       ??0?$_Wrap_alloc@V?$allocator@UnEnemies@@@std@@@std@@QAE@$$QAU01@@Z 004541a0 f i SpriteObjectManager.obj
 0001:00053200       ??0?$_Wrap_alloc@V?$allocator@UnEnemies@@@std@@@std@@QAE@XZ 00454200 f i SpriteObjectManager.obj
 0001:00053250       ??0?$_Wrap_alloc@V?$allocator@UnEnemyList@@@std@@@std@@QAE@XZ 00454250 f i SpriteObjectManager.obj
 0001:000532a0       ??0?$allocator@UnEnemies@@@std@@QAE@ABV01@@Z 004542a0 f i SpriteObjectManager.obj
 0001:000532d0       ??0?$allocator@UnEnemies@@@std@@QAE@XZ 004542d0 f i SpriteObjectManager.obj
 0001:00053300       ??0?$allocator@UnEnemyList@@@std@@QAE@XZ 00454300 f i SpriteObjectManager.obj
 0001:00053330       ??0?$vector@UnEnemies@@V?$allocator@UnEnemies@@@std@@@std@@QAE@$$QAV01@@Z 00454330 f i SpriteObjectManager.obj
 0001:000533d0       ??0?$vector@UnEnemies@@V?$allocator@UnEnemies@@@std@@@std@@QAE@ABV01@@Z 004543d0 f i SpriteObjectManager.obj
 0001:00053520       ??0?$vector@UnEnemies@@V?$allocator@UnEnemies@@@std@@@std@@QAE@XZ 00454520 f i SpriteObjectManager.obj
 0001:00053590       ??0?$vector@UnEnemyList@@V?$allocator@UnEnemyList@@@std@@@std@@QAE@XZ 00454590 f i SpriteObjectManager.obj
 0001:00053600       ??0SpriteObjectManager@@QAE@H@Z 00454600 f   SpriteObjectManager.obj
 0001:00053720       ??0nEnemyList@@QAE@$$QAU0@@Z 00454720 f i SpriteObjectManager.obj
 0001:00053780       ??0nEnemyList@@QAE@ABU0@@Z 00454780 f i SpriteObjectManager.obj
 0001:000537e0       ??0nEnemyList@@QAE@XZ      004547e0 f i SpriteObjectManager.obj
 0001:00053830       ??1?$_Compressed_pair@U?$_Wrap_alloc@V?$allocator@UnEnemies@@@std@@@std@@V?$_Vector_val@U?$_Simple_types@UnEnemies@@@std@@@2@$00@std@@QAE@XZ 00454830 f i SpriteObjectManager.obj
 0001:00053870       ??1?$_Compressed_pair@U?$_Wrap_alloc@V?$allocator@UnEnemyList@@@std@@@std@@V?$_Vector_val@U?$_Simple_types@UnEnemyList@@@std@@@2@$00@std@@QAE@XZ 00454870 f i SpriteObjectManager.obj
 0001:000538b0       ??1?$_Iterator012@Urandom_access_iterator_tag@std@@UnEnemies@@HPBU3@ABU3@U_Iterator_base12@2@@std@@QAE@XZ 004548b0 f i SpriteObjectManager.obj
 0001:000538f0       ??1?$_Vector_alloc@U?$_Vec_base_types@UnEnemies@@V?$allocator@UnEnemies@@@std@@@std@@@std@@QAE@XZ 004548f0 f i SpriteObjectManager.obj
 0001:00053970       ??1?$_Vector_alloc@U?$_Vec_base_types@UnEnemyList@@V?$allocator@UnEnemyList@@@std@@@std@@@std@@QAE@XZ 00454970 f i SpriteObjectManager.obj
 0001:000539f0       ??1?$_Vector_const_iterator@V?$_Vector_val@U?$_Simple_types@UnEnemies@@@std@@@std@@@std@@QAE@XZ 004549f0 f i SpriteObjectManager.obj
 0001:00053a30       ??1?$_Vector_iterator@V?$_Vector_val@U?$_Simple_types@UnEnemies@@@std@@@std@@@std@@QAE@XZ 00454a30 f i SpriteObjectManager.obj
 0001:00053a70       ??1?$_Vector_val@U?$_Simple_types@UnEnemies@@@std@@@std@@QAE@XZ 00454a70 f i SpriteObjectManager.obj
 0001:00053ab0       ??1?$_Vector_val@U?$_Simple_types@UnEnemyList@@@std@@@std@@QAE@XZ 00454ab0 f i SpriteObjectManager.obj
 0001:00053af0       ??1?$vector@UnEnemies@@V?$allocator@UnEnemies@@@std@@@std@@QAE@XZ 00454af0 f i SpriteObjectManager.obj
 0001:00053b70       ??1?$vector@UnEnemyList@@V?$allocator@UnEnemyList@@@std@@@std@@QAE@XZ 00454b70 f i SpriteObjectManager.obj
 0001:00053bf0       ??1nEnemyList@@QAE@XZ      00454bf0 f i SpriteObjectManager.obj
 0001:00053c40       ??H?$_Vector_iterator@V?$_Vector_val@U?$_Simple_types@UnEnemies@@@std@@@std@@@std@@QBE?AV01@H@Z 00454c40 f i SpriteObjectManager.obj
 0001:00053d30       ??Y?$_Vector_const_iterator@V?$_Vector_val@U?$_Simple_types@UnEnemies@@@std@@@std@@@std@@QAEAAV01@H@Z 00454d30 f i SpriteObjectManager.obj
 0001:00053e30       ??Y?$_Vector_iterator@V?$_Vector_val@U?$_Simple_types@UnEnemies@@@std@@@std@@@std@@QAEAAV01@H@Z 00454e30 f i SpriteObjectManager.obj
 0001:00053e80       ??_GnEnemyList@@QAEPAXI@Z  00454e80 f i SpriteObjectManager.obj
 0001:00053ee0       ?AddSpriteObject@SpriteObjectManager@@QAEXH@Z 00454ee0 f   SpriteObjectManager.obj
 0001:00053fa0       ?DeleteSpriteObject@SpriteObjectManager@@QAEXHH@Z 00454fa0 f   SpriteObjectManager.obj
 0001:00054120       ?ExportGFX@SpriteObjectManager@@QAEHXZ 00455120 f   SpriteObjectManager.obj
 0001:00054260       ?ExportPal@SpriteObjectManager@@QAEHXZ 00455260 f   SpriteObjectManager.obj
 0001:00054400       ?ImportGFX@SpriteObjectManager@@QAEHXZ 00455400 f   SpriteObjectManager.obj
 0001:00054770       ?ImportPal@SpriteObjectManager@@QAEHH@Z 00455770 f   SpriteObjectManager.obj
 0001:00054a40       ?InitPosArray@@YAHXZ       00455a40 f   SpriteObjectManager.obj
 0001:00054dc0       ?LoadEnemies@SpriteObjectManager@@QAEHPAURHeader@@@Z 00455dc0 f   SpriteObjectManager.obj
 0001:00054fb0       ?PopulateSpriteArray@SpriteObjectManager@@QAEHH@Z 00455fb0 f   SpriteObjectManager.obj
 0001:000551a0       ?SaveGFX@SpriteObjectManager@@QAEHH@Z 004561a0 f   SpriteObjectManager.obj
 0001:00055530       ?SavePal@SpriteObjectManager@@QAEHH@Z 00456530 f   SpriteObjectManager.obj
 0001:000556e0       ?SavePal@SpriteObjectManager@@QAEHPAUPalData@@PAUsprite_entry@@PAJ@Z 004566e0 f   SpriteObjectManager.obj
 0001:00055890       ?SaveSprites@SpriteObjectManager@@QAEHPAURHeader@@@Z 00456890 f   SpriteObjectManager.obj
 0001:00055ac0       ?ShowSprites@SpriteObjectManager@@QAEHPAUHWND__@@EPAVBackBuffer@@PAPAK@Z 00456ac0 f   SpriteObjectManager.obj
 0001:00055f80       ?_Alloc_proxy@?$_Vector_alloc@U?$_Vec_base_types@UnEnemies@@V?$allocator@UnEnemies@@@std@@@std@@@std@@QAEXXZ 00456f80 f i SpriteObjectManager.obj
 0001:00056050       ?_Alloc_proxy@?$_Vector_alloc@U?$_Vec_base_types@UnEnemyList@@V?$allocator@UnEnemyList@@@std@@@std@@@std@@QAEXXZ 00457050 f i SpriteObjectManager.obj
 0001:00056120       ?_Assign_rv@?$vector@UnEnemies@@V?$allocator@UnEnemies@@@std@@@std@@QAEX$$QAV12@U?$integral_constant@_N$00@2@@Z 00457120 f i SpriteObjectManager.obj
 0001:000561e0       ?_Buy@?$vector@UnEnemies@@V?$allocator@UnEnemies@@@std@@@std@@IAE_NI@Z 004571e0 f i SpriteObjectManager.obj
 0001:000562c0       ?_Destroy@?$vector@UnEnemies@@V?$allocator@UnEnemies@@@std@@@std@@IAEXPAUnEnemies@@0@Z 004572c0 f i SpriteObjectManager.obj
 0001:00056320       ?_Destroy@?$vector@UnEnemyList@@V?$allocator@UnEnemyList@@@std@@@std@@IAEXPAUnEnemyList@@0@Z 00457320 f i SpriteObjectManager.obj
 0001:00056380       ?_Free_proxy@?$_Vector_alloc@U?$_Vec_base_types@UnEnemies@@V?$allocator@UnEnemies@@@std@@@std@@@std@@QAEXXZ 00457380 f i SpriteObjectManager.obj
 0001:00056440       ?_Free_proxy@?$_Vector_alloc@U?$_Vec_base_types@UnEnemyList@@V?$allocator@UnEnemyList@@@std@@@std@@@std@@QAEXXZ 00457440 f i SpriteObjectManager.obj
 0001:00056500       ?_Get_first@?$_Compressed_pair@U?$_Wrap_alloc@V?$allocator@UnEnemies@@@std@@@std@@V?$_Vector_val@U?$_Simple_types@UnEnemies@@@std@@@2@$00@std@@QAEAAU?$_Wrap_alloc@V?$allocator@UnEnemies@@@std@@@2@XZ 00457500 f i SpriteObjectManager.obj
 0001:00056530       ?_Get_first@?$_Compressed_pair@U?$_Wrap_alloc@V?$allocator@UnEnemies@@@std@@@std@@V?$_Vector_val@U?$_Simple_types@UnEnemies@@@std@@@2@$00@std@@QBEABU?$_Wrap_alloc@V?$allocator@UnEnemies@@@std@@@2@XZ 00457530 f i SpriteObjectManager.obj
 0001:00056560       ?_Get_first@?$_Compressed_pair@U?$_Wrap_alloc@V?$allocator@UnEnemyList@@@std@@@std@@V?$_Vector_val@U?$_Simple_types@UnEnemyList@@@std@@@2@$00@std@@QAEAAU?$_Wrap_alloc@V?$allocator@UnEnemyList@@@std@@@2@XZ 00457560 f i SpriteObjectManager.obj
 0001:00056590       ?_Get_first@?$_Compressed_pair@U?$_Wrap_alloc@V?$allocator@UnEnemyList@@@std@@@std@@V?$_Vector_val@U?$_Simple_types@UnEnemyList@@@std@@@2@$00@std@@QBEABU?$_Wrap_alloc@V?$allocator@UnEnemyList@@@std@@@2@XZ 00457590 f i SpriteObjectManager.obj
 0001:000565c0       ?_Getal@?$_Vector_alloc@U?$_Vec_base_types@UnEnemies@@V?$allocator@UnEnemies@@@std@@@std@@@std@@QAEAAU?$_Wrap_alloc@V?$allocator@UnEnemies@@@std@@@2@XZ 004575c0 f i SpriteObjectManager.obj
 0001:00056600       ?_Getal@?$_Vector_alloc@U?$_Vec_base_types@UnEnemies@@V?$allocator@UnEnemies@@@std@@@std@@@std@@QBEABU?$_Wrap_alloc@V?$allocator@UnEnemies@@@std@@@2@XZ 00457600 f i SpriteObjectManager.obj
 0001:00056640       ?_Getal@?$_Vector_alloc@U?$_Vec_base_types@UnEnemyList@@V?$allocator@UnEnemyList@@@std@@@std@@@std@@QAEAAU?$_Wrap_alloc@V?$allocator@UnEnemyList@@@std@@@2@XZ 00457640 f i SpriteObjectManager.obj
 0001:00056680       ?_Getal@?$_Vector_alloc@U?$_Vec_base_types@UnEnemyList@@V?$allocator@UnEnemyList@@@std@@@std@@@std@@QBEABU?$_Wrap_alloc@V?$allocator@UnEnemyList@@@std@@@2@XZ 00457680 f i SpriteObjectManager.obj
 0001:000566c0       ?_Getpfirst@?$_Vector_alloc@U?$_Vec_base_types@UnEnemies@@V?$allocator@UnEnemies@@@std@@@std@@@std@@QBEPAPAU_Iterator_base12@2@XZ 004576c0 f i SpriteObjectManager.obj
 0001:00056710       ?_Getpfirst@?$_Vector_alloc@U?$_Vec_base_types@UnEnemyList@@V?$allocator@UnEnemyList@@@std@@@std@@@std@@QBEPAPAU_Iterator_base12@2@XZ 00457710 f i SpriteObjectManager.obj
 0001:00056760       ?_Grow_to@?$vector@UnEnemies@@V?$allocator@UnEnemies@@@std@@@std@@IBEII@Z 00457760 f i SpriteObjectManager.obj
 0001:000567f0       ?_Grow_to@?$vector@UnEnemyList@@V?$allocator@UnEnemyList@@@std@@@std@@IBEII@Z 004577f0 f i SpriteObjectManager.obj
 0001:00056880       ?_Inside@?$vector@UnEnemies@@V?$allocator@UnEnemies@@@std@@@std@@IBE_NPBUnEnemies@@@Z 00457880 f i SpriteObjectManager.obj
 0001:00056910       ?_Inside@?$vector@UnEnemyList@@V?$allocator@UnEnemyList@@@std@@@std@@IBE_NPBUnEnemyList@@@Z 00457910 f i SpriteObjectManager.obj
 0001:000569a0       ?_Make_iter@?$vector@UnEnemies@@V?$allocator@UnEnemies@@@std@@@std@@QBE?AV?$_Vector_iterator@V?$_Vector_val@U?$_Simple_types@UnEnemies@@@std@@@std@@@2@V?$_Vector_const_iterator@V?$_Vector_val@U?$_Simple_types@UnEnemies@@@std@@@std@@@2@@Z 004579a0 f i SpriteObjectManager.obj
 0001:00056a50       ?_Myend@?$_Vector_alloc@U?$_Vec_base_types@UnEnemies@@V?$allocator@UnEnemies@@@std@@@std@@@std@@QAEAAPAUnEnemies@@XZ 00457a50 f i SpriteObjectManager.obj
 0001:00056aa0       ?_Myend@?$_Vector_alloc@U?$_Vec_base_types@UnEnemies@@V?$allocator@UnEnemies@@@std@@@std@@@std@@QBEABQAUnEnemies@@XZ 00457aa0 f i SpriteObjectManager.obj
 0001:00056af0       ?_Myend@?$_Vector_alloc@U?$_Vec_base_types@UnEnemyList@@V?$allocator@UnEnemyList@@@std@@@std@@@std@@QAEAAPAUnEnemyList@@XZ 00457af0 f i SpriteObjectManager.obj
 0001:00056b40       ?_Myend@?$_Vector_alloc@U?$_Vec_base_types@UnEnemyList@@V?$allocator@UnEnemyList@@@std@@@std@@@std@@QBEABQAUnEnemyList@@XZ 00457b40 f i SpriteObjectManager.obj
 0001:00056b90       ?_Mylast@?$_Vector_alloc@U?$_Vec_base_types@UnEnemies@@V?$allocator@UnEnemies@@@std@@@std@@@std@@QAEAAPAUnEnemies@@XZ 00457b90 f i SpriteObjectManager.obj
 0001:00056be0       ?_Mylast@?$_Vector_alloc@U?$_Vec_base_types@UnEnemyList@@V?$allocator@UnEnemyList@@@std@@@std@@@std@@QAEAAPAUnEnemyList@@XZ 00457be0 f i SpriteObjectManager.obj
 0001:00056c30       ?_Myproxy@?$_Vector_alloc@U?$_Vec_base_types@UnEnemies@@V?$allocator@UnEnemies@@@std@@@std@@@std@@QAEAAPAU_Container_proxy@2@XZ 00457c30 f i SpriteObjectManager.obj
 0001:00056c70       ?_Myproxy@?$_Vector_alloc@U?$_Vec_base_types@UnEnemyList@@V?$allocator@UnEnemyList@@@std@@@std@@@std@@QAEAAPAU_Container_proxy@2@XZ 00457c70 f i SpriteObjectManager.obj
 0001:00056cb0       ?_Orphan_all@?$_Vector_alloc@U?$_Vec_base_types@UnEnemies@@V?$allocator@UnEnemies@@@std@@@std@@@std@@QAEXXZ 00457cb0 f i SpriteObjectManager.obj
 0001:00056d00       ?_Orphan_all@?$_Vector_alloc@U?$_Vec_base_types@UnEnemyList@@V?$allocator@UnEnemyList@@@std@@@std@@@std@@QAEXXZ 00457d00 f i SpriteObjectManager.obj
 0001:00056d50       ?_Orphan_range@?$vector@UnEnemies@@V?$allocator@UnEnemies@@@std@@@std@@IBEXPAUnEnemies@@0@Z 00457d50 f i SpriteObjectManager.obj
 0001:00056e60       ?_Orphan_range@?$vector@UnEnemyList@@V?$allocator@UnEnemyList@@@std@@@std@@IBEXPAUnEnemyList@@0@Z 00457e60 f i SpriteObjectManager.obj
 0001:00056f70       ?_Reallocate@?$vector@UnEnemies@@V?$allocator@UnEnemies@@@std@@@std@@IAEXI@Z 00457f70 f i SpriteObjectManager.obj
 0001:00057100       ?_Reallocate@?$vector@UnEnemyList@@V?$allocator@UnEnemyList@@@std@@@std@@IAEXI@Z 00458100 f i SpriteObjectManager.obj
 0001:00057290       ?_Reserve@?$vector@UnEnemies@@V?$allocator@UnEnemies@@@std@@@std@@IAEXI@Z 00458290 f i SpriteObjectManager.obj
 0001:00057320       ?_Reserve@?$vector@UnEnemyList@@V?$allocator@UnEnemyList@@@std@@@std@@IAEXI@Z 00458320 f i SpriteObjectManager.obj
 0001:000573b0       ?_Swap_all@?$_Vector_alloc@U?$_Vec_base_types@UnEnemies@@V?$allocator@UnEnemies@@@std@@@std@@@std@@QAEXAAV12@@Z 004583b0 f i SpriteObjectManager.obj
 0001:00057410       ?_Swap_all@_Container_base12@std@@QAEXAAU12@@Z 00458410 f i SpriteObjectManager.obj
 0001:000574d0       ?_Tidy@?$vector@UnEnemies@@V?$allocator@UnEnemies@@@std@@@std@@IAEXXZ 004584d0 f i SpriteObjectManager.obj
 0001:000575b0       ?_Tidy@?$vector@UnEnemyList@@V?$allocator@UnEnemyList@@@std@@@std@@IAEXXZ 004585b0 f i SpriteObjectManager.obj
 0001:00057690       ?_Unchecked@?$_Vector_const_iterator@V?$_Vector_val@U?$_Simple_types@UnEnemies@@@std@@@std@@@std@@QBEPBUnEnemies@@XZ 00458690 f i SpriteObjectManager.obj
 0001:000576c0       ?_Unused_capacity@?$vector@UnEnemies@@V?$allocator@UnEnemies@@@std@@@std@@QBEIXZ 004586c0 f i SpriteObjectManager.obj
 0001:00057720       ?_Unused_capacity@?$vector@UnEnemyList@@V?$allocator@UnEnemyList@@@std@@@std@@QBEIXZ 00458720 f i SpriteObjectManager.obj
 0001:00057780       ?_Xlen@?$vector@UnEnemies@@V?$allocator@UnEnemies@@@std@@@std@@IBEXXZ 00458780 f i SpriteObjectManager.obj
 0001:000577d0       ?_Xlen@?$vector@UnEnemyList@@V?$allocator@UnEnemyList@@@std@@@std@@IBEXXZ 004587d0 f i SpriteObjectManager.obj
 0001:00057820       ?allocate@?$_Wrap_alloc@V?$allocator@UnEnemies@@@std@@@std@@QAEPAUnEnemies@@I@Z 00458820 f i SpriteObjectManager.obj
 0001:00057870       ?allocate@?$_Wrap_alloc@V?$allocator@UnEnemyList@@@std@@@std@@QAEPAUnEnemyList@@I@Z 00458870 f i SpriteObjectManager.obj
 0001:000578c0       ?allocate@?$allocator@UnEnemies@@@std@@QAEPAUnEnemies@@I@Z 004588c0 f i SpriteObjectManager.obj
 0001:00057910       ?allocate@?$allocator@UnEnemyList@@@std@@QAEPAUnEnemyList@@I@Z 00458910 f i SpriteObjectManager.obj
 0001:00057960       ?begin@?$vector@UnEnemies@@V?$allocator@UnEnemies@@@std@@@std@@QAE?AV?$_Vector_iterator@V?$_Vector_val@U?$_Simple_types@UnEnemies@@@std@@@std@@@2@XZ 00458960 f i SpriteObjectManager.obj
 0001:000579f0       ?begin@?$vector@UnEnemies@@V?$allocator@UnEnemies@@@std@@@std@@QBE?AV?$_Vector_const_iterator@V?$_Vector_val@U?$_Simple_types@UnEnemies@@@std@@@std@@@2@XZ 004589f0 f i SpriteObjectManager.obj
 0001:00057a80       ?capacity@?$vector@UnEnemies@@V?$allocator@UnEnemies@@@std@@@std@@QBEIXZ 00458a80 f i SpriteObjectManager.obj
 0001:00057ae0       ?capacity@?$vector@UnEnemyList@@V?$allocator@UnEnemyList@@@std@@@std@@QBEIXZ 00458ae0 f i SpriteObjectManager.obj
 0001:00057b40       ?clear@?$vector@UnEnemies@@V?$allocator@UnEnemies@@@std@@@std@@QAEXXZ 00458b40 f i SpriteObjectManager.obj
 0001:00057be0       ?deallocate@?$_Wrap_alloc@V?$allocator@UnEnemies@@@std@@@std@@QAEXPAUnEnemies@@I@Z 00458be0 f i SpriteObjectManager.obj
 0001:00057c30       ?deallocate@?$_Wrap_alloc@V?$allocator@UnEnemyList@@@std@@@std@@QAEXPAUnEnemyList@@I@Z 00458c30 f i SpriteObjectManager.obj
 0001:00057c80       ?deallocate@?$allocator@UnEnemies@@@std@@QAEXPAUnEnemies@@I@Z 00458c80 f i SpriteObjectManager.obj
 0001:00057cd0       ?deallocate@?$allocator@UnEnemyList@@@std@@QAEXPAUnEnemyList@@I@Z 00458cd0 f i SpriteObjectManager.obj
 0001:00057d20       ?end@?$vector@UnEnemies@@V?$allocator@UnEnemies@@@std@@@std@@QBE?AV?$_Vector_const_iterator@V?$_Vector_val@U?$_Simple_types@UnEnemies@@@std@@@std@@@2@XZ 00458d20 f i SpriteObjectManager.obj
 0001:00057db0       ?erase@?$vector@UnEnemies@@V?$allocator@UnEnemies@@@std@@@std@@QAE?AV?$_Vector_iterator@V?$_Vector_val@U?$_Simple_types@UnEnemies@@@std@@@std@@@2@V?$_Vector_const_iterator@V?$_Vector_val@U?$_Simple_types@UnEnemies@@@std@@@std@@@2@@Z 00458db0 f i SpriteObjectManager.obj
 0001:00057f40       ?max_size@?$_Wrap_alloc@V?$allocator@UnEnemies@@@std@@@std@@QBEIU_Nil@2@@Z 00458f40 f i SpriteObjectManager.obj
 0001:00057f90       ?max_size@?$_Wrap_alloc@V?$allocator@UnEnemyList@@@std@@@std@@QBEIU_Nil@2@@Z 00458f90 f i SpriteObjectManager.obj
 0001:00057fe0       ?max_size@?$allocator@UnEnemies@@@std@@QBEIXZ 00458fe0 f i SpriteObjectManager.obj
 0001:00058010       ?max_size@?$allocator@UnEnemyList@@@std@@QBEIXZ 00459010 f i SpriteObjectManager.obj
 0001:00058040       ?max_size@?$allocator_traits@V?$allocator@UnEnemies@@@std@@@std@@SAIABV?$allocator@UnEnemies@@@2@@Z 00459040 f i SpriteObjectManager.obj
 0001:00058080       ?max_size@?$allocator_traits@V?$allocator@UnEnemyList@@@std@@@std@@SAIABV?$allocator@UnEnemyList@@@2@@Z 00459080 f i SpriteObjectManager.obj
 0001:000580c0       ?max_size@?$vector@UnEnemies@@V?$allocator@UnEnemies@@@std@@@std@@QBEIXZ 004590c0 f i SpriteObjectManager.obj
 0001:00058110       ?max_size@?$vector@UnEnemyList@@V?$allocator@UnEnemyList@@@std@@@std@@QBEIXZ 00459110 f i SpriteObjectManager.obj
 0001:00058160       ?push_back@?$vector@UnEnemies@@V?$allocator@UnEnemies@@@std@@@std@@QAEXABUnEnemies@@@Z 00459160 f i SpriteObjectManager.obj
 0001:00058310       ?push_back@?$vector@UnEnemyList@@V?$allocator@UnEnemyList@@@std@@@std@@QAEXABUnEnemyList@@@Z 00459310 f i SpriteObjectManager.obj
 0001:000584c0       ?select_on_container_copy_construction@?$_Wrap_alloc@V?$allocator@UnEnemies@@@std@@@std@@QBE?AU12@U_Nil@2@@Z 004594c0 f i SpriteObjectManager.obj
 0001:00058520       ?select_on_container_copy_construction@?$allocator_traits@V?$allocator@UnEnemies@@@std@@@std@@SA?AV?$allocator@UnEnemies@@@2@ABV32@@Z 00459520 f i SpriteObjectManager.obj
 0001:00058570       ?InitDialog@cStatEd@@QAEHXZ 00459570 f   StatEditor.obj
 0001:00058970       ?LoadSprite@cStatEd@@QAEHXZ 00459970 f   StatEditor.obj
 0001:00058fb0       ?SEProc@@YGHPAUHWND__@@IIJ@Z 00459fb0 f   StatEditor.obj
 0001:000591c0       ?SaveSprite@cStatEd@@QAEHXZ 0045a1c0 f   StatEditor.obj
 0001:00059940       ?SetUpForMF@cStatEd@@QAEHXZ 0045a940 f   StatEditor.obj
 0001:00059a80       ?SetUpForZM@cStatEd@@QAEHXZ 0045aa80 f   StatEditor.obj
 0001:00059bb0       ?SetupPreview@cStatEd@@QAEHXZ 0045abb0 f   StatEditor.obj
 0001:0005a170       ?Switch@cStatEd@@QAEHXZ    0045b170 f   StatEditor.obj
 0001:0005a1d0       ?TextEditorProc@@YGHPAUHWND__@@IIJ@Z 0045b1d0 f   TextEditor.obj
 0001:0005a410       ?TextPicProc@@YGJPAUHWND__@@IIJ@Z 0045b410 f   TextEditor.obj
 0001:0005a520       ??0TileBuffer@@QAE@XZ      0045b520 f   tilebuffer.obj
 0001:0005a570       ??1TileBuffer@@QAE@XZ      0045b570 f   tilebuffer.obj
 0001:0005a5e0       ??ATileBuffer@@QAEPBEH@Z   0045b5e0 f   tilebuffer.obj
 0001:0005a640       ?Destroy@TileBuffer@@QAEXXZ 0045b640 f   tilebuffer.obj
 0001:0005a6b0       ?Load@TileBuffer@@QAEXPBEH@Z 0045b6b0 f   tilebuffer.obj
 0001:0005a7d0       ?Zero@TileBuffer@@IAEXXZ   0045b7d0 f   tilebuffer.obj
 0001:0005a820       ??0TilesetManager@@QAE@XZ  0045b820 f   TilesetMananger.obj
 0001:0005a850       ?DrawBlock@TilesetManager@@QAEHFHH@Z 0045b850 f   TilesetMananger.obj
 0001:0005a950       ?DrawTileset@TilesetManager@@QAEXXZ 0045b950 f   TilesetMananger.obj
 0001:0005aa60       ?GetTileset@TilesetManager@@QAEHE@Z 0045ba60 f   TilesetMananger.obj
 0001:0005b220       ?GetTileset@TilesetManager@@QAEPAUgTileData@@_NH@Z 0045c220 f i TilesetMananger.obj
 0001:0005b280       ?LoadSpecialEffects@TilesetManager@@QAEHJ@Z 0045c280 f   TilesetMananger.obj
 0001:0005b540       ?SaveTileset@TilesetManager@@QAEHE@Z 0045c540 f   TilesetMananger.obj
 0001:0005b790       ?SaveTilesetPal@TilesetManager@@QAEHHE@Z 0045c790 f   TilesetMananger.obj
 0001:0005b840       ?TilesetProc@@YGJPAUHWND__@@IIJ@Z 0045c840 f   TilesetWindow.obj
 0001:0005be90       ?BlockPreviewProc@@YGJPAUHWND__@@IIJ@Z 0045ce90 f   TSAEditor.obj
 0001:0005c000       ?BlockTilesetProc@@YGJPAUHWND__@@IIJ@Z 0045d000 f   TSAEditor.obj
 0001:0005c150       ?TSAProc@@YGHPAUHWND__@@IIJ@Z 0045d150 f   TSAEditor.obj
 0001:0005c5f0       ??0UiState@@QAE@XZ         0045d5f0 f   UIState.obj
 0001:0005c650       ?GetMapWindow@UiState@@QAEPAUHWND__@@XZ 0045d650 f   UIState.obj
 0001:0005c680       ?GetTilesetWindow@UiState@@QAEPAUHWND__@@XZ 0045d680 f   UIState.obj
 0001:0005c6b0       ?GetWindow@UiState@@QAEPAUHWND__@@XZ 0045d6b0 f   UIState.obj
 0001:0005c6e0       ?GetWindowState@UiState@@QAE?AW4WindowState@@XZ 0045d6e0 f   UIState.obj
 0001:0005c710       ?InitMap@UiState@@QAEHXZ   0045d710 f   UIState.obj
 0001:0005c8b0       ?InitTileset@UiState@@QAEHXZ 0045d8b0 f   UIState.obj
 0001:0005ca50       ?MakeWindow@UiState@@QAEXXZ 0045da50 f   UIState.obj
 0001:0005cb60       ?SetWindow@UiState@@QAEXPAUHWND__@@@Z 0045db60 f   UIState.obj
 0001:0005cbb0       ?SetWindowState@UiState@@QAE?AW4WindowState@@W42@@Z 0045dbb0 f   UIState.obj
 0001:0005cbf0       ?ShowObj@UiState@@QAEXXZ   0045dbf0 f   UIState.obj
 0001:0005cdc0       ?ShowObjWindow@UiState@@QAEXPAUHWND__@@HHHH@Z 0045ddc0 f   UIState.obj
 0001:0005ce80       ?UpdateMapObjectWindow@UiState@@QAEXXZ 0045de80 f   UIState.obj
 0001:0005d100       ?UpdateWindow@UiState@@QAEXXZ 0045e100 f   UIState.obj
 0001:0005d170       ??0_Init_locks@std@@QAE@XZ 0045e170 f   libcpmtd:xlock.obj
 0001:0005d1c0       ??0_Lockit@std@@QAE@H@Z    0045e1c0 f   libcpmtd:xlock.obj
 0001:0005d210       ??1_Init_locks@std@@QAE@XZ 0045e210 f   libcpmtd:xlock.obj
 0001:0005d260       ??1_Lockit@std@@QAE@XZ     0045e260 f   libcpmtd:xlock.obj
 0001:0005d2a0       ?_Debug_message@std@@YAXPB_W0I@Z 0045e2a0 f   libcpmtd:stdthrow.obj
 0001:0005d2d0       ??0bad_alloc@std@@QAE@ABV01@@Z 0045e2d0 f i libcpmtd:xthrow.obj
 0001:0005d300       ??0bad_alloc@std@@QAE@XZ   0045e300 f i libcpmtd:xthrow.obj
 0001:0005d330       ??0exception@std@@QAE@ABV01@@Z 0045e330 f i libcpmtd:xthrow.obj
 0001:0005d370       ??0exception@std@@QAE@QBD@Z 0045e370 f i libcpmtd:xthrow.obj
 0001:0005d3c0       ??0exception@std@@QAE@QBDH@Z 0045e3c0 f i libcpmtd:xthrow.obj
 0001:0005d3f0       ??0length_error@std@@QAE@ABV01@@Z 0045e3f0 f i libcpmtd:xthrow.obj
 0001:0005d420       ??0length_error@std@@QAE@PBD@Z 0045e420 f i libcpmtd:xthrow.obj
 0001:0005d450       ??0logic_error@std@@QAE@ABV01@@Z 0045e450 f i libcpmtd:xthrow.obj
 0001:0005d480       ??0logic_error@std@@QAE@PBD@Z 0045e480 f i libcpmtd:xthrow.obj
 0001:0005d4b0       ??0out_of_range@std@@QAE@ABV01@@Z 0045e4b0 f i libcpmtd:xthrow.obj
 0001:0005d4e0       ??0out_of_range@std@@QAE@PBD@Z 0045e4e0 f i libcpmtd:xthrow.obj
 0001:0005d510       ??1bad_alloc@std@@UAE@XZ   0045e510 f i libcpmtd:xthrow.obj
 0001:0005d530       ??1exception@std@@UAE@XZ   0045e530 f i libcpmtd:xthrow.obj
 0001:0005d560       ??1length_error@std@@UAE@XZ 0045e560 f i libcpmtd:xthrow.obj
 0001:0005d580       ??1logic_error@std@@UAE@XZ 0045e580 f i libcpmtd:xthrow.obj
 0001:0005d5a0       ??1out_of_range@std@@UAE@XZ 0045e5a0 f i libcpmtd:xthrow.obj
 0001:0005d5c0       ??_Ebad_alloc@std@@UAEPAXI@Z 0045e5c0 f i libcpmtd:xthrow.obj
 0001:0005d5c0       ??_Gbad_alloc@std@@UAEPAXI@Z 0045e5c0 f i libcpmtd:xthrow.obj
 0001:0005d5f0       ??_Eexception@std@@UAEPAXI@Z 0045e5f0 f i libcpmtd:xthrow.obj
 0001:0005d5f0       ??_Gexception@std@@UAEPAXI@Z 0045e5f0 f i libcpmtd:xthrow.obj
 0001:0005d620       ??_Glength_error@std@@UAEPAXI@Z 0045e620 f i libcpmtd:xthrow.obj
 0001:0005d620       ??_Elength_error@std@@UAEPAXI@Z 0045e620 f i libcpmtd:xthrow.obj
 0001:0005d650       ??_Elogic_error@std@@UAEPAXI@Z 0045e650 f i libcpmtd:xthrow.obj
 0001:0005d650       ??_Glogic_error@std@@UAEPAXI@Z 0045e650 f i libcpmtd:xthrow.obj
 0001:0005d680       ??_Eout_of_range@std@@UAEPAXI@Z 0045e680 f i libcpmtd:xthrow.obj
 0001:0005d680       ??_Gout_of_range@std@@UAEPAXI@Z 0045e680 f i libcpmtd:xthrow.obj
 0001:0005d6b0       ?_Xbad_alloc@std@@YAXXZ    0045e6b0 f   libcpmtd:xthrow.obj
 0001:0005d6d0       ?_Xlength_error@std@@YAXPBD@Z 0045e6d0 f   libcpmtd:xthrow.obj
 0001:0005d700       ?_Xout_of_range@std@@YAXPBD@Z 0045e700 f   libcpmtd:xthrow.obj
 0001:0005d730       ?what@exception@std@@UBEPBDXZ 0045e730 f i libcpmtd:xthrow.obj
 0001:0005d760       __Mtxdst                   0045e760 f   libcpmtd:xmtx.obj
 0001:0005d770       __Mtxinit                  0045e770 f   libcpmtd:xmtx.obj
 0001:0005d790       __Mtxlock                  0045e790 f   libcpmtd:xmtx.obj
 0001:0005d7a0       __Mtxunlock                0045e7a0 f   libcpmtd:xmtx.obj
 0001:0005dd40       ___crtInitializeCriticalSectionEx 0045ed40 f   libcpmtd:winapisupp.obj
 0001:0005dda0       ??_U@YAPAXI@Z              0045eda0 f   LIBCMTD:new_array.obj
 0001:0005ddc0       ??_V@YAXPAX@Z              0045edc0 f   LIBCMTD:delete_array.obj
 0001:0005dde0       @_RTC_CheckStackVars@8     0045ede0 f   LIBCMTD:_stack_.obj
 0001:0005de40       __RTC_CheckEsp             0045ee40 f   LIBCMTD:_stack_.obj
 0001:0005de80       @__security_check_cookie@4 0045ee80 f   LIBCMTD:_secchk_.obj
 0001:0005dea0       ___raise_securityfailure   0045eea0 f   LIBCMTD:gs_report.obj
 0001:0005ded0       ___report_gsfailure        0045eed0 f   LIBCMTD:gs_report.obj
 0001:0005dfe0       ___report_rangecheckfailure 0045efe0 f   LIBCMTD:gs_report.obj
 0001:0005dff0       ___report_securityfailure  0045eff0 f   LIBCMTD:gs_report.obj
 0001:0005e0d0       __chkstk                   0045f0d0 f   LIBCMTD:chkstk.obj
 0001:0005e0d0       __alloca_probe             0045f0d0 f   LIBCMTD:chkstk.obj
 0001:0005e100       ??_L@YGXPAXIIP6EX0@Z1@Z    0045f100 f   LIBCMTD:ehvecctr.obj
 0001:0005e1c0       ??_M@YGXPAXIIP6EX0@Z@Z     0045f1c0 f   LIBCMTD:ehvecdtr.obj
 0001:0005e2b0       ?__ArrayUnwind@@YGXPAXIIP6EX0@Z@Z 0045f2b0 f   LIBCMTD:ehvecdtr.obj
 0001:0005e360       ??2@YAPAXI@Z               0045f360 f   LIBCMTD:new_scalar.obj
 0001:0005e3b0       ??3@YAXPAX@Z               0045f3b0 f   LIBCMTD:delete_scalar.obj
 0001:0005e3d0       ??3@YAXPAXI@Z              0045f3d0 f   LIBCMTD:delete_scalar_size.obj
 0001:0005e3f0       ??$__crt_fast_decode_pointer@PAP6AXXZ@@YAPAP6AXXZQAP6AXXZ@Z 0045f3f0 f i LIBCMTD:utility.obj
 0001:0005e420       ??$__crt_fast_encode_pointer@PAP6AXXZ@@YAPAP6AXXZQAP6AXXZ@Z 0045f420 f i LIBCMTD:utility.obj
 0001:0005e450       ?__crt_rotate_pointer_value@@YAIIH@Z 0045f450 f i LIBCMTD:utility.obj
 0001:0005e460       ?configure_argv@__scrt_narrow_argv_policy@@SAHXZ 0045f460 f i LIBCMTD:utility.obj
 0001:0005e580       _NtCurrentTeb              0045f580 f i LIBCMTD:utility.obj
 0001:0005e590       ___scrt_acquire_startup_lock 0045f590 f   LIBCMTD:utility.obj
 0001:0005e5e0       ___scrt_initialize_crt     0045f5e0 f   LIBCMTD:utility.obj
 0001:0005e630       ___scrt_initialize_onexit_tables 0045f630 f   LIBCMTD:utility.obj
 0001:0005e700       ___scrt_is_nonwritable_in_current_image 0045f700 f   LIBCMTD:utility.obj
 0001:0005e830       ___scrt_release_startup_lock 0045f830 f   LIBCMTD:utility.obj
 0001:0005e860       ___scrt_uninitialize_crt   0045f860 f   LIBCMTD:utility.obj
 0001:0005e8a0       __onexit                   0045f8a0 f   LIBCMTD:utility.obj
 0001:0005e910       _atexit                    0045f910 f   LIBCMTD:utility.obj
 0001:0005ea90       ?_RTC_Failure@@YAXPAXH@Z   0045fa90 f   LIBCMTD:_error_.obj
 0001:0005eae0       ?_RTC_StackFailure@@YAXPAXPBD@Z 0045fae0 f   LIBCMTD:_error_.obj
 0001:0005ee00       __RTC_UninitUse            0045fe00 f   LIBCMTD:_error_.obj
 0001:0005eef0       __vsprintf_s_l             0045fef0 f i LIBCMTD:_error_.obj
 0001:0005ef20       _sprintf_s                 0045ff20 f i LIBCMTD:_error_.obj
 0001:0005ef50       ??1type_info@@UAE@XZ       0045ff50 f   LIBCMTD:std_type_info_static.obj
 0001:0005ef70       ??_Etype_info@@UAEPAXI@Z   0045ff70 f i LIBCMTD:std_type_info_static.obj
 0001:0005ef70       ??_Gtype_info@@UAEPAXI@Z   0045ff70 f i LIBCMTD:std_type_info_static.obj
 0001:0005efa0       ??__C@YGXPAX0IIP6EX00@ZP6EX0@Z@Z 0045ffa0 f   LIBCMTD:ehvccctr.obj
 0001:0005f380       ?get_app_type@__scrt_winmain_policy@@SA?AW4_crt_app_type@@XZ 00460380 f i LIBCMTD:exe_winmain.obj
 0001:0005f3c0       _WinMainCRTStartup         004603c0 f   LIBCMTD:exe_winmain.obj
 0001:0005f3d0       @_guard_check_icall@4      004603d0 f i LIBCMTD:checkcfg.obj
 0001:0005f3f0       ?_RTC_GetErrorFunc@@YAP6AHHPBDH00ZZPBX@Z 004603f0 f   LIBCMTD:_userapi_.obj
 0001:0005f400       ?_RTC_GetErrorFuncW@@YAP6AHHPB_WH00ZZPBX@Z 00460400 f   LIBCMTD:_userapi_.obj
 0001:0005f410       ??0bad_alloc@std@@AAE@QBD@Z 00460410 f i LIBCMTD:throw_bad_alloc.obj
 0001:0005f440       ??0bad_array_new_length@std@@QAE@ABV01@@Z 00460440 f i LIBCMTD:throw_bad_alloc.obj
 0001:0005f470       ??0bad_array_new_length@std@@QAE@XZ 00460470 f i LIBCMTD:throw_bad_alloc.obj
 0001:0005f4a0       ??1bad_array_new_length@std@@UAE@XZ 004604a0 f i LIBCMTD:throw_bad_alloc.obj
 0001:0005f4c0       ??_Ebad_array_new_length@std@@UAEPAXI@Z 004604c0 f i LIBCMTD:throw_bad_alloc.obj
 0001:0005f4c0       ??_Gbad_array_new_length@std@@UAEPAXI@Z 004604c0 f i LIBCMTD:throw_bad_alloc.obj
 0001:0005f4f0       ?__scrt_throw_std_bad_alloc@@YAXXZ 004604f0 f   LIBCMTD:throw_bad_alloc.obj
 0001:0005f510       ?__scrt_throw_std_bad_array_new_length@@YAXXZ 00460510 f   LIBCMTD:throw_bad_alloc.obj
 0001:0005f530       ___isa_available_init      00460530 f   LIBCMTD:_cpu_disp_.obj
 0001:0005f810       __get_startup_argv_mode    00460810 f   LIBCMTD:argv_mode.obj
 0001:0005f820       ___scrt_is_ucrt_dll_in_use 00460820 f   LIBCMTD:ucrt_detection.obj
 0001:0005f850       ___scrt_fastfail           00460850 f   LIBCMTD:utility_desktop.obj
 0001:0005f990       ___scrt_get_show_window_mode 00460990 f   LIBCMTD:utility_desktop.obj
 0001:0005f9d0       ___scrt_initialize_winrt   004609d0 f   LIBCMTD:utility_desktop.obj
 0001:0005f9e0       ___scrt_is_managed_app     004609e0 f   LIBCMTD:utility_desktop.obj
 0001:0005fa70       ___scrt_set_unhandled_exception_filter 00460a70 f   LIBCMTD:utility_desktop.obj
 0001:0005fa80       ___scrt_unhandled_exception_filter@4 00460a80 f   LIBCMTD:utility_desktop.obj
 0001:0005fae0       __crt_debugger_hook        00460ae0 f   LIBCMTD:utility_desktop.obj
 0001:0005ff80       ?_RTC_GetSrcLine@@YAHPAEPA_WKPAH1K@Z 00460f80 f   LIBCMTD:_pdblkup_.obj
 0001:000602e0       ___security_init_cookie    004612e0 f   LIBCMTD:gs_support.obj
 0001:000603c0       __matherr                  004613c0 f   LIBCMTD:matherr.obj
 0001:000603d0       __get_startup_commit_mode  004613d0 f   LIBCMTD:commit_mode.obj
 0001:000603e0       __get_startup_file_mode    004613e0 f   LIBCMTD:file_mode.obj
 0001:000603f0       __get_startup_new_mode     004613f0 f   LIBCMTD:new_mode.obj
 0001:00060400       __get_startup_thread_locale_mode 00461400 f   LIBCMTD:thread_locale.obj
 0001:00060410       ?__scrt_initialize_type_info@@YAXXZ 00461410 f   LIBCMTD:tncleanup.obj
 0001:00060420       __should_initialize_environment 00461420 f   LIBCMTD:env_mode.obj
 0001:00060430       __initialize_default_precision 00461430 f   LIBCMTD:default_precision.obj
 0001:00060460       __initialize_invalid_parameter_handler 00461460 f   LIBCMTD:invalid_parameter_handler.obj
 0001:00060470       __initialize_denormal_control 00461470 f   LIBCMTD:denormal_control.obj
 0001:00060480       ___scrt_initialize_default_local_stdio_options 00461480 f   LIBCMTD:default_local_stdio_options.obj
 0001:000604c0       ___scrt_is_user_matherr_present 004614c0 f   LIBCMTD:matherr_detection.obj
 0001:000604f0       ___scrt_get_dyn_tls_init_callback 004614f0 f   LIBCMTD:dyn_tls_init.obj
 0001:00060500       ___scrt_get_dyn_tls_dtor_callback 00461500 f   LIBCMTD:dyn_tls_dtor.obj
 0001:00060510       __RTC_Initialize           00461510 f   LIBCMTD:_initsect_.obj
 0001:00060540       __RTC_Terminate            00461540 f   LIBCMTD:_initsect_.obj
 0001:00060570       @_guard_check_icall_nop@4  00461570 f i LIBCMTD:guard_support.obj
 0001:00060580       __guard_icall_checks_enforced 00461580 f i LIBCMTD:guard_support.obj
 0001:000605b0       _memset                    004615b0 f   libvcruntimed:memset.obj
 0001:00060710       ?_CallCatchBlock2@@YAPAXPAUEHRegistrationNode@@PBU_s_FuncInfo@@PAXHK@Z 00461710 f   libvcruntimed:trnsctrl.obj
 0001:00060780       ?_CallSETranslator@@YAHPAUEHExceptionRecord@@PAUEHRegistrationNode@@PAX2PBU_s_FuncInfo@@H1@Z 00461780 f   libvcruntimed:trnsctrl.obj
 0001:00060870       ?_GetRangeOfTrysToCheck@@YAPBU_s_TryBlockMapEntry@@PBU_s_FuncInfo@@HHPAI1@Z 00461870 f   libvcruntimed:trnsctrl.obj
 0001:00060940       ?_JumpToContinuation@@YGXPAXPAUEHRegistrationNode@@@Z 00461940 f   libvcruntimed:trnsctrl.obj
 0001:00060980       ?_UnwindNestedFrames@@YGXPAUEHRegistrationNode@@PAUEHExceptionRecord@@@Z 00461980 f   libvcruntimed:trnsctrl.obj
 0001:000609e0       __CatchGuardHandler        004619e0 f   libvcruntimed:trnsctrl.obj
 0001:00060a30       __CreateFrameInfo          00461a30 f   libvcruntimed:trnsctrl.obj
 0001:00060a60       __FindAndUnlinkFrame       00461a60 f   libvcruntimed:trnsctrl.obj
 0001:00060ad0       __IsExceptionObjectToBeDestroyed 00461ad0 f   libvcruntimed:trnsctrl.obj
 0001:00060b10       __TranslatorGuardHandler   00461b10 f   libvcruntimed:trnsctrl.obj
 0001:00060bc0       ___CxxFrameHandler3        00461bc0 f   libvcruntimed:trnsctrl.obj
 0001:00060c00       _memcpy                    00461c00 f   libvcruntimed:memcpy.obj
 0001:00061180       _memmove                   00462180 f   libvcruntimed:memmove.obj
 0001:00061700       __CxxThrowException@8      00462700 f   libvcruntimed:throw.obj
 0001:00061960       _memcmp                    00462960 f   libvcruntimed:_memcmp_.obj
 0001:00062230       ??$?RD@__crt_public_free_policy@@QBEXQBD@Z 00463230 f i libvcruntimed:std_exception.obj
 0001:00062250       ??0?$__crt_unique_heap_ptr@DU__crt_public_free_policy@@@@QAE@QAD@Z 00463250 f i libvcruntimed:std_exception.obj
 0001:00062270       ??1?$__crt_unique_heap_ptr@DU__crt_public_free_policy@@@@QAE@XZ 00463270 f i libvcruntimed:std_exception.obj
 0001:00062290       ??B?$__crt_unique_heap_ptr@DU__crt_public_free_policy@@@@QBE_NXZ 00463290 f i libvcruntimed:std_exception.obj
 0001:000622b0       ?detach@?$__crt_unique_heap_ptr@DU__crt_public_free_policy@@@@QAEPADXZ 004632b0 f i libvcruntimed:std_exception.obj
 0001:000622e0       ?get@?$__crt_unique_heap_ptr@DU__crt_public_free_policy@@@@QBEPADXZ 004632e0 f i libvcruntimed:std_exception.obj
 0001:000622f0       ?is_valid@?$__crt_unique_heap_ptr@DU__crt_public_free_policy@@@@QBE_NXZ 004632f0 f i libvcruntimed:std_exception.obj
 0001:00062320       ?release@?$__crt_unique_heap_ptr@DU__crt_public_free_policy@@@@QAEXXZ 00463320 f i libvcruntimed:std_exception.obj
 0001:00062350       ___std_exception_copy      00463350 f   libvcruntimed:std_exception.obj
 0001:00062430       ___std_exception_destroy   00463430 f   libvcruntimed:std_exception.obj
 0001:000624c0       __except_handler4          004634c0 f   libvcruntimed:_chandler4_.obj
 0001:00062690       ___vcrt_initialize         00463690 f   libvcruntimed:initialization.obj
 0001:000626d0       ___vcrt_uninitialize       004636d0 f   libvcruntimed:initialization.obj
 0001:00062700       ___vcrt_GetModuleFileNameW 00463700 f   libvcruntimed:winapi_thunks.obj
 0001:00062720       ___vcrt_GetModuleHandleW   00463720 f   libvcruntimed:winapi_thunks.obj
 0001:00062730       ___vcrt_LoadLibraryExW     00463730 f   libvcruntimed:winapi_thunks.obj
 0001:00062750       ??$?RD@__crt_internal_free_policy@@QBEXQBD@Z 00463750 f i libvcruntimed:std_type_info.obj
 0001:00062770       ??0?$__crt_unique_heap_ptr@DU__crt_internal_free_policy@@@@QAE@QAD@Z 00463770 f i libvcruntimed:std_type_info.obj
 0001:00062790       ??1?$__crt_unique_heap_ptr@DU__crt_internal_free_policy@@@@QAE@XZ 00463790 f i libvcruntimed:std_type_info.obj
 0001:000627b0       ??B?$__crt_unique_heap_ptr@DU__crt_internal_free_policy@@@@QBE_NXZ 004637b0 f i libvcruntimed:std_type_info.obj
 0001:000627d0       ?get@?$__crt_unique_heap_ptr@DU__crt_internal_free_policy@@@@QBEPADXZ 004637d0 f i libvcruntimed:std_type_info.obj
 0001:000627e0       ?is_valid@?$__crt_unique_heap_ptr@DU__crt_internal_free_policy@@@@QBE_NXZ 004637e0 f i libvcruntimed:std_type_info.obj
 0001:00062810       ?release@?$__crt_unique_heap_ptr@DU__crt_internal_free_policy@@@@QAEXXZ 00463810 f i libvcruntimed:std_type_info.obj
 0001:00062840       ___std_type_info_compare   00463840 f   libvcruntimed:std_type_info.obj
 0001:00062870       ??$?RU__vcrt_ptd@@@__crt_internal_free_policy@@QBEXQBU__vcrt_ptd@@@Z 00463870 f i libvcruntimed:per_thread_data.obj
 0001:00062890       ??0?$__crt_unique_heap_ptr@U__vcrt_ptd@@U__crt_internal_free_policy@@@@QAE@QAU__vcrt_ptd@@@Z 00463890 f i libvcruntimed:per_thread_data.obj
 0001:000628d0       ??1?$__crt_unique_heap_ptr@U__vcrt_ptd@@U__crt_internal_free_policy@@@@QAE@XZ 004638d0 f i libvcruntimed:per_thread_data.obj
 0001:00062910       ??B?$__crt_unique_heap_ptr@U__vcrt_ptd@@U__crt_internal_free_policy@@@@QBE_NXZ 00463910 f i libvcruntimed:per_thread_data.obj
 0001:00062930       ?detach@?$__crt_unique_heap_ptr@U__vcrt_ptd@@U__crt_internal_free_policy@@@@QAEPAU__vcrt_ptd@@XZ 00463930 f i libvcruntimed:per_thread_data.obj
 0001:00062960       ?get@?$__crt_unique_heap_ptr@U__vcrt_ptd@@U__crt_internal_free_policy@@@@QBEPAU__vcrt_ptd@@XZ 00463960 f i libvcruntimed:per_thread_data.obj
 0001:00062970       ?is_valid@?$__crt_unique_heap_ptr@U__vcrt_ptd@@U__crt_internal_free_policy@@@@QBE_NXZ 00463970 f i libvcruntimed:per_thread_data.obj
 0001:000629a0       ?release@?$__crt_unique_heap_ptr@U__vcrt_ptd@@U__crt_internal_free_policy@@@@QAEXXZ 004639a0 f i libvcruntimed:per_thread_data.obj
 0001:00062a00       ___vcrt_freefls@4          00463a00 f   libvcruntimed:per_thread_data.obj
 0001:00062a30       ___vcrt_getptd             00463a30 f   libvcruntimed:per_thread_data.obj
 0001:00062a50       ___vcrt_getptd_noexit      00463a50 f   libvcruntimed:per_thread_data.obj
 0001:00062bb0       ___vcrt_initialize_ptd     00463bb0 f   libvcruntimed:per_thread_data.obj
 0001:00062c00       ___vcrt_uninitialize_ptd   00463c00 f   libvcruntimed:per_thread_data.obj
 0001:00062c30       __CallSettingFrame@12      00463c30 f   libvcruntimed:lowhelpr.obj
 0001:00062c57       __NLG_Return               00463c57     libvcruntimed:lowhelpr.obj
 0001:00062c80       ___DestructExceptionObject 00463c80 f   libvcruntimed:frame.obj
 0001:00062db0       ??0bad_exception@std@@QAE@ABV01@@Z 00463db0 f i libvcruntimed:frame.obj
 0001:00062de0       ??0bad_exception@std@@QAE@XZ 00463de0 f i libvcruntimed:frame.obj
 0001:00062e10       ??1bad_exception@std@@UAE@XZ 00463e10 f i libvcruntimed:frame.obj
 0001:00062e30       ??8type_info@@QBE_NABV0@@Z 00463e30 f i libvcruntimed:frame.obj
 0001:00062e70       ??_Ebad_exception@std@@UAEPAXI@Z 00463e70 f i libvcruntimed:frame.obj
 0001:00062e70       ??_Gbad_exception@std@@UAEPAXI@Z 00463e70 f i libvcruntimed:frame.obj
 0001:00063a60       ?_CallMemberFunction0@@YGXQAX0@Z 00464a60 f i libvcruntimed:frame.obj
 0001:00063a70       ?_CallMemberFunction1@@YGXQAX00@Z 00464a70 f i libvcruntimed:frame.obj
 0001:00063a80       ?_CallMemberFunction2@@YGXQAX00H@Z 00464a80 f i libvcruntimed:frame.obj
 0001:00063a90       ?_ValidateExecute@@YA_NP6GHXZ@Z 00464a90 f i libvcruntimed:frame.obj
 0001:00063ab0       ?_ValidateRead@@YA_NPBXI@Z 00464ab0 f i libvcruntimed:frame.obj
 0001:00063ad0       ?_ValidateWrite@@YA_NPAXI@Z 00464ad0 f i libvcruntimed:frame.obj
 0001:00063af0       ___AdjustPointer           00464af0 f   libvcruntimed:frame.obj
 0001:00063b40       ___BuildCatchObject        00464b40 f   libvcruntimed:frame.obj
 0001:00063c50       ___BuildCatchObjectHelper  00464c50 f   libvcruntimed:frame.obj
 0001:00063f80       ___FrameUnwindFilter       00464f80 f   libvcruntimed:frame.obj
 0001:00064000       ___FrameUnwindToState      00465000 f   libvcruntimed:frame.obj
 0001:00064180       ___InternalCxxFrameHandler 00465180 f   libvcruntimed:frame.obj
 0001:00064330       ___TypeMatch               00465330 f   libvcruntimed:frame.obj
 0001:00064410       ___except_validate_context_record 00465410 f   libvcruntimed:jbcxrval.obj
 0001:00064460       ___except_validate_jump_buffer 00465460 f   libvcruntimed:jbcxrval.obj
 0001:000644b0       __local_unwind4            004654b0 f   libvcruntimed:_exsup4_.obj
 0001:00064586       __seh_longjmp_unwind4@4    00465586 f   libvcruntimed:_exsup4_.obj
 0001:000645ae       @_EH4_CallFilterFunc@8     004655ae f   libvcruntimed:_exsup4_.obj
 0001:000645c5       @_EH4_TransferToHandler@8  004655c5 f   libvcruntimed:_exsup4_.obj
 0001:000645de       @_EH4_GlobalUnwind2@8      004655de f   libvcruntimed:_exsup4_.obj
 0001:000645f7       @_EH4_LocalUnwind@16       004655f7 f   libvcruntimed:_exsup4_.obj
 0001:00064610       ___vcrt_initialize_locks   00465610 f   libvcruntimed:locks.obj
 0001:00064670       ___vcrt_uninitialize_locks 00465670 f   libvcruntimed:locks.obj
 0001:000646c0       ??$?BX@__crt_fast_encoded_nullptr_t@@QBEPAXXZ 004656c0 f i libvcruntimed:winapi_downlevel.obj
 0001:000646e0       ??$__crt_fast_decode_pointer@PAX@@YAPAXQAX@Z 004656e0 f i libvcruntimed:winapi_downlevel.obj
 0001:00064710       ??$__crt_fast_encode_pointer@PAX@@YAPAXQAX@Z 00465710 f i libvcruntimed:winapi_downlevel.obj
 0001:00064740       ??$__crt_interlocked_compare_exchange_pointer@UHINSTANCE__@@$$T$$T@@YAPAUHINSTANCE__@@PDSAU0@$$T1@Z 00465740 f i libvcruntimed:winapi_downlevel.obj
 0001:00064760       ??$__crt_interlocked_compare_exchange_pointer@X$$T$$T@@YAPAXPDSAX$$T1@Z 00465760 f i libvcruntimed:winapi_downlevel.obj
 0001:00064780       ??$__crt_interlocked_exchange_pointer@UHINSTANCE__@@PAU1@@@YAPAUHINSTANCE__@@PDSAU0@QAU0@@Z 00465780 f i libvcruntimed:winapi_downlevel.obj
 0001:00064790       ??$__crt_interlocked_exchange_pointer@UHINSTANCE__@@PAX@@YAPAUHINSTANCE__@@PDSAU0@QAX@Z 00465790 f i libvcruntimed:winapi_downlevel.obj
 0001:000647a0       ??$__crt_interlocked_exchange_pointer@XPAX@@YAPAXPDSAXQAX@Z 004657a0 f i libvcruntimed:winapi_downlevel.obj
 0001:000647b0       ??$__crt_interlocked_read_pointer@UHINSTANCE__@@@@YAPAUHINSTANCE__@@PDSAU0@@Z 004657b0 f i libvcruntimed:winapi_downlevel.obj
 0001:000647d0       ??$__crt_interlocked_read_pointer@X@@YAPAXPDSAX@Z 004657d0 f i libvcruntimed:winapi_downlevel.obj
 0001:000647f0       ?__crt_fast_encode_pointer@@YA?AU__crt_fast_encoded_nullptr_t@@$$T@Z 004657f0 f i libvcruntimed:winapi_downlevel.obj
 0001:00064bc0       ___vcrt_FlsAlloc           00465bc0 f   libvcruntimed:winapi_downlevel.obj
 0001:00064c00       ___vcrt_FlsFree            00465c00 f   libvcruntimed:winapi_downlevel.obj
 0001:00064c40       ___vcrt_FlsGetValue        00465c40 f   libvcruntimed:winapi_downlevel.obj
 0001:00064c80       ___vcrt_FlsSetValue        00465c80 f   libvcruntimed:winapi_downlevel.obj
 0001:00064cd0       ___vcrt_InitializeCriticalSectionEx 00465cd0 f   libvcruntimed:winapi_downlevel.obj
 0001:00064d20       ___vcrt_initialize_winapi_thunks 00465d20 f   libvcruntimed:winapi_downlevel.obj
 0001:00064d80       ___vcrt_uninitialize_winapi_thunks 00465d80 f   libvcruntimed:winapi_downlevel.obj
 0001:00064df0       ??$?B$$A6AXXZ@__crt_fast_encoded_nullptr_t@@QBEP6AXXZXZ 00465df0 f i libvcruntimed:purevirt_data.obj
 0001:00064e10       ??$__crt_fast_encode_pointer@P6AXXZ@@YAP6AXXZQ6AXXZ@Z 00465e10 f i libvcruntimed:purevirt_data.obj
 0001:00064e40       ___vcrt_initialize_pure_virtual_call_handler 00465e40 f   libvcruntimed:purevirt_data.obj
 0001:00064e70       __global_unwind2           00465e70 f   libvcruntimed:_exsup_.obj
 0001:00064ed5       __local_unwind2            00465ed5 f   libvcruntimed:_exsup_.obj
 0001:00064f59       __abnormal_termination     00465f59 f   libvcruntimed:_exsup_.obj
 0001:00064f7c       __NLG_Notify1              00465f7c f   libvcruntimed:_exsup_.obj
 0001:00064f85       __NLG_Notify               00465f85 f   libvcruntimed:_exsup_.obj
 0001:00064f9c       __NLG_Dispatch             00465f9c     libvcruntimed:_exsup_.obj
 0001:00064f9c       __NLG_Dispatch2            00465f9c     libvcruntimed:_exsup_.obj
 0001:00064fa4       __NLG_Call                 00465fa4 f   libvcruntimed:_exsup_.obj
 0001:00064fa6       __NLG_Return2              00465fa6     libvcruntimed:_exsup_.obj
 0001:00064fb0       _unexpected                00465fb0 f   libvcruntimed:unexpected.obj
 0001:00064ff0       ??$__crt_fast_decode_pointer@P6AXXZ@@YAP6AXXZQ6AXXZ@Z 00465ff0 f i libvcruntimed:purevirt.obj
 0001:00065020       ??$__crt_interlocked_read@J@@YAJPDJ@Z 00466020 f i libucrtd:fputc.obj
 0001:00065040       ??0__crt_stdio_stream@@QAE@QAU_iobuf@@@Z 00466040 f i libucrtd:fputc.obj
 0001:00065060       ??C__crt_stdio_stream@@QBEPAU__crt_stdio_stream_data@@XZ 00466060 f i libucrtd:fputc.obj
 0001:00065080       ?__crt_interlocked_read_32@@YAHPDH@Z 00466080 f i libucrtd:fputc.obj
 0001:000650a0       ?get_flags@__crt_stdio_stream@@QBEJXZ 004660a0 f i libucrtd:fputc.obj
 0001:000650c0       ?is_string_backed@__crt_stdio_stream@@QBE_NXZ 004660c0 f i libucrtd:fputc.obj
 0001:00065100       ?public_stream@__crt_stdio_stream@@QBEPAU_iobuf@@XZ 00466100 f i libucrtd:fputc.obj
 0001:00065120       __fputc_nolock             00466120 f   libucrtd:fputc.obj
 0001:000651b0       _fputc                     004661b0 f   libucrtd:fputc.obj
 0001:000653f0       ??$?RV<lambda_11b4f7b0d3157825a5656a18eba1ae27>@@AAV<lambda_b51c0495177f500e782686251704ae76>@@V<lambda_cf89b47920b5017557bfe891e78aca36>@@@?$__crt_seh_guarded_call@I@@QAEI$$QAV<lambda_11b4f7b0d3157825a5656a18eba1ae27>@@AAV<lambda_b51c0495177f500e782686251704ae76>@@$$QAV<lambda_cf89b47920b5017557bfe891e78aca36>@@@Z 004663f0 f i libucrtd:fwrite.obj
 0001:00065480       ??$__acrt_lock_stream_and_call@V<lambda_b51c0495177f500e782686251704ae76>@@@@YAIQAU_iobuf@@$$QAV<lambda_b51c0495177f500e782686251704ae76>@@@Z 00466480 f i libucrtd:fwrite.obj
 0001:00065540       ??0__acrt_stdio_temporary_buffering_guard@@QAE@QAU_iobuf@@@Z 00466540 f i libucrtd:fwrite.obj
 0001:00065570       ??1__acrt_stdio_temporary_buffering_guard@@QAE@XZ 00466570 f i libucrtd:fwrite.obj
 0001:00065640       ?has_any_buffer@__crt_stdio_stream@@QBE_NXZ 00466640 f i libucrtd:fwrite.obj
 0001:00065660       ?has_any_of@__crt_stdio_stream@@QBE_NJ@Z 00466660 f i libucrtd:fwrite.obj
 0001:000656a0       ?has_big_buffer@__crt_stdio_stream@@QBE_NXZ 004666a0 f i libucrtd:fwrite.obj
 0001:000656c0       ?set_flags@__crt_stdio_stream@@QBE_NJ@Z 004666c0 f i libucrtd:fwrite.obj
 0001:00065710       ?valid@__crt_stdio_stream@@QBE_NXZ 00466710 f i libucrtd:fwrite.obj
 0001:00065740       __fwrite_nolock            00466740 f   libucrtd:fwrite.obj
 0001:00065bc0       _fwrite                    00466bc0 f   libucrtd:fwrite.obj
 0001:00065c80       _strlen                    00466c80 f   libucrtd:strlen.obj
 0001:00065d10       ?is_in_use@__crt_stdio_stream@@QBE_NXZ 00466d10 f i libucrtd:fclose.obj
 0001:00065d50       __fclose_nolock            00466d50 f   libucrtd:fclose.obj
 0001:00065e90       _fclose                    00466e90 f   libucrtd:fclose.obj
 0001:00066260       ??$open_file@ABQBDABQBDABHPAU_iobuf@@@?$__crt_char_traits@D@@SAPAU_iobuf@@ABQBD0ABH$$QAPAU1@@Z 00467260 f i libucrtd:fopen.obj
 0001:00066290       ?unlock@__crt_stdio_stream@@QBEXXZ 00467290 f i libucrtd:fopen.obj
 0001:000662b0       _fopen                     004672b0 f   libucrtd:fopen.obj
 0001:000662d0       __fread_nolock_s           004672d0 f   libucrtd:fread.obj
 0001:00066940       _fread                     00467940 f   libucrtd:fread.obj
 0001:00066970       _fread_s                   00467970 f   libucrtd:fread.obj
 0001:00066bd0       ?LongLongSub@@YAJ_J0PA_J@Z 00467bd0 f i libucrtd:fseek.obj
 0001:00066cb0       ?__acrt_stdio_reset_buffer@@YAXV__crt_stdio_stream@@@Z 00467cb0 f i libucrtd:fseek.obj
 0001:000671b0       ?has_all_of@__crt_stdio_stream@@QBE_NJ@Z 004681b0 f i libucrtd:fseek.obj
 0001:000671f0       ?lowio_handle@__crt_stdio_stream@@QBEHXZ 004681f0 f i libucrtd:fseek.obj
 0001:00067210       ?unset_flags@__crt_stdio_stream@@QBE_NJ@Z 00468210 f i libucrtd:fseek.obj
 0001:00067260       _fseek                     00468260 f   libucrtd:fseek.obj
 0001:00067290       ??$?0ABV?$stream_output_adapter@D@__crt_stdio_output@@AB_KABQBDABQAU__crt_locale_pointers@@ABQAD@?$standard_base@DV?$stream_output_adapter@D@__crt_stdio_output@@@__crt_stdio_output@@IAE@ABV?$stream_output_adapter@D@1@AB_KABQBDABQAU__crt_locale_pointers@@ABQAD@Z 00468290 f i libucrtd:output.obj
 0001:000672e0       ??$?0ABV?$string_output_adapter@D@__crt_stdio_output@@AB_KABQBDABQAU__crt_locale_pointers@@ABQAD@?$format_validation_base@DV?$string_output_adapter@D@__crt_stdio_output@@@__crt_stdio_output@@IAE@ABV?$string_output_adapter@D@1@AB_KABQBDABQAU__crt_locale_pointers@@ABQAD@Z 004682e0 f i libucrtd:output.obj
 0001:00067310       ??$?0ABV?$string_output_adapter@D@__crt_stdio_output@@AB_KABQBDABQAU__crt_locale_pointers@@ABQAD@?$standard_base@DV?$string_output_adapter@D@__crt_stdio_output@@@__crt_stdio_output@@IAE@ABV?$string_output_adapter@D@1@AB_KABQBDABQAU__crt_locale_pointers@@ABQAD@Z 00468310 f i libucrtd:output.obj
 0001:00067360       ??$?0ABV?$string_output_adapter@_W@__crt_stdio_output@@AB_KABQB_WABQAU__crt_locale_pointers@@ABQAD@?$format_validation_base@_WV?$string_output_adapter@_W@__crt_stdio_output@@@__crt_stdio_output@@IAE@ABV?$string_output_adapter@_W@1@AB_KABQB_WABQAU__crt_locale_pointers@@ABQAD@Z 00468360 f i libucrtd:output.obj
 0001:00067390       ??$?0ABV?$string_output_adapter@_W@__crt_stdio_output@@AB_KABQB_WABQAU__crt_locale_pointers@@ABQAD@?$standard_base@_WV?$string_output_adapter@_W@__crt_stdio_output@@@__crt_stdio_output@@IAE@ABV?$string_output_adapter@_W@1@AB_KABQB_WABQAU__crt_locale_pointers@@ABQAD@Z 00468390 f i libucrtd:output.obj
 0001:000673e0       ??$?RV<lambda_db08b09ef7aa9d4f8620ce68402612bc>@@AAV<lambda_4f2c1eaeead2a5fc776db5b62ea0fb9b>@@V<lambda_3ae262bc35d4ba6a3825c4f6bcaaf95c>@@@?$__crt_seh_guarded_call@H@@QAEH$$QAV<lambda_db08b09ef7aa9d4f8620ce68402612bc>@@AAV<lambda_4f2c1eaeead2a5fc776db5b62ea0fb9b>@@$$QAV<lambda_3ae262bc35d4ba6a3825c4f6bcaaf95c>@@@Z 004683e0 f i libucrtd:output.obj
 0001:00067470       ??$__acrt_lock_stream_and_call@V<lambda_4f2c1eaeead2a5fc776db5b62ea0fb9b>@@@@YAHQAU_iobuf@@$$QAV<lambda_4f2c1eaeead2a5fc776db5b62ea0fb9b>@@@Z 00468470 f i libucrtd:output.obj
 0001:00068cd0       ??$count@D@formatting_buffer@__crt_stdio_output@@QBEIXZ 00469cd0 f i libucrtd:output.obj
 0001:00068d10       ??$data@D@formatting_buffer@__crt_stdio_output@@QAEPADXZ 00469d10 f i libucrtd:output.obj
 0001:00068d50       ??$data@_W@formatting_buffer@__crt_stdio_output@@QAEPA_WXZ 00469d50 f i libucrtd:output.obj
 0001:00068d90       ??$ensure_buffer_is_big_enough@D@formatting_buffer@__crt_stdio_output@@QAE_NI@Z 00469d90 f i libucrtd:output.obj
 0001:00068e70       ??$extract_argument_from_va_list@C_J@?$standard_base@DV?$stream_output_adapter@D@__crt_stdio_output@@@__crt_stdio_output@@IAE_NAA_J@Z 00469e70 f i libucrtd:output.obj
 0001:00068ea0       ??$extract_argument_from_va_list@C_J@?$standard_base@DV?$string_output_adapter@D@__crt_stdio_output@@@__crt_stdio_output@@IAE_NAA_J@Z 00469ea0 f i libucrtd:output.obj
 0001:00068ed0       ??$extract_argument_from_va_list@C_J@?$standard_base@_WV?$string_output_adapter@_W@__crt_stdio_output@@@__crt_stdio_output@@IAE_NAA_J@Z 00469ed0 f i libucrtd:output.obj
 0001:00068f00       ??$extract_argument_from_va_list@E_J@?$standard_base@DV?$stream_output_adapter@D@__crt_stdio_output@@@__crt_stdio_output@@IAE_NAA_J@Z 00469f00 f i libucrtd:output.obj
 0001:00068f30       ??$extract_argument_from_va_list@E_J@?$standard_base@DV?$string_output_adapter@D@__crt_stdio_output@@@__crt_stdio_output@@IAE_NAA_J@Z 00469f30 f i libucrtd:output.obj
 0001:00068f60       ??$extract_argument_from_va_list@E_J@?$standard_base@_WV?$string_output_adapter@_W@__crt_stdio_output@@@__crt_stdio_output@@IAE_NAA_J@Z 00469f60 f i libucrtd:output.obj
 0001:00068f90       ??$extract_argument_from_va_list@F_J@?$standard_base@DV?$stream_output_adapter@D@__crt_stdio_output@@@__crt_stdio_output@@IAE_NAA_J@Z 00469f90 f i libucrtd:output.obj
 0001:00068fc0       ??$extract_argument_from_va_list@F_J@?$standard_base@DV?$string_output_adapter@D@__crt_stdio_output@@@__crt_stdio_output@@IAE_NAA_J@Z 00469fc0 f i libucrtd:output.obj
 0001:00068ff0       ??$extract_argument_from_va_list@F_J@?$standard_base@_WV?$string_output_adapter@_W@__crt_stdio_output@@@__crt_stdio_output@@IAE_NAA_J@Z 00469ff0 f i libucrtd:output.obj
 0001:00069020       ??$extract_argument_from_va_list@GD@?$standard_base@DV?$stream_output_adapter@D@__crt_stdio_output@@@__crt_stdio_output@@IAE_NAAD@Z 0046a020 f i libucrtd:output.obj
 0001:00069050       ??$extract_argument_from_va_list@GD@?$standard_base@DV?$string_output_adapter@D@__crt_stdio_output@@@__crt_stdio_output@@IAE_NAAD@Z 0046a050 f i libucrtd:output.obj
 0001:00069080       ??$extract_argument_from_va_list@G_J@?$standard_base@DV?$stream_output_adapter@D@__crt_stdio_output@@@__crt_stdio_output@@IAE_NAA_J@Z 0046a080 f i libucrtd:output.obj
 0001:000690b0       ??$extract_argument_from_va_list@G_J@?$standard_base@DV?$string_output_adapter@D@__crt_stdio_output@@@__crt_stdio_output@@IAE_NAA_J@Z 0046a0b0 f i libucrtd:output.obj
 0001:000690e0       ??$extract_argument_from_va_list@G_J@?$standard_base@_WV?$string_output_adapter@_W@__crt_stdio_output@@@__crt_stdio_output@@IAE_NAA_J@Z 0046a0e0 f i libucrtd:output.obj
 0001:00069110       ??$extract_argument_from_va_list@H_J@?$standard_base@DV?$stream_output_adapter@D@__crt_stdio_output@@@__crt_stdio_output@@IAE_NAA_J@Z 0046a110 f i libucrtd:output.obj
 0001:00069140       ??$extract_argument_from_va_list@H_J@?$standard_base@DV?$string_output_adapter@D@__crt_stdio_output@@@__crt_stdio_output@@IAE_NAA_J@Z 0046a140 f i libucrtd:output.obj
 0001:00069170       ??$extract_argument_from_va_list@H_J@?$standard_base@_WV?$string_output_adapter@_W@__crt_stdio_output@@@__crt_stdio_output@@IAE_NAA_J@Z 0046a170 f i libucrtd:output.obj
 0001:000691a0       ??$extract_argument_from_va_list@I_J@?$standard_base@DV?$stream_output_adapter@D@__crt_stdio_output@@@__crt_stdio_output@@IAE_NAA_J@Z 0046a1a0 f i libucrtd:output.obj
 0001:000691d0       ??$extract_argument_from_va_list@I_J@?$standard_base@DV?$string_output_adapter@D@__crt_stdio_output@@@__crt_stdio_output@@IAE_NAA_J@Z 0046a1d0 f i libucrtd:output.obj
 0001:00069200       ??$extract_argument_from_va_list@I_J@?$standard_base@_WV?$string_output_adapter@_W@__crt_stdio_output@@@__crt_stdio_output@@IAE_NAA_J@Z 0046a200 f i libucrtd:output.obj
 0001:00069230       ??$extract_argument_from_va_list@PADPAD@?$standard_base@DV?$stream_output_adapter@D@__crt_stdio_output@@@__crt_stdio_output@@IAE_NAAPAD@Z 0046a230 f i libucrtd:output.obj
 0001:00069260       ??$extract_argument_from_va_list@PADPAD@?$standard_base@DV?$string_output_adapter@D@__crt_stdio_output@@@__crt_stdio_output@@IAE_NAAPAD@Z 0046a260 f i libucrtd:output.obj
 0001:00069290       ??$extract_argument_from_va_list@PADPAD@?$standard_base@_WV?$string_output_adapter@_W@__crt_stdio_output@@@__crt_stdio_output@@IAE_NAAPAD@Z 0046a290 f i libucrtd:output.obj
 0001:000692c0       ??$extract_argument_from_va_list@PAUansi_string@?1??type_case_Z@?$output_processor@DV?$stream_output_adapter@D@__crt_stdio_output@@V?$standard_base@DV?$stream_output_adapter@D@__crt_stdio_output@@@2@@__crt_stdio_output@@AAE_NXZ@PAU1?1??234@AAE_NXZ@@?$standard_base@DV?$stream_output_adapter@D@__crt_stdio_output@@@__crt_stdio_output@@IAE_NAAPAUansi_string@?1??type_case_Z@?$output_processor@DV?$stream_output_adapter@D@__crt_stdio_output@@V?$standard_base@DV?$stream_output_adapter@D@__crt_stdio_output@@@2@@1@AAE_NXZ@@Z 0046a2c0 f i libucrtd:output.obj
 0001:000692f0       ??$extract_argument_from_va_list@PAUansi_string@?1??type_case_Z@?$output_processor@DV?$string_output_adapter@D@__crt_stdio_output@@V?$format_validation_base@DV?$string_output_adapter@D@__crt_stdio_output@@@2@@__crt_stdio_output@@AAE_NXZ@PAU1?1??234@AAE_NXZ@@?$standard_base@DV?$string_output_adapter@D@__crt_stdio_output@@@__crt_stdio_output@@IAE_NAAPAUansi_string@?1??type_case_Z@?$output_processor@DV?$string_output_adapter@D@__crt_stdio_output@@V?$format_validation_base@DV?$string_output_adapter@D@__crt_stdio_output@@@2@@1@AAE_NXZ@@Z 0046a2f0 f i libucrtd:output.obj
 0001:00069320       ??$extract_argument_from_va_list@PAUansi_string@?1??type_case_Z@?$output_processor@DV?$string_output_adapter@D@__crt_stdio_output@@V?$standard_base@DV?$string_output_adapter@D@__crt_stdio_output@@@2@@__crt_stdio_output@@AAE_NXZ@PAU1?1??234@AAE_NXZ@@?$standard_base@DV?$string_output_adapter@D@__crt_stdio_output@@@__crt_stdio_output@@IAE_NAAPAUansi_string@?1??type_case_Z@?$output_processor@DV?$string_output_adapter@D@__crt_stdio_output@@V?$standard_base@DV?$string_output_adapter@D@__crt_stdio_output@@@2@@1@AAE_NXZ@@Z 0046a320 f i libucrtd:output.obj
 0001:00069350       ??$extract_argument_from_va_list@PAUansi_string@?1??type_case_Z@?$output_processor@_WV?$string_output_adapter@_W@__crt_stdio_output@@V?$format_validation_base@_WV?$string_output_adapter@_W@__crt_stdio_output@@@2@@__crt_stdio_output@@AAE_NXZ@PAU1?1??234@AAE_NXZ@@?$standard_base@_WV?$string_output_adapter@_W@__crt_stdio_output@@@__crt_stdio_output@@IAE_NAAPAUansi_string@?1??type_case_Z@?$output_processor@_WV?$string_output_adapter@_W@__crt_stdio_output@@V?$format_validation_base@_WV?$string_output_adapter@_W@__crt_stdio_output@@@2@@1@AAE_NXZ@@Z 0046a350 f i libucrtd:output.obj
 0001:00069380       ??$extract_argument_from_va_list@PAXPAX@?$standard_base@DV?$stream_output_adapter@D@__crt_stdio_output@@@__crt_stdio_output@@IAE_NAAPAX@Z 0046a380 f i libucrtd:output.obj
 0001:000693b0       ??$extract_argument_from_va_list@PAXPAX@?$standard_base@DV?$string_output_adapter@D@__crt_stdio_output@@@__crt_stdio_output@@IAE_NAAPAX@Z 0046a3b0 f i libucrtd:output.obj
 0001:000693e0       ??$extract_argument_from_va_list@PAXPAX@?$standard_base@_WV?$string_output_adapter@_W@__crt_stdio_output@@@__crt_stdio_output@@IAE_NAAPAX@Z 0046a3e0 f i libucrtd:output.obj
 0001:00069410       ??$extract_argument_from_va_list@U_CRT_DOUBLE@@U1@@?$standard_base@DV?$stream_output_adapter@D@__crt_stdio_output@@@__crt_stdio_output@@IAE_NAAU_CRT_DOUBLE@@@Z 0046a410 f i libucrtd:output.obj
 0001:00069460       ??$extract_argument_from_va_list@U_CRT_DOUBLE@@U1@@?$standard_base@DV?$string_output_adapter@D@__crt_stdio_output@@@__crt_stdio_output@@IAE_NAAU_CRT_DOUBLE@@@Z 0046a460 f i libucrtd:output.obj
 0001:000694b0       ??$extract_argument_from_va_list@U_CRT_DOUBLE@@U1@@?$standard_base@_WV?$string_output_adapter@_W@__crt_stdio_output@@@__crt_stdio_output@@IAE_NAAU_CRT_DOUBLE@@@Z 0046a4b0 f i libucrtd:output.obj
 0001:00069500       ??$extract_argument_from_va_list@_J_J@?$standard_base@DV?$stream_output_adapter@D@__crt_stdio_output@@@__crt_stdio_output@@IAE_NAA_J@Z 0046a500 f i libucrtd:output.obj
 0001:00069530       ??$extract_argument_from_va_list@_J_J@?$standard_base@DV?$string_output_adapter@D@__crt_stdio_output@@@__crt_stdio_output@@IAE_NAA_J@Z 0046a530 f i libucrtd:output.obj
 0001:00069560       ??$extract_argument_from_va_list@_J_J@?$standard_base@_WV?$string_output_adapter@_W@__crt_stdio_output@@@__crt_stdio_output@@IAE_NAA_J@Z 0046a560 f i libucrtd:output.obj
 0001:00069590       ??$extract_argument_from_va_list@_K_J@?$standard_base@DV?$stream_output_adapter@D@__crt_stdio_output@@@__crt_stdio_output@@IAE_NAA_J@Z 0046a590 f i libucrtd:output.obj
 0001:000695c0       ??$extract_argument_from_va_list@_K_J@?$standard_base@DV?$string_output_adapter@D@__crt_stdio_output@@@__crt_stdio_output@@IAE_NAA_J@Z 0046a5c0 f i libucrtd:output.obj
 0001:000695f0       ??$extract_argument_from_va_list@_K_J@?$standard_base@_WV?$string_output_adapter@_W@__crt_stdio_output@@@__crt_stdio_output@@IAE_NAA_J@Z 0046a5f0 f i libucrtd:output.obj
 0001:00069620       ??$extract_argument_from_va_list@_W_W@?$standard_base@DV?$stream_output_adapter@D@__crt_stdio_output@@@__crt_stdio_output@@IAE_NAA_W@Z 0046a620 f i libucrtd:output.obj
 0001:00069650       ??$extract_argument_from_va_list@_W_W@?$standard_base@DV?$string_output_adapter@D@__crt_stdio_output@@@__crt_stdio_output@@IAE_NAA_W@Z 0046a650 f i libucrtd:output.obj
 0001:00069680       ??$extract_argument_from_va_list@_W_W@?$standard_base@_WV?$string_output_adapter@_W@__crt_stdio_output@@@__crt_stdio_output@@IAE_NAA_W@Z 0046a680 f i libucrtd:output.obj
 0001:000696b0       ??$is_wide_character_specifier@D@__crt_stdio_output@@YA_N_KDW4length_modifier@0@@Z 0046a6b0 f i libucrtd:output.obj
 0001:00069730       ??$is_wide_character_specifier@_W@__crt_stdio_output@@YA_N_K_WW4length_modifier@0@@Z 0046a730 f i libucrtd:output.obj
 0001:000697f0       ??$puttc_nolock@ABDPAU_iobuf@@@?$__crt_char_traits@D@@SAHABD$$QAPAU_iobuf@@@Z 0046a7f0 f i libucrtd:output.obj
 0001:00069810       ??$read_va_arg@C@__crt_stdio_output@@YACAAPAD@Z 0046a810 f i libucrtd:output.obj
 0001:00069830       ??$read_va_arg@E@__crt_stdio_output@@YAEAAPAD@Z 0046a830 f i libucrtd:output.obj
 0001:00069850       ??$read_va_arg@F@__crt_stdio_output@@YAFAAPAD@Z 0046a850 f i libucrtd:output.obj
 0001:00069870       ??$read_va_arg@G@__crt_stdio_output@@YAGAAPAD@Z 0046a870 f i libucrtd:output.obj
 0001:00069890       ??$read_va_arg@H@__crt_stdio_output@@YAHAAPAD@Z 0046a890 f i libucrtd:output.obj
 0001:000698b0       ??$read_va_arg@I@__crt_stdio_output@@YAIAAPAD@Z 0046a8b0 f i libucrtd:output.obj
 0001:000698d0       ??$read_va_arg@PAD@__crt_stdio_output@@YAPADAAPAD@Z 0046a8d0 f i libucrtd:output.obj
 0001:000698f0       ??$read_va_arg@PAUansi_string@?1??type_case_Z@?$output_processor@DV?$stream_output_adapter@D@__crt_stdio_output@@V?$standard_base@DV?$stream_output_adapter@D@__crt_stdio_output@@@2@@__crt_stdio_output@@AAE_NXZ@@__crt_stdio_output@@YAPAUansi_string@?1??type_case_Z@?$output_processor@DV?$stream_output_adapter@D@__crt_stdio_output@@V?$standard_base@DV?$stream_output_adapter@D@__crt_stdio_output@@@2@@0@AAE_NXZ@AAPAD@Z 0046a8f0 f i libucrtd:output.obj
 0001:00069910       ??$read_va_arg@PAUansi_string@?1??type_case_Z@?$output_processor@DV?$string_output_adapter@D@__crt_stdio_output@@V?$format_validation_base@DV?$string_output_adapter@D@__crt_stdio_output@@@2@@__crt_stdio_output@@AAE_NXZ@@__crt_stdio_output@@YAPAUansi_string@?1??type_case_Z@?$output_processor@DV?$string_output_adapter@D@__crt_stdio_output@@V?$format_validation_base@DV?$string_output_adapter@D@__crt_stdio_output@@@2@@0@AAE_NXZ@AAPAD@Z 0046a910 f i libucrtd:output.obj
 0001:00069930       ??$read_va_arg@PAUansi_string@?1??type_case_Z@?$output_processor@DV?$string_output_adapter@D@__crt_stdio_output@@V?$standard_base@DV?$string_output_adapter@D@__crt_stdio_output@@@2@@__crt_stdio_output@@AAE_NXZ@@__crt_stdio_output@@YAPAUansi_string@?1??type_case_Z@?$output_processor@DV?$string_output_adapter@D@__crt_stdio_output@@V?$standard_base@DV?$string_output_adapter@D@__crt_stdio_output@@@2@@0@AAE_NXZ@AAPAD@Z 0046a930 f i libucrtd:output.obj
 0001:00069950       ??$read_va_arg@PAUansi_string@?1??type_case_Z@?$output_processor@_WV?$string_output_adapter@_W@__crt_stdio_output@@V?$format_validation_base@_WV?$string_output_adapter@_W@__crt_stdio_output@@@2@@__crt_stdio_output@@AAE_NXZ@@__crt_stdio_output@@YAPAUansi_string@?1??type_case_Z@?$output_processor@_WV?$string_output_adapter@_W@__crt_stdio_output@@V?$format_validation_base@_WV?$string_output_adapter@_W@__crt_stdio_output@@@2@@0@AAE_NXZ@AAPAD@Z 0046a950 f i libucrtd:output.obj
 0001:00069970       ??$read_va_arg@PAX@__crt_stdio_output@@YAPAXAAPAD@Z 0046a970 f i libucrtd:output.obj
 0001:00069990       ??$read_va_arg@U_CRT_DOUBLE@@@__crt_stdio_output@@YA?AU_CRT_DOUBLE@@AAPAD@Z 0046a990 f i libucrtd:output.obj
 0001:000699b0       ??$read_va_arg@_J@__crt_stdio_output@@YA_JAAPAD@Z 0046a9b0 f i libucrtd:output.obj
 0001:000699d0       ??$read_va_arg@_K@__crt_stdio_output@@YA_KAAPAD@Z 0046a9d0 f i libucrtd:output.obj
 0001:000699f0       ??$read_va_arg@_W@__crt_stdio_output@@YA_WAAPAD@Z 0046a9f0 f i libucrtd:output.obj
 0001:00069a10       ??$scratch_count@D@formatting_buffer@__crt_stdio_output@@QBEIXZ 0046aa10 f i libucrtd:output.obj
 0001:00069a30       ??$scratch_data@D@formatting_buffer@__crt_stdio_output@@QAEPADXZ 0046aa30 f i libucrtd:output.obj
 0001:00069a80       ??$tcstol@PBDPAPADH@?$__crt_char_traits@D@@SAJ$$QAPBD$$QAPAPAD$$QAH@Z 0046aa80 f i libucrtd:output.obj
 0001:00069ab0       ??$tcstol@PB_WPAPA_WH@?$__crt_char_traits@_W@@SAJ$$QAPB_W$$QAPAPA_W$$QAH@Z 0046aab0 f i libucrtd:output.obj
 0001:00069ae0       ??$type_case_integer_parse_into_buffer@I@?$output_processor@DV?$stream_output_adapter@D@__crt_stdio_output@@V?$standard_base@DV?$stream_output_adapter@D@__crt_stdio_output@@@2@@__crt_stdio_output@@AAEXII_N@Z 0046aae0 f i libucrtd:output.obj
 0001:00069bb0       ??$type_case_integer_parse_into_buffer@I@?$output_processor@DV?$string_output_adapter@D@__crt_stdio_output@@V?$format_validation_base@DV?$string_output_adapter@D@__crt_stdio_output@@@2@@__crt_stdio_output@@AAEXII_N@Z 0046abb0 f i libucrtd:output.obj
 0001:00069c80       ??$type_case_integer_parse_into_buffer@I@?$output_processor@DV?$string_output_adapter@D@__crt_stdio_output@@V?$standard_base@DV?$string_output_adapter@D@__crt_stdio_output@@@2@@__crt_stdio_output@@AAEXII_N@Z 0046ac80 f i libucrtd:output.obj
 0001:00069d50       ??$type_case_integer_parse_into_buffer@I@?$output_processor@_WV?$string_output_adapter@_W@__crt_stdio_output@@V?$format_validation_base@_WV?$string_output_adapter@_W@__crt_stdio_output@@@2@@__crt_stdio_output@@AAEXII_N@Z 0046ad50 f i libucrtd:output.obj
 0001:00069e20       ??$type_case_integer_parse_into_buffer@_K@?$output_processor@DV?$stream_output_adapter@D@__crt_stdio_output@@V?$standard_base@DV?$stream_output_adapter@D@__crt_stdio_output@@@2@@__crt_stdio_output@@AAEX_KI_N@Z 0046ae20 f i libucrtd:output.obj
 0001:00069f20       ??$type_case_integer_parse_into_buffer@_K@?$output_processor@DV?$string_output_adapter@D@__crt_stdio_output@@V?$format_validation_base@DV?$string_output_adapter@D@__crt_stdio_output@@@2@@__crt_stdio_output@@AAEX_KI_N@Z 0046af20 f i libucrtd:output.obj
 0001:0006a020       ??$type_case_integer_parse_into_buffer@_K@?$output_processor@DV?$string_output_adapter@D@__crt_stdio_output@@V?$standard_base@DV?$string_output_adapter@D@__crt_stdio_output@@@2@@__crt_stdio_output@@AAEX_KI_N@Z 0046b020 f i libucrtd:output.obj
 0001:0006a120       ??$type_case_integer_parse_into_buffer@_K@?$output_processor@_WV?$string_output_adapter@_W@__crt_stdio_output@@V?$format_validation_base@_WV?$string_output_adapter@_W@__crt_stdio_output@@@2@@__crt_stdio_output@@AAEX_KI_N@Z 0046b120 f i libucrtd:output.obj
 0001:0006a220       ??$write_multiple_characters@V?$stream_output_adapter@D@__crt_stdio_output@@D@__crt_stdio_output@@YAXABV?$stream_output_adapter@D@0@DHQAH@Z 0046b220 f i libucrtd:output.obj
 0001:0006a270       ??$write_multiple_characters@V?$string_output_adapter@D@__crt_stdio_output@@D@__crt_stdio_output@@YAXABV?$string_output_adapter@D@0@DHQAH@Z 0046b270 f i libucrtd:output.obj
 0001:0006a2c0       ??$write_multiple_characters@V?$string_output_adapter@_W@__crt_stdio_output@@D@__crt_stdio_output@@YAXABV?$string_output_adapter@_W@0@DHQAH@Z 0046b2c0 f i libucrtd:output.obj
 0001:0006a390       ??0?$common_data@D@__crt_stdio_output@@IAE@XZ 0046b390 f i libucrtd:output.obj
 0001:0006a440       ??0?$common_data@_W@__crt_stdio_output@@IAE@XZ 0046b440 f i libucrtd:output.obj
 0001:0006a4f0       ??0?$output_adapter_data@DV?$stream_output_adapter@D@__crt_stdio_output@@@__crt_stdio_output@@IAE@ABV?$stream_output_adapter@D@1@_KQBDQAU__crt_locale_pointers@@QAD@Z 0046b4f0 f i libucrtd:output.obj
 0001:0006a550       ??0?$output_adapter_data@DV?$string_output_adapter@D@__crt_stdio_output@@@__crt_stdio_output@@IAE@ABV?$string_output_adapter@D@1@_KQBDQAU__crt_locale_pointers@@QAD@Z 0046b550 f i libucrtd:output.obj
 0001:0006a5b0       ??0?$output_adapter_data@_WV?$string_output_adapter@_W@__crt_stdio_output@@@__crt_stdio_output@@IAE@ABV?$string_output_adapter@_W@1@_KQB_WQAU__crt_locale_pointers@@QAD@Z 0046b5b0 f i libucrtd:output.obj
 0001:0006a610       ??0?$output_processor@DV?$stream_output_adapter@D@__crt_stdio_output@@V?$standard_base@DV?$stream_output_adapter@D@__crt_stdio_output@@@2@@__crt_stdio_output@@QAE@ABV?$stream_output_adapter@D@1@_KQBDQAU__crt_locale_pointers@@QAD@Z 0046b610 f i libucrtd:output.obj
 0001:0006a650       ??0?$output_processor@DV?$string_output_adapter@D@__crt_stdio_output@@V?$format_validation_base@DV?$string_output_adapter@D@__crt_stdio_output@@@2@@__crt_stdio_output@@QAE@ABV?$string_output_adapter@D@1@_KQBDQAU__crt_locale_pointers@@QAD@Z 0046b650 f i libucrtd:output.obj
 0001:0006a690       ??0?$output_processor@DV?$string_output_adapter@D@__crt_stdio_output@@V?$standard_base@DV?$string_output_adapter@D@__crt_stdio_output@@@2@@__crt_stdio_output@@QAE@ABV?$string_output_adapter@D@1@_KQBDQAU__crt_locale_pointers@@QAD@Z 0046b690 f i libucrtd:output.obj
 0001:0006a6d0       ??0?$output_processor@_WV?$string_output_adapter@_W@__crt_stdio_output@@V?$format_validation_base@_WV?$string_output_adapter@_W@__crt_stdio_output@@@2@@__crt_stdio_output@@QAE@ABV?$string_output_adapter@_W@1@_KQB_WQAU__crt_locale_pointers@@QAD@Z 0046b6d0 f i libucrtd:output.obj
 0001:0006a710       ??0?$stream_output_adapter@D@__crt_stdio_output@@QAE@QAU_iobuf@@@Z 0046b710 f i libucrtd:output.obj
 0001:0006a730       ??0?$string_output_adapter@D@__crt_stdio_output@@QAE@QAU?$string_output_adapter_context@D@1@@Z 0046b730 f i libucrtd:output.obj
 0001:0006a750       ??0?$string_output_adapter@_W@__crt_stdio_output@@QAE@QAU?$string_output_adapter_context@_W@1@@Z 0046b750 f i libucrtd:output.obj
 0001:0006a770       ??0_LocaleUpdate@@QAE@QAU__crt_locale_pointers@@@Z 0046b770 f i libucrtd:output.obj
 0001:0006a850       ??0__crt_errno_guard@@QAE@QAH@Z 0046b850 f i libucrtd:output.obj
 0001:0006a880       ??0formatting_buffer@__crt_stdio_output@@QAE@XZ 0046b880 f i libucrtd:output.obj
 0001:0006a8b0       ??1?$common_data@D@__crt_stdio_output@@QAE@XZ 0046b8b0 f i libucrtd:output.obj
 0001:0006a8d0       ??1?$common_data@_W@__crt_stdio_output@@QAE@XZ 0046b8d0 f i libucrtd:output.obj
 0001:0006a8f0       ??1?$format_validation_base@DV?$string_output_adapter@D@__crt_stdio_output@@@__crt_stdio_output@@QAE@XZ 0046b8f0 f i libucrtd:output.obj
 0001:0006a910       ??1?$format_validation_base@_WV?$string_output_adapter@_W@__crt_stdio_output@@@__crt_stdio_output@@QAE@XZ 0046b910 f i libucrtd:output.obj
 0001:0006a930       ??1?$output_adapter_data@DV?$stream_output_adapter@D@__crt_stdio_output@@@__crt_stdio_output@@QAE@XZ 0046b930 f i libucrtd:output.obj
 0001:0006a950       ??1?$output_adapter_data@DV?$string_output_adapter@D@__crt_stdio_output@@@__crt_stdio_output@@QAE@XZ 0046b950 f i libucrtd:output.obj
 0001:0006a970       ??1?$output_adapter_data@_WV?$string_output_adapter@_W@__crt_stdio_output@@@__crt_stdio_output@@QAE@XZ 0046b970 f i libucrtd:output.obj
 0001:0006a990       ??1?$output_processor@DV?$stream_output_adapter@D@__crt_stdio_output@@V?$standard_base@DV?$stream_output_adapter@D@__crt_stdio_output@@@2@@__crt_stdio_output@@QAE@XZ 0046b990 f i libucrtd:output.obj
 0001:0006a9b0       ??1?$output_processor@DV?$string_output_adapter@D@__crt_stdio_output@@V?$format_validation_base@DV?$string_output_adapter@D@__crt_stdio_output@@@2@@__crt_stdio_output@@QAE@XZ 0046b9b0 f i libucrtd:output.obj
 0001:0006a9d0       ??1?$output_processor@DV?$string_output_adapter@D@__crt_stdio_output@@V?$standard_base@DV?$string_output_adapter@D@__crt_stdio_output@@@2@@__crt_stdio_output@@QAE@XZ 0046b9d0 f i libucrtd:output.obj
 0001:0006a9f0       ??1?$output_processor@_WV?$string_output_adapter@_W@__crt_stdio_output@@V?$format_validation_base@_WV?$string_output_adapter@_W@__crt_stdio_output@@@2@@__crt_stdio_output@@QAE@XZ 0046b9f0 f i libucrtd:output.obj
 0001:0006aa10       ??1?$standard_base@DV?$stream_output_adapter@D@__crt_stdio_output@@@__crt_stdio_output@@QAE@XZ 0046ba10 f i libucrtd:output.obj
 0001:0006aa30       ??1?$standard_base@DV?$string_output_adapter@D@__crt_stdio_output@@@__crt_stdio_output@@QAE@XZ 0046ba30 f i libucrtd:output.obj
 0001:0006aa50       ??1?$standard_base@_WV?$string_output_adapter@_W@__crt_stdio_output@@@__crt_stdio_output@@QAE@XZ 0046ba50 f i libucrtd:output.obj
 0001:0006aa70       ??1_LocaleUpdate@@QAE@XZ   0046ba70 f i libucrtd:output.obj
 0001:0006aab0       ??1__crt_errno_guard@@QAE@XZ 0046bab0 f i libucrtd:output.obj
 0001:0006aae0       ??1formatting_buffer@__crt_stdio_output@@QAE@XZ 0046bae0 f i libucrtd:output.obj
 0001:0006ab00       ??4?$__crt_unique_heap_ptr@DU__crt_internal_free_policy@@@@QAEAAV0@$$QAV0@@Z 0046bb00 f i libucrtd:output.obj
 0001:0006ac60       ?GetLocaleT@_LocaleUpdate@@QAEPAU__crt_locale_pointers@@XZ 0046bc60 f i libucrtd:output.obj
 0001:0006ac80       ?adjust_hexit@?$output_processor@DV?$stream_output_adapter@D@__crt_stdio_output@@V?$standard_base@DV?$stream_output_adapter@D@__crt_stdio_output@@@2@@__crt_stdio_output@@CADH_N@Z 0046bc80 f i libucrtd:output.obj
 0001:0006acc0       ?adjust_hexit@?$output_processor@DV?$string_output_adapter@D@__crt_stdio_output@@V?$format_validation_base@DV?$string_output_adapter@D@__crt_stdio_output@@@2@@__crt_stdio_output@@CADH_N@Z 0046bcc0 f i libucrtd:output.obj
 0001:0006ad00       ?adjust_hexit@?$output_processor@DV?$string_output_adapter@D@__crt_stdio_output@@V?$standard_base@DV?$string_output_adapter@D@__crt_stdio_output@@@2@@__crt_stdio_output@@CADH_N@Z 0046bd00 f i libucrtd:output.obj
 0001:0006ad40       ?adjust_hexit@?$output_processor@_WV?$string_output_adapter@_W@__crt_stdio_output@@V?$format_validation_base@_WV?$string_output_adapter@_W@__crt_stdio_output@@@2@@__crt_stdio_output@@CADH_N@Z 0046bd40 f i libucrtd:output.obj
 0001:0006ad80       ?advance_to_next_pass@?$standard_base@DV?$stream_output_adapter@D@__crt_stdio_output@@@__crt_stdio_output@@IAE_NXZ 0046bd80 f i libucrtd:output.obj
 0001:0006add0       ?advance_to_next_pass@?$standard_base@DV?$string_output_adapter@D@__crt_stdio_output@@@__crt_stdio_output@@IAE_NXZ 0046bdd0 f i libucrtd:output.obj
 0001:0006ae20       ?advance_to_next_pass@?$standard_base@_WV?$string_output_adapter@_W@__crt_stdio_output@@@__crt_stdio_output@@IAE_NXZ 0046be20 f i libucrtd:output.obj
 0001:0006ae70       ?crop_zeroes@__crt_stdio_output@@YAXPADQAU__crt_locale_pointers@@@Z 0046be70 f i libucrtd:output.obj
 0001:0006af70       ?find_next_state@?$output_processor@DV?$stream_output_adapter@D@__crt_stdio_output@@V?$standard_base@DV?$stream_output_adapter@D@__crt_stdio_output@@@2@@__crt_stdio_output@@ABE?AW4state@2@DW432@@Z 0046bf70 f i libucrtd:output.obj
 0001:0006aff0       ?find_next_state@?$output_processor@DV?$string_output_adapter@D@__crt_stdio_output@@V?$format_validation_base@DV?$string_output_adapter@D@__crt_stdio_output@@@2@@__crt_stdio_output@@ABE?AW4state@2@DW432@@Z 0046bff0 f i libucrtd:output.obj
 0001:0006b070       ?find_next_state@?$output_processor@DV?$string_output_adapter@D@__crt_stdio_output@@V?$standard_base@DV?$string_output_adapter@D@__crt_stdio_output@@@2@@__crt_stdio_output@@ABE?AW4state@2@DW432@@Z 0046c070 f i libucrtd:output.obj
 0001:0006b0f0       ?find_next_state@?$output_processor@_WV?$string_output_adapter@_W@__crt_stdio_output@@V?$format_validation_base@_WV?$string_output_adapter@_W@__crt_stdio_output@@@2@@__crt_stdio_output@@ABE?AW4state@2@_WW432@@Z 0046c0f0 f i libucrtd:output.obj
 0001:0006b170       ?force_decimal_point@__crt_stdio_output@@YAXPADQAU__crt_locale_pointers@@@Z 0046c170 f i libucrtd:output.obj
 0001:0006b220       ?has_flag@?$output_processor@DV?$stream_output_adapter@D@__crt_stdio_output@@V?$standard_base@DV?$stream_output_adapter@D@__crt_stdio_output@@@2@@__crt_stdio_output@@ABE_NI@Z 0046c220 f i libucrtd:output.obj
 0001:0006b250       ?has_flag@?$output_processor@DV?$string_output_adapter@D@__crt_stdio_output@@V?$format_validation_base@DV?$string_output_adapter@D@__crt_stdio_output@@@2@@__crt_stdio_output@@ABE_NI@Z 0046c250 f i libucrtd:output.obj
 0001:0006b280       ?has_flag@?$output_processor@DV?$string_output_adapter@D@__crt_stdio_output@@V?$standard_base@DV?$string_output_adapter@D@__crt_stdio_output@@@2@@__crt_stdio_output@@ABE_NI@Z 0046c280 f i libucrtd:output.obj
 0001:0006b2b0       ?has_flag@?$output_processor@_WV?$string_output_adapter@_W@__crt_stdio_output@@V?$format_validation_base@_WV?$string_output_adapter@_W@__crt_stdio_output@@@2@@__crt_stdio_output@@ABE_NI@Z 0046c2b0 f i libucrtd:output.obj
 0001:0006b2e0       ?narrow_null_string@?$output_processor@DV?$stream_output_adapter@D@__crt_stdio_output@@V?$standard_base@DV?$stream_output_adapter@D@__crt_stdio_output@@@2@@__crt_stdio_output@@CAPADXZ 0046c2e0 f i libucrtd:output.obj
 0001:0006b2f0       ?narrow_null_string@?$output_processor@DV?$string_output_adapter@D@__crt_stdio_output@@V?$format_validation_base@DV?$string_output_adapter@D@__crt_stdio_output@@@2@@__crt_stdio_output@@CAPADXZ 0046c2f0 f i libucrtd:output.obj
 0001:0006b300       ?narrow_null_string@?$output_processor@DV?$string_output_adapter@D@__crt_stdio_output@@V?$standard_base@DV?$string_output_adapter@D@__crt_stdio_output@@@2@@__crt_stdio_output@@CAPADXZ 0046c300 f i libucrtd:output.obj
 0001:0006b310       ?narrow_null_string@?$output_processor@_WV?$string_output_adapter@_W@__crt_stdio_output@@V?$format_validation_base@_WV?$string_output_adapter@_W@__crt_stdio_output@@@2@@__crt_stdio_output@@CAPADXZ 0046c310 f i libucrtd:output.obj
 0001:0006b320       ?parse_int_from_format_string@?$output_processor@DV?$stream_output_adapter@D@__crt_stdio_output@@V?$standard_base@DV?$stream_output_adapter@D@__crt_stdio_output@@@2@@__crt_stdio_output@@AAE_NQAH@Z 0046c320 f i libucrtd:output.obj
 0001:0006b3d0       ?parse_int_from_format_string@?$output_processor@DV?$string_output_adapter@D@__crt_stdio_output@@V?$format_validation_base@DV?$string_output_adapter@D@__crt_stdio_output@@@2@@__crt_stdio_output@@AAE_NQAH@Z 0046c3d0 f i libucrtd:output.obj
 0001:0006b480       ?parse_int_from_format_string@?$output_processor@DV?$string_output_adapter@D@__crt_stdio_output@@V?$standard_base@DV?$string_output_adapter@D@__crt_stdio_output@@@2@@__crt_stdio_output@@AAE_NQAH@Z 0046c480 f i libucrtd:output.obj
 0001:0006b530       ?parse_int_from_format_string@?$output_processor@_WV?$string_output_adapter@_W@__crt_stdio_output@@V?$format_validation_base@_WV?$string_output_adapter@_W@__crt_stdio_output@@@2@@__crt_stdio_output@@AAE_NQAH@Z 0046c530 f i libucrtd:output.obj
 0001:0006b5e0       ?process@?$output_processor@DV?$stream_output_adapter@D@__crt_stdio_output@@V?$standard_base@DV?$stream_output_adapter@D@__crt_stdio_output@@@2@@__crt_stdio_output@@QAEHXZ 0046c5e0 f i libucrtd:output.obj
 0001:0006b890       ?process@?$output_processor@DV?$string_output_adapter@D@__crt_stdio_output@@V?$format_validation_base@DV?$string_output_adapter@D@__crt_stdio_output@@@2@@__crt_stdio_output@@QAEHXZ 0046c890 f i libucrtd:output.obj
 0001:0006bb40       ?process@?$output_processor@DV?$string_output_adapter@D@__crt_stdio_output@@V?$standard_base@DV?$string_output_adapter@D@__crt_stdio_output@@@2@@__crt_stdio_output@@QAEHXZ 0046cb40 f i libucrtd:output.obj
 0001:0006bdf0       ?process@?$output_processor@_WV?$string_output_adapter@_W@__crt_stdio_output@@V?$format_validation_base@_WV?$string_output_adapter@_W@__crt_stdio_output@@@2@@__crt_stdio_output@@QAEHXZ 0046cdf0 f i libucrtd:output.obj
 0001:0006c0a0       ?set_flag@?$output_processor@DV?$stream_output_adapter@D@__crt_stdio_output@@V?$standard_base@DV?$stream_output_adapter@D@__crt_stdio_output@@@2@@__crt_stdio_output@@AAEXI@Z 0046d0a0 f i libucrtd:output.obj
 0001:0006c0c0       ?set_flag@?$output_processor@DV?$string_output_adapter@D@__crt_stdio_output@@V?$format_validation_base@DV?$string_output_adapter@D@__crt_stdio_output@@@2@@__crt_stdio_output@@AAEXI@Z 0046d0c0 f i libucrtd:output.obj
 0001:0006c0e0       ?set_flag@?$output_processor@DV?$string_output_adapter@D@__crt_stdio_output@@V?$standard_base@DV?$string_output_adapter@D@__crt_stdio_output@@@2@@__crt_stdio_output@@AAEXI@Z 0046d0e0 f i libucrtd:output.obj
 0001:0006c100       ?set_flag@?$output_processor@_WV?$string_output_adapter@_W@__crt_stdio_output@@V?$format_validation_base@_WV?$string_output_adapter@_W@__crt_stdio_output@@@2@@__crt_stdio_output@@AAEXI@Z 0046d100 f i libucrtd:output.obj
 0001:0006c120       ?should_format@?$standard_base@DV?$stream_output_adapter@D@__crt_stdio_output@@@__crt_stdio_output@@IAE_NXZ 0046d120 f i libucrtd:output.obj
 0001:0006c130       ?should_format@?$standard_base@DV?$string_output_adapter@D@__crt_stdio_output@@@__crt_stdio_output@@IAE_NXZ 0046d130 f i libucrtd:output.obj
 0001:0006c140       ?should_format@?$standard_base@_WV?$string_output_adapter@_W@__crt_stdio_output@@@__crt_stdio_output@@IAE_NXZ 0046d140 f i libucrtd:output.obj
 0001:0006c150       ?should_skip_normal_state_processing@?$standard_base@DV?$stream_output_adapter@D@__crt_stdio_output@@@__crt_stdio_output@@IAE_NXZ 0046d150 f i libucrtd:output.obj
 0001:0006c160       ?should_skip_normal_state_processing@?$standard_base@DV?$string_output_adapter@D@__crt_stdio_output@@@__crt_stdio_output@@IAE_NXZ 0046d160 f i libucrtd:output.obj
 0001:0006c170       ?should_skip_normal_state_processing@?$standard_base@_WV?$string_output_adapter@_W@__crt_stdio_output@@@__crt_stdio_output@@IAE_NXZ 0046d170 f i libucrtd:output.obj
 0001:0006c180       ?should_skip_type_state_output@?$standard_base@DV?$stream_output_adapter@D@__crt_stdio_output@@@__crt_stdio_output@@IBE_NXZ 0046d180 f i libucrtd:output.obj
 0001:0006c190       ?should_skip_type_state_output@?$standard_base@DV?$string_output_adapter@D@__crt_stdio_output@@@__crt_stdio_output@@IBE_NXZ 0046d190 f i libucrtd:output.obj
 0001:0006c1a0       ?should_skip_type_state_output@?$standard_base@_WV?$string_output_adapter@_W@__crt_stdio_output@@@__crt_stdio_output@@IBE_NXZ 0046d1a0 f i libucrtd:output.obj
 0001:0006c1b0       ?state_case_dot@?$output_processor@DV?$stream_output_adapter@D@__crt_stdio_output@@V?$standard_base@DV?$stream_output_adapter@D@__crt_stdio_output@@@2@@__crt_stdio_output@@AAE_NXZ 0046d1b0 f i libucrtd:output.obj
 0001:0006c1d0       ?state_case_dot@?$output_processor@DV?$string_output_adapter@D@__crt_stdio_output@@V?$format_validation_base@DV?$string_output_adapter@D@__crt_stdio_output@@@2@@__crt_stdio_output@@AAE_NXZ 0046d1d0 f i libucrtd:output.obj
 0001:0006c1f0       ?state_case_dot@?$output_processor@DV?$string_output_adapter@D@__crt_stdio_output@@V?$standard_base@DV?$string_output_adapter@D@__crt_stdio_output@@@2@@__crt_stdio_output@@AAE_NXZ 0046d1f0 f i libucrtd:output.obj
 0001:0006c210       ?state_case_dot@?$output_processor@_WV?$string_output_adapter@_W@__crt_stdio_output@@V?$format_validation_base@_WV?$string_output_adapter@_W@__crt_stdio_output@@@2@@__crt_stdio_output@@AAE_NXZ 0046d210 f i libucrtd:output.obj
 0001:0006c230       ?state_case_flag@?$output_processor@DV?$stream_output_adapter@D@__crt_stdio_output@@V?$standard_base@DV?$stream_output_adapter@D@__crt_stdio_output@@@2@@__crt_stdio_output@@AAE_NXZ 0046d230 f i libucrtd:output.obj
 0001:0006c2e0       ?state_case_flag@?$output_processor@DV?$string_output_adapter@D@__crt_stdio_output@@V?$format_validation_base@DV?$string_output_adapter@D@__crt_stdio_output@@@2@@__crt_stdio_output@@AAE_NXZ 0046d2e0 f i libucrtd:output.obj
 0001:0006c390       ?state_case_flag@?$output_processor@DV?$string_output_adapter@D@__crt_stdio_output@@V?$standard_base@DV?$string_output_adapter@D@__crt_stdio_output@@@2@@__crt_stdio_output@@AAE_NXZ 0046d390 f i libucrtd:output.obj
 0001:0006c440       ?state_case_flag@?$output_processor@_WV?$string_output_adapter@_W@__crt_stdio_output@@V?$format_validation_base@_WV?$string_output_adapter@_W@__crt_stdio_output@@@2@@__crt_stdio_output@@AAE_NXZ 0046d440 f i libucrtd:output.obj
 0001:0006c4f0       ?state_case_normal@?$output_processor@DV?$stream_output_adapter@D@__crt_stdio_output@@V?$standard_base@DV?$stream_output_adapter@D@__crt_stdio_output@@@2@@__crt_stdio_output@@AAE_NXZ 0046d4f0 f i libucrtd:output.obj
 0001:0006c5a0       ?state_case_normal@?$output_processor@DV?$string_output_adapter@D@__crt_stdio_output@@V?$format_validation_base@DV?$string_output_adapter@D@__crt_stdio_output@@@2@@__crt_stdio_output@@AAE_NXZ 0046d5a0 f i libucrtd:output.obj
 0001:0006c650       ?state_case_normal@?$output_processor@DV?$string_output_adapter@D@__crt_stdio_output@@V?$standard_base@DV?$string_output_adapter@D@__crt_stdio_output@@@2@@__crt_stdio_output@@AAE_NXZ 0046d650 f i libucrtd:output.obj
 0001:0006c700       ?state_case_normal@?$output_processor@_WV?$string_output_adapter@_W@__crt_stdio_output@@V?$format_validation_base@_WV?$string_output_adapter@_W@__crt_stdio_output@@@2@@__crt_stdio_output@@AAE_NXZ 0046d700 f i libucrtd:output.obj
 0001:0006c7b0       ?state_case_normal_common@?$output_processor@DV?$stream_output_adapter@D@__crt_stdio_output@@V?$standard_base@DV?$stream_output_adapter@D@__crt_stdio_output@@@2@@__crt_stdio_output@@AAE_NXZ 0046d7b0 f i libucrtd:output.obj
 0001:0006c800       ?state_case_normal_common@?$output_processor@DV?$string_output_adapter@D@__crt_stdio_output@@V?$format_validation_base@DV?$string_output_adapter@D@__crt_stdio_output@@@2@@__crt_stdio_output@@AAE_NXZ 0046d800 f i libucrtd:output.obj
 0001:0006c850       ?state_case_normal_common@?$output_processor@DV?$string_output_adapter@D@__crt_stdio_output@@V?$standard_base@DV?$string_output_adapter@D@__crt_stdio_output@@@2@@__crt_stdio_output@@AAE_NXZ 0046d850 f i libucrtd:output.obj
 0001:0006c8a0       ?state_case_normal_common@?$output_processor@_WV?$string_output_adapter@_W@__crt_stdio_output@@V?$format_validation_base@_WV?$string_output_adapter@_W@__crt_stdio_output@@@2@@__crt_stdio_output@@AAE_NXZ 0046d8a0 f i libucrtd:output.obj
 0001:0006c8f0       ?state_case_normal_tchar@?$output_processor@DV?$stream_output_adapter@D@__crt_stdio_output@@V?$standard_base@DV?$stream_output_adapter@D@__crt_stdio_output@@@2@@__crt_stdio_output@@AAE_ND@Z 0046d8f0 f i libucrtd:output.obj
 0001:0006c9f0       ?state_case_normal_tchar@?$output_processor@DV?$string_output_adapter@D@__crt_stdio_output@@V?$format_validation_base@DV?$string_output_adapter@D@__crt_stdio_output@@@2@@__crt_stdio_output@@AAE_ND@Z 0046d9f0 f i libucrtd:output.obj
 0001:0006caf0       ?state_case_normal_tchar@?$output_processor@DV?$string_output_adapter@D@__crt_stdio_output@@V?$standard_base@DV?$string_output_adapter@D@__crt_stdio_output@@@2@@__crt_stdio_output@@AAE_ND@Z 0046daf0 f i libucrtd:output.obj
 0001:0006cbf0       ?state_case_normal_tchar@?$output_processor@_WV?$string_output_adapter@_W@__crt_stdio_output@@V?$format_validation_base@_WV?$string_output_adapter@_W@__crt_stdio_output@@@2@@__crt_stdio_output@@AAE_N_W@Z 0046dbf0 f i libucrtd:output.obj
 0001:0006cc10       ?state_case_percent@?$output_processor@DV?$stream_output_adapter@D@__crt_stdio_output@@V?$standard_base@DV?$stream_output_adapter@D@__crt_stdio_output@@@2@@__crt_stdio_output@@AAE_NXZ 0046dc10 f i libucrtd:output.obj
 0001:0006cc60       ?state_case_percent@?$output_processor@DV?$string_output_adapter@D@__crt_stdio_output@@V?$format_validation_base@DV?$string_output_adapter@D@__crt_stdio_output@@@2@@__crt_stdio_output@@AAE_NXZ 0046dc60 f i libucrtd:output.obj
 0001:0006ccb0       ?state_case_percent@?$output_processor@DV?$string_output_adapter@D@__crt_stdio_output@@V?$standard_base@DV?$string_output_adapter@D@__crt_stdio_output@@@2@@__crt_stdio_output@@AAE_NXZ 0046dcb0 f i libucrtd:output.obj
 0001:0006cd00       ?state_case_percent@?$output_processor@_WV?$string_output_adapter@_W@__crt_stdio_output@@V?$format_validation_base@_WV?$string_output_adapter@_W@__crt_stdio_output@@@2@@__crt_stdio_output@@AAE_NXZ 0046dd00 f i libucrtd:output.obj
 0001:0006cd50       ?state_case_precision@?$output_processor@DV?$stream_output_adapter@D@__crt_stdio_output@@V?$standard_base@DV?$stream_output_adapter@D@__crt_stdio_output@@@2@@__crt_stdio_output@@AAE_NXZ 0046dd50 f i libucrtd:output.obj
 0001:0006cdc0       ?state_case_precision@?$output_processor@DV?$string_output_adapter@D@__crt_stdio_output@@V?$format_validation_base@DV?$string_output_adapter@D@__crt_stdio_output@@@2@@__crt_stdio_output@@AAE_NXZ 0046ddc0 f i libucrtd:output.obj
 0001:0006ce30       ?state_case_precision@?$output_processor@DV?$string_output_adapter@D@__crt_stdio_output@@V?$standard_base@DV?$string_output_adapter@D@__crt_stdio_output@@@2@@__crt_stdio_output@@AAE_NXZ 0046de30 f i libucrtd:output.obj
 0001:0006cea0       ?state_case_precision@?$output_processor@_WV?$string_output_adapter@_W@__crt_stdio_output@@V?$format_validation_base@_WV?$string_output_adapter@_W@__crt_stdio_output@@@2@@__crt_stdio_output@@AAE_NXZ 0046dea0 f i libucrtd:output.obj
 0001:0006cf20       ?state_case_size@?$output_processor@DV?$stream_output_adapter@D@__crt_stdio_output@@V?$standard_base@DV?$stream_output_adapter@D@__crt_stdio_output@@@2@@__crt_stdio_output@@AAE_NXZ 0046df20 f i libucrtd:output.obj
 0001:0006d2f0       ?state_case_size@?$output_processor@DV?$string_output_adapter@D@__crt_stdio_output@@V?$format_validation_base@DV?$string_output_adapter@D@__crt_stdio_output@@@2@@__crt_stdio_output@@AAE_NXZ 0046e2f0 f i libucrtd:output.obj
 0001:0006d6c0       ?state_case_size@?$output_processor@DV?$string_output_adapter@D@__crt_stdio_output@@V?$standard_base@DV?$string_output_adapter@D@__crt_stdio_output@@@2@@__crt_stdio_output@@AAE_NXZ 0046e6c0 f i libucrtd:output.obj
 0001:0006da90       ?state_case_size@?$output_processor@_WV?$string_output_adapter@_W@__crt_stdio_output@@V?$format_validation_base@_WV?$string_output_adapter@_W@__crt_stdio_output@@@2@@__crt_stdio_output@@AAE_NXZ 0046ea90 f i libucrtd:output.obj
 0001:0006de60       ?state_case_type@?$output_processor@DV?$stream_output_adapter@D@__crt_stdio_output@@V?$standard_base@DV?$stream_output_adapter@D@__crt_stdio_output@@@2@@__crt_stdio_output@@AAE_NXZ 0046ee60 f i libucrtd:output.obj
 0001:0006e210       ?state_case_type@?$output_processor@DV?$string_output_adapter@D@__crt_stdio_output@@V?$format_validation_base@DV?$string_output_adapter@D@__crt_stdio_output@@@2@@__crt_stdio_output@@AAE_NXZ 0046f210 f i libucrtd:output.obj
 0001:0006e5c0       ?state_case_type@?$output_processor@DV?$string_output_adapter@D@__crt_stdio_output@@V?$standard_base@DV?$string_output_adapter@D@__crt_stdio_output@@@2@@__crt_stdio_output@@AAE_NXZ 0046f5c0 f i libucrtd:output.obj
 0001:0006e970       ?state_case_type@?$output_processor@_WV?$string_output_adapter@_W@__crt_stdio_output@@V?$format_validation_base@_WV?$string_output_adapter@_W@__crt_stdio_output@@@2@@__crt_stdio_output@@AAE_NXZ 0046f970 f i libucrtd:output.obj
 0001:0006ed50       ?state_case_width@?$output_processor@DV?$stream_output_adapter@D@__crt_stdio_output@@V?$standard_base@DV?$stream_output_adapter@D@__crt_stdio_output@@@2@@__crt_stdio_output@@AAE_NXZ 0046fd50 f i libucrtd:output.obj
 0001:0006edd0       ?state_case_width@?$output_processor@DV?$string_output_adapter@D@__crt_stdio_output@@V?$format_validation_base@DV?$string_output_adapter@D@__crt_stdio_output@@@2@@__crt_stdio_output@@AAE_NXZ 0046fdd0 f i libucrtd:output.obj
 0001:0006ee50       ?state_case_width@?$output_processor@DV?$string_output_adapter@D@__crt_stdio_output@@V?$standard_base@DV?$string_output_adapter@D@__crt_stdio_output@@@2@@__crt_stdio_output@@AAE_NXZ 0046fe50 f i libucrtd:output.obj
 0001:0006eed0       ?state_case_width@?$output_processor@_WV?$string_output_adapter@_W@__crt_stdio_output@@V?$format_validation_base@_WV?$string_output_adapter@_W@__crt_stdio_output@@@2@@__crt_stdio_output@@AAE_NXZ 0046fed0 f i libucrtd:output.obj
 0001:0006ef50       ?state_count@?$format_validation_base@DV?$string_output_adapter@D@__crt_stdio_output@@@__crt_stdio_output@@KAIXZ 0046ff50 f i libucrtd:output.obj
 0001:0006ef60       ?state_count@?$format_validation_base@_WV?$string_output_adapter@_W@__crt_stdio_output@@@__crt_stdio_output@@KAIXZ 0046ff60 f i libucrtd:output.obj
 0001:0006ef70       ?state_count@?$standard_base@DV?$stream_output_adapter@D@__crt_stdio_output@@@__crt_stdio_output@@KAIXZ 0046ff70 f i libucrtd:output.obj
 0001:0006ef80       ?state_count@?$standard_base@DV?$string_output_adapter@D@__crt_stdio_output@@@__crt_stdio_output@@KAIXZ 0046ff80 f i libucrtd:output.obj
 0001:0006ef90       ?state_transition_table@?$format_validation_base@DV?$string_output_adapter@D@__crt_stdio_output@@@__crt_stdio_output@@KAPBEXZ 0046ff90 f i libucrtd:output.obj
 0001:0006efa0       ?state_transition_table@?$format_validation_base@_WV?$string_output_adapter@_W@__crt_stdio_output@@@__crt_stdio_output@@KAPBEXZ 0046ffa0 f i libucrtd:output.obj
 0001:0006efb0       ?state_transition_table@?$standard_base@DV?$stream_output_adapter@D@__crt_stdio_output@@@__crt_stdio_output@@KAPBEXZ 0046ffb0 f i libucrtd:output.obj
 0001:0006efc0       ?state_transition_table@?$standard_base@DV?$string_output_adapter@D@__crt_stdio_output@@@__crt_stdio_output@@KAPBEXZ 0046ffc0 f i libucrtd:output.obj
 0001:0006efd0       ?to_integer_size@__crt_stdio_output@@YAIW4length_modifier@1@@Z 0046ffd0 f i libucrtd:output.obj
 0001:0006f070       ?type_case_X@?$output_processor@DV?$stream_output_adapter@D@__crt_stdio_output@@V?$standard_base@DV?$stream_output_adapter@D@__crt_stdio_output@@@2@@__crt_stdio_output@@AAE_NXZ 00470070 f i libucrtd:output.obj
 0001:0006f090       ?type_case_X@?$output_processor@DV?$string_output_adapter@D@__crt_stdio_output@@V?$format_validation_base@DV?$string_output_adapter@D@__crt_stdio_output@@@2@@__crt_stdio_output@@AAE_NXZ 00470090 f i libucrtd:output.obj
 0001:0006f0b0       ?type_case_X@?$output_processor@DV?$string_output_adapter@D@__crt_stdio_output@@V?$standard_base@DV?$string_output_adapter@D@__crt_stdio_output@@@2@@__crt_stdio_output@@AAE_NXZ 004700b0 f i libucrtd:output.obj
 0001:0006f0d0       ?type_case_X@?$output_processor@_WV?$string_output_adapter@_W@__crt_stdio_output@@V?$format_validation_base@_WV?$string_output_adapter@_W@__crt_stdio_output@@@2@@__crt_stdio_output@@AAE_NXZ 004700d0 f i libucrtd:output.obj
 0001:0006f0f0       ?type_case_Z@?$output_processor@DV?$stream_output_adapter@D@__crt_stdio_output@@V?$standard_base@DV?$stream_output_adapter@D@__crt_stdio_output@@@2@@__crt_stdio_output@@AAE_NXZ 004700f0 f i libucrtd:output.obj
 0001:0006f1e0       ?type_case_Z@?$output_processor@DV?$string_output_adapter@D@__crt_stdio_output@@V?$format_validation_base@DV?$string_output_adapter@D@__crt_stdio_output@@@2@@__crt_stdio_output@@AAE_NXZ 004701e0 f i libucrtd:output.obj
 0001:0006f2d0       ?type_case_Z@?$output_processor@DV?$string_output_adapter@D@__crt_stdio_output@@V?$standard_base@DV?$string_output_adapter@D@__crt_stdio_output@@@2@@__crt_stdio_output@@AAE_NXZ 004702d0 f i libucrtd:output.obj
 0001:0006f3c0       ?type_case_Z@?$output_processor@_WV?$string_output_adapter@_W@__crt_stdio_output@@V?$format_validation_base@_WV?$string_output_adapter@_W@__crt_stdio_output@@@2@@__crt_stdio_output@@AAE_NXZ 004703c0 f i libucrtd:output.obj
 0001:0006f4b0       ?type_case_a@?$output_processor@DV?$stream_output_adapter@D@__crt_stdio_output@@V?$standard_base@DV?$stream_output_adapter@D@__crt_stdio_output@@@2@@__crt_stdio_output@@AAE_NXZ 004704b0 f i libucrtd:output.obj
 0001:0006f710       ?type_case_a@?$output_processor@DV?$string_output_adapter@D@__crt_stdio_output@@V?$format_validation_base@DV?$string_output_adapter@D@__crt_stdio_output@@@2@@__crt_stdio_output@@AAE_NXZ 00470710 f i libucrtd:output.obj
 0001:0006f970       ?type_case_a@?$output_processor@DV?$string_output_adapter@D@__crt_stdio_output@@V?$standard_base@DV?$string_output_adapter@D@__crt_stdio_output@@@2@@__crt_stdio_output@@AAE_NXZ 00470970 f i libucrtd:output.obj
 0001:0006fbd0       ?type_case_a@?$output_processor@_WV?$string_output_adapter@_W@__crt_stdio_output@@V?$format_validation_base@_WV?$string_output_adapter@_W@__crt_stdio_output@@@2@@__crt_stdio_output@@AAE_NXZ 00470bd0 f i libucrtd:output.obj
 0001:0006fe30       ?type_case_c@?$output_processor@DV?$stream_output_adapter@D@__crt_stdio_output@@V?$standard_base@DV?$stream_output_adapter@D@__crt_stdio_output@@@2@@__crt_stdio_output@@AAE_NXZ 00470e30 f i libucrtd:output.obj
 0001:0006fe50       ?type_case_c@?$output_processor@DV?$string_output_adapter@D@__crt_stdio_output@@V?$format_validation_base@DV?$string_output_adapter@D@__crt_stdio_output@@@2@@__crt_stdio_output@@AAE_NXZ 00470e50 f i libucrtd:output.obj
 0001:0006fe70       ?type_case_c@?$output_processor@DV?$string_output_adapter@D@__crt_stdio_output@@V?$standard_base@DV?$string_output_adapter@D@__crt_stdio_output@@@2@@__crt_stdio_output@@AAE_NXZ 00470e70 f i libucrtd:output.obj
 0001:0006fe90       ?type_case_c@?$output_processor@_WV?$string_output_adapter@_W@__crt_stdio_output@@V?$format_validation_base@_WV?$string_output_adapter@_W@__crt_stdio_output@@@2@@__crt_stdio_output@@AAE_NXZ 00470e90 f i libucrtd:output.obj
 0001:0006feb0       ?type_case_c_tchar@?$output_processor@DV?$stream_output_adapter@D@__crt_stdio_output@@V?$standard_base@DV?$stream_output_adapter@D@__crt_stdio_output@@@2@@__crt_stdio_output@@AAE_ND@Z 00470eb0 f i libucrtd:output.obj
 0001:0006ffc0       ?type_case_c_tchar@?$output_processor@DV?$string_output_adapter@D@__crt_stdio_output@@V?$format_validation_base@DV?$string_output_adapter@D@__crt_stdio_output@@@2@@__crt_stdio_output@@AAE_ND@Z 00470fc0 f i libucrtd:output.obj
 0001:000700d0       ?type_case_c_tchar@?$output_processor@DV?$string_output_adapter@D@__crt_stdio_output@@V?$standard_base@DV?$string_output_adapter@D@__crt_stdio_output@@@2@@__crt_stdio_output@@AAE_ND@Z 004710d0 f i libucrtd:output.obj
 0001:000701e0       ?type_case_c_tchar@?$output_processor@_WV?$string_output_adapter@_W@__crt_stdio_output@@V?$format_validation_base@_WV?$string_output_adapter@_W@__crt_stdio_output@@@2@@__crt_stdio_output@@AAE_N_W@Z 004711e0 f i libucrtd:output.obj
 0001:000702e0       ?type_case_d@?$output_processor@DV?$stream_output_adapter@D@__crt_stdio_output@@V?$standard_base@DV?$stream_output_adapter@D@__crt_stdio_output@@@2@@__crt_stdio_output@@AAE_NXZ 004712e0 f i libucrtd:output.obj
 0001:00070310       ?type_case_d@?$output_processor@DV?$string_output_adapter@D@__crt_stdio_output@@V?$format_validation_base@DV?$string_output_adapter@D@__crt_stdio_output@@@2@@__crt_stdio_output@@AAE_NXZ 00471310 f i libucrtd:output.obj
 0001:00070340       ?type_case_d@?$output_processor@DV?$string_output_adapter@D@__crt_stdio_output@@V?$standard_base@DV?$string_output_adapter@D@__crt_stdio_output@@@2@@__crt_stdio_output@@AAE_NXZ 00471340 f i libucrtd:output.obj
 0001:00070370       ?type_case_d@?$output_processor@_WV?$string_output_adapter@_W@__crt_stdio_output@@V?$format_validation_base@_WV?$string_output_adapter@_W@__crt_stdio_output@@@2@@__crt_stdio_output@@AAE_NXZ 00471370 f i libucrtd:output.obj
 0001:000703a0       ?type_case_integer@?$output_processor@DV?$stream_output_adapter@D@__crt_stdio_output@@V?$standard_base@DV?$stream_output_adapter@D@__crt_stdio_output@@@2@@__crt_stdio_output@@AAE_NI_N@Z 004713a0 f i libucrtd:output.obj
 0001:000706e0       ?type_case_integer@?$output_processor@DV?$string_output_adapter@D@__crt_stdio_output@@V?$format_validation_base@DV?$string_output_adapter@D@__crt_stdio_output@@@2@@__crt_stdio_output@@AAE_NI_N@Z 004716e0 f i libucrtd:output.obj
 0001:00070a20       ?type_case_integer@?$output_processor@DV?$string_output_adapter@D@__crt_stdio_output@@V?$standard_base@DV?$string_output_adapter@D@__crt_stdio_output@@@2@@__crt_stdio_output@@AAE_NI_N@Z 00471a20 f i libucrtd:output.obj
 0001:00070d60       ?type_case_integer@?$output_processor@_WV?$string_output_adapter@_W@__crt_stdio_output@@V?$format_validation_base@_WV?$string_output_adapter@_W@__crt_stdio_output@@@2@@__crt_stdio_output@@AAE_NI_N@Z 00471d60 f i libucrtd:output.obj
 0001:000710a0       ?type_case_n@?$output_processor@DV?$stream_output_adapter@D@__crt_stdio_output@@V?$standard_base@DV?$stream_output_adapter@D@__crt_stdio_output@@@2@@__crt_stdio_output@@AAE_NXZ 004720a0 f i libucrtd:output.obj
 0001:00071290       ?type_case_n@?$output_processor@DV?$string_output_adapter@D@__crt_stdio_output@@V?$format_validation_base@DV?$string_output_adapter@D@__crt_stdio_output@@@2@@__crt_stdio_output@@AAE_NXZ 00472290 f i libucrtd:output.obj
 0001:00071480       ?type_case_n@?$output_processor@DV?$string_output_adapter@D@__crt_stdio_output@@V?$standard_base@DV?$string_output_adapter@D@__crt_stdio_output@@@2@@__crt_stdio_output@@AAE_NXZ 00472480 f i libucrtd:output.obj
 0001:00071670       ?type_case_n@?$output_processor@_WV?$string_output_adapter@_W@__crt_stdio_output@@V?$format_validation_base@_WV?$string_output_adapter@_W@__crt_stdio_output@@@2@@__crt_stdio_output@@AAE_NXZ 00472670 f i libucrtd:output.obj
 0001:00071860       ?type_case_o@?$output_processor@DV?$stream_output_adapter@D@__crt_stdio_output@@V?$standard_base@DV?$stream_output_adapter@D@__crt_stdio_output@@@2@@__crt_stdio_output@@AAE_NXZ 00472860 f i libucrtd:output.obj
 0001:000718a0       ?type_case_o@?$output_processor@DV?$string_output_adapter@D@__crt_stdio_output@@V?$format_validation_base@DV?$string_output_adapter@D@__crt_stdio_output@@@2@@__crt_stdio_output@@AAE_NXZ 004728a0 f i libucrtd:output.obj
 0001:000718e0       ?type_case_o@?$output_processor@DV?$string_output_adapter@D@__crt_stdio_output@@V?$standard_base@DV?$string_output_adapter@D@__crt_stdio_output@@@2@@__crt_stdio_output@@AAE_NXZ 004728e0 f i libucrtd:output.obj
 0001:00071920       ?type_case_o@?$output_processor@_WV?$string_output_adapter@_W@__crt_stdio_output@@V?$format_validation_base@_WV?$string_output_adapter@_W@__crt_stdio_output@@@2@@__crt_stdio_output@@AAE_NXZ 00472920 f i libucrtd:output.obj
 0001:00071960       ?type_case_p@?$output_processor@DV?$stream_output_adapter@D@__crt_stdio_output@@V?$standard_base@DV?$stream_output_adapter@D@__crt_stdio_output@@@2@@__crt_stdio_output@@AAE_NXZ 00472960 f i libucrtd:output.obj
 0001:00071990       ?type_case_p@?$output_processor@DV?$string_output_adapter@D@__crt_stdio_output@@V?$format_validation_base@DV?$string_output_adapter@D@__crt_stdio_output@@@2@@__crt_stdio_output@@AAE_NXZ 00472990 f i libucrtd:output.obj
 0001:000719c0       ?type_case_p@?$output_processor@DV?$string_output_adapter@D@__crt_stdio_output@@V?$standard_base@DV?$string_output_adapter@D@__crt_stdio_output@@@2@@__crt_stdio_output@@AAE_NXZ 004729c0 f i libucrtd:output.obj
 0001:000719f0       ?type_case_p@?$output_processor@_WV?$string_output_adapter@_W@__crt_stdio_output@@V?$format_validation_base@_WV?$string_output_adapter@_W@__crt_stdio_output@@@2@@__crt_stdio_output@@AAE_NXZ 004729f0 f i libucrtd:output.obj
 0001:00071a20       ?type_case_s@?$output_processor@DV?$stream_output_adapter@D@__crt_stdio_output@@V?$standard_base@DV?$stream_output_adapter@D@__crt_stdio_output@@@2@@__crt_stdio_output@@AAE_NXZ 00472a20 f i libucrtd:output.obj
 0001:00071b10       ?type_case_s@?$output_processor@DV?$string_output_adapter@D@__crt_stdio_output@@V?$format_validation_base@DV?$string_output_adapter@D@__crt_stdio_output@@@2@@__crt_stdio_output@@AAE_NXZ 00472b10 f i libucrtd:output.obj
 0001:00071c00       ?type_case_s@?$output_processor@DV?$string_output_adapter@D@__crt_stdio_output@@V?$standard_base@DV?$string_output_adapter@D@__crt_stdio_output@@@2@@__crt_stdio_output@@AAE_NXZ 00472c00 f i libucrtd:output.obj
 0001:00071cf0       ?type_case_s@?$output_processor@_WV?$string_output_adapter@_W@__crt_stdio_output@@V?$format_validation_base@_WV?$string_output_adapter@_W@__crt_stdio_output@@@2@@__crt_stdio_output@@AAE_NXZ 00472cf0 f i libucrtd:output.obj
 0001:00071de0       ?type_case_s_compute_narrow_string_length@?$output_processor@DV?$stream_output_adapter@D@__crt_stdio_output@@V?$standard_base@DV?$stream_output_adapter@D@__crt_stdio_output@@@2@@__crt_stdio_output@@ABEHHD@Z 00472de0 f i libucrtd:output.obj
 0001:00071e10       ?type_case_s_compute_narrow_string_length@?$output_processor@DV?$string_output_adapter@D@__crt_stdio_output@@V?$format_validation_base@DV?$string_output_adapter@D@__crt_stdio_output@@@2@@__crt_stdio_output@@ABEHHD@Z 00472e10 f i libucrtd:output.obj
 0001:00071e40       ?type_case_s_compute_narrow_string_length@?$output_processor@DV?$string_output_adapter@D@__crt_stdio_output@@V?$standard_base@DV?$string_output_adapter@D@__crt_stdio_output@@@2@@__crt_stdio_output@@ABEHHD@Z 00472e40 f i libucrtd:output.obj
 0001:00071e70       ?type_case_s_compute_narrow_string_length@?$output_processor@_WV?$string_output_adapter@_W@__crt_stdio_output@@V?$format_validation_base@_WV?$string_output_adapter@_W@__crt_stdio_output@@@2@@__crt_stdio_output@@ABEHH_W@Z 00472e70 f i libucrtd:output.obj
 0001:00071ee0       ?type_case_u@?$output_processor@DV?$stream_output_adapter@D@__crt_stdio_output@@V?$standard_base@DV?$stream_output_adapter@D@__crt_stdio_output@@@2@@__crt_stdio_output@@AAE_NXZ 00472ee0 f i libucrtd:output.obj
 0001:00071f00       ?type_case_u@?$output_processor@DV?$string_output_adapter@D@__crt_stdio_output@@V?$format_validation_base@DV?$string_output_adapter@D@__crt_stdio_output@@@2@@__crt_stdio_output@@AAE_NXZ 00472f00 f i libucrtd:output.obj
 0001:00071f20       ?type_case_u@?$output_processor@DV?$string_output_adapter@D@__crt_stdio_output@@V?$standard_base@DV?$string_output_adapter@D@__crt_stdio_output@@@2@@__crt_stdio_output@@AAE_NXZ 00472f20 f i libucrtd:output.obj
 0001:00071f40       ?type_case_u@?$output_processor@_WV?$string_output_adapter@_W@__crt_stdio_output@@V?$format_validation_base@_WV?$string_output_adapter@_W@__crt_stdio_output@@@2@@__crt_stdio_output@@AAE_NXZ 00472f40 f i libucrtd:output.obj
 0001:00071f60       ?type_case_x@?$output_processor@DV?$stream_output_adapter@D@__crt_stdio_output@@V?$standard_base@DV?$stream_output_adapter@D@__crt_stdio_output@@@2@@__crt_stdio_output@@AAE_NXZ 00472f60 f i libucrtd:output.obj
 0001:00071f80       ?type_case_x@?$output_processor@DV?$string_output_adapter@D@__crt_stdio_output@@V?$format_validation_base@DV?$string_output_adapter@D@__crt_stdio_output@@@2@@__crt_stdio_output@@AAE_NXZ 00472f80 f i libucrtd:output.obj
 0001:00071fa0       ?type_case_x@?$output_processor@DV?$string_output_adapter@D@__crt_stdio_output@@V?$standard_base@DV?$string_output_adapter@D@__crt_stdio_output@@@2@@__crt_stdio_output@@AAE_NXZ 00472fa0 f i libucrtd:output.obj
 0001:00071fc0       ?type_case_x@?$output_processor@_WV?$string_output_adapter@_W@__crt_stdio_output@@V?$format_validation_base@_WV?$string_output_adapter@_W@__crt_stdio_output@@@2@@__crt_stdio_output@@AAE_NXZ 00472fc0 f i libucrtd:output.obj
 0001:00071fe0       ?unset_flag@?$output_processor@DV?$stream_output_adapter@D@__crt_stdio_output@@V?$standard_base@DV?$stream_output_adapter@D@__crt_stdio_output@@@2@@__crt_stdio_output@@AAEXI@Z 00472fe0 f i libucrtd:output.obj
 0001:00072000       ?unset_flag@?$output_processor@DV?$string_output_adapter@D@__crt_stdio_output@@V?$format_validation_base@DV?$string_output_adapter@D@__crt_stdio_output@@@2@@__crt_stdio_output@@AAEXI@Z 00473000 f i libucrtd:output.obj
 0001:00072020       ?unset_flag@?$output_processor@DV?$string_output_adapter@D@__crt_stdio_output@@V?$standard_base@DV?$string_output_adapter@D@__crt_stdio_output@@@2@@__crt_stdio_output@@AAEXI@Z 00473020 f i libucrtd:output.obj
 0001:00072040       ?unset_flag@?$output_processor@_WV?$string_output_adapter@_W@__crt_stdio_output@@V?$format_validation_base@_WV?$string_output_adapter@_W@__crt_stdio_output@@@2@@__crt_stdio_output@@AAEXI@Z 00473040 f i libucrtd:output.obj
 0001:00072060       ?update_field_width@?$standard_base@DV?$stream_output_adapter@D@__crt_stdio_output@@@__crt_stdio_output@@IAE_NXZ 00473060 f i libucrtd:output.obj
 0001:00072090       ?update_field_width@?$standard_base@DV?$string_output_adapter@D@__crt_stdio_output@@@__crt_stdio_output@@IAE_NXZ 00473090 f i libucrtd:output.obj
 0001:000720c0       ?update_field_width@?$standard_base@_WV?$string_output_adapter@_W@__crt_stdio_output@@@__crt_stdio_output@@IAE_NXZ 004730c0 f i libucrtd:output.obj
 0001:000720f0       ?update_precision@?$standard_base@DV?$stream_output_adapter@D@__crt_stdio_output@@@__crt_stdio_output@@IAE_NXZ 004730f0 f i libucrtd:output.obj
 0001:00072120       ?update_precision@?$standard_base@DV?$string_output_adapter@D@__crt_stdio_output@@@__crt_stdio_output@@IAE_NXZ 00473120 f i libucrtd:output.obj
 0001:00072150       ?update_precision@?$standard_base@_WV?$string_output_adapter@_W@__crt_stdio_output@@@__crt_stdio_output@@IAE_NXZ 00473150 f i libucrtd:output.obj
 0001:00072180       ?validate@?$stream_output_adapter@D@__crt_stdio_output@@QBE_NXZ 00473180 f i libucrtd:output.obj
 0001:00072220       ?validate@?$string_output_adapter@D@__crt_stdio_output@@QBE_NXZ 00473220 f i libucrtd:output.obj
 0001:000722b0       ?validate@?$string_output_adapter@_W@__crt_stdio_output@@QBE_NXZ 004732b0 f i libucrtd:output.obj
 0001:00072340       ?validate_and_update_state_at_beginning_of_format_character@?$standard_base@DV?$stream_output_adapter@D@__crt_stdio_output@@@__crt_stdio_output@@IAE_NXZ 00473340 f i libucrtd:output.obj
 0001:00072350       ?validate_and_update_state_at_beginning_of_format_character@?$standard_base@DV?$string_output_adapter@D@__crt_stdio_output@@@__crt_stdio_output@@IAE_NXZ 00473350 f i libucrtd:output.obj
 0001:00072360       ?validate_and_update_state_at_beginning_of_format_character@?$standard_base@_WV?$string_output_adapter@_W@__crt_stdio_output@@@__crt_stdio_output@@IAE_NXZ 00473360 f i libucrtd:output.obj
 0001:00072370       ?validate_and_update_state_at_end_of_format_string@?$format_validation_base@DV?$string_output_adapter@D@__crt_stdio_output@@@__crt_stdio_output@@IBE_NXZ 00473370 f i libucrtd:output.obj
 0001:00072410       ?validate_and_update_state_at_end_of_format_string@?$format_validation_base@_WV?$string_output_adapter@_W@__crt_stdio_output@@@__crt_stdio_output@@IBE_NXZ 00473410 f i libucrtd:output.obj
 0001:000724b0       ?validate_and_update_state_at_end_of_format_string@?$standard_base@DV?$stream_output_adapter@D@__crt_stdio_output@@@__crt_stdio_output@@IBE_NXZ 004734b0 f i libucrtd:output.obj
 0001:000724c0       ?validate_and_update_state_at_end_of_format_string@?$standard_base@DV?$string_output_adapter@D@__crt_stdio_output@@@__crt_stdio_output@@IBE_NXZ 004734c0 f i libucrtd:output.obj
 0001:000724d0       ?validate_state_for_type_case_a@?$standard_base@DV?$stream_output_adapter@D@__crt_stdio_output@@@__crt_stdio_output@@IBE_NXZ 004734d0 f i libucrtd:output.obj
 0001:000724e0       ?validate_state_for_type_case_a@?$standard_base@DV?$string_output_adapter@D@__crt_stdio_output@@@__crt_stdio_output@@IBE_NXZ 004734e0 f i libucrtd:output.obj
 0001:000724f0       ?validate_state_for_type_case_a@?$standard_base@_WV?$string_output_adapter@_W@__crt_stdio_output@@@__crt_stdio_output@@IBE_NXZ 004734f0 f i libucrtd:output.obj
 0001:00072500       ?validate_stream_is_ansi_if_required@?$__acrt_stdio_char_traits@D@@SA_NQAU_iobuf@@@Z 00473500 f i libucrtd:output.obj
 0001:00072630       ?wide_null_string@?$output_processor@DV?$stream_output_adapter@D@__crt_stdio_output@@V?$standard_base@DV?$stream_output_adapter@D@__crt_stdio_output@@@2@@__crt_stdio_output@@CAPA_WXZ 00473630 f i libucrtd:output.obj
 0001:00072640       ?wide_null_string@?$output_processor@DV?$string_output_adapter@D@__crt_stdio_output@@V?$format_validation_base@DV?$string_output_adapter@D@__crt_stdio_output@@@2@@__crt_stdio_output@@CAPA_WXZ 00473640 f i libucrtd:output.obj
 0001:00072650       ?wide_null_string@?$output_processor@DV?$string_output_adapter@D@__crt_stdio_output@@V?$standard_base@DV?$string_output_adapter@D@__crt_stdio_output@@@2@@__crt_stdio_output@@CAPA_WXZ 00473650 f i libucrtd:output.obj
 0001:00072660       ?wide_null_string@?$output_processor@_WV?$string_output_adapter@_W@__crt_stdio_output@@V?$format_validation_base@_WV?$string_output_adapter@_W@__crt_stdio_output@@@2@@__crt_stdio_output@@CAPA_WXZ 00473660 f i libucrtd:output.obj
 0001:00072670       ?write_character@?$stream_output_adapter@D@__crt_stdio_output@@QBEXDQAH@Z 00473670 f i libucrtd:output.obj
 0001:000726f0       ?write_character@?$string_output_adapter@D@__crt_stdio_output@@QBE_NDQAH@Z 004736f0 f i libucrtd:output.obj
 0001:00072780       ?write_character@?$string_output_adapter@_W@__crt_stdio_output@@QBE_N_WQAH@Z 00473780 f i libucrtd:output.obj
 0001:00072820       ?write_stored_string_tchar@?$output_processor@DV?$stream_output_adapter@D@__crt_stdio_output@@V?$standard_base@DV?$stream_output_adapter@D@__crt_stdio_output@@@2@@__crt_stdio_output@@AAE_ND@Z 00473820 f i libucrtd:output.obj
 0001:00072930       ?write_stored_string_tchar@?$output_processor@DV?$string_output_adapter@D@__crt_stdio_output@@V?$format_validation_base@DV?$string_output_adapter@D@__crt_stdio_output@@@2@@__crt_stdio_output@@AAE_ND@Z 00473930 f i libucrtd:output.obj
 0001:00072a40       ?write_stored_string_tchar@?$output_processor@DV?$string_output_adapter@D@__crt_stdio_output@@V?$standard_base@DV?$string_output_adapter@D@__crt_stdio_output@@@2@@__crt_stdio_output@@AAE_ND@Z 00473a40 f i libucrtd:output.obj
 0001:00072b50       ?write_stored_string_tchar@?$output_processor@_WV?$string_output_adapter@_W@__crt_stdio_output@@V?$format_validation_base@_WV?$string_output_adapter@_W@__crt_stdio_output@@@2@@__crt_stdio_output@@AAE_N_W@Z 00473b50 f i libucrtd:output.obj
 0001:00072c40       ?write_string@?$stream_output_adapter@D@__crt_stdio_output@@QBEXQBDHQAH1@Z 00473c40 f i libucrtd:output.obj
 0001:00072cf0       ?write_string@?$string_output_adapter@D@__crt_stdio_output@@QBEXQBDHQAH1@Z 00473cf0 f i libucrtd:output.obj
 0001:00072e00       ?write_string@?$string_output_adapter@_W@__crt_stdio_output@@QBEXQB_WHQAH1@Z 00473e00 f i libucrtd:output.obj
 0001:00072f20       ___acrt_isleadbyte_l_noupdate 00473f20 f i libucrtd:output.obj
 0001:00072f40       ___acrt_locale_changed     00473f40 f i libucrtd:output.obj
 0001:00072f70       ___stdio_common_vfprintf   00473f70 f   libucrtd:output.obj
 0001:00072fa0       ___stdio_common_vsnprintf_s 00473fa0 f   libucrtd:output.obj
 0001:00072fd0       ___stdio_common_vsnwprintf_s 00473fd0 f   libucrtd:output.obj
 0001:00073000       ___stdio_common_vsprintf   00474000 f   libucrtd:output.obj
 0001:00073030       ___stdio_common_vsprintf_s 00474030 f   libucrtd:output.obj
 0001:00073060       ??$__crt_fast_decode_pointer@P6AXPB_W00II@Z@@YAP6AXPB_W00II@ZQ6AX000II@Z@Z 00474060 f i libucrtd:invalid_parameter.obj
 0001:00073090       ?get_current_state_index@__crt_state_management@@YAIXZ 00474090 f i libucrtd:invalid_parameter.obj
 0001:000730a0       ?initialize@?$dual_state_global@P6AXPB_W00II@Z@__crt_state_management@@QAEXQ6AXPB_W00II@Z@Z 004740a0 f i libucrtd:invalid_parameter.obj
 0001:000730e0       ?value@?$dual_state_global@P6AXPB_W00II@Z@__crt_state_management@@QAEAAP6AXPB_W00II@ZXZ 004740e0 f i libucrtd:invalid_parameter.obj
 0001:00073100       ___acrt_call_reportfault   00474100 f   libucrtd:invalid_parameter.obj
 0001:00073260       ___acrt_initialize_invalid_parameter_handler 00474260 f   libucrtd:invalid_parameter.obj
 0001:00073280       __invalid_parameter        00474280 f   libucrtd:invalid_parameter.obj
 0001:00073350       __invalid_parameter_noinfo 00474350 f   libucrtd:invalid_parameter.obj
 0001:00073370       __invoke_watson            00474370 f   libucrtd:invalid_parameter.obj
 0001:000733b0       ??$__vcrt_va_start_verify_argument_type@QB_W@@YAXXZ 004743b0 f i libucrtd:dbgrpt.obj
 0001:00073d70       ??$get_module_file_name@AAPAUHINSTANCE__@@AAY0BAF@DK@?$__crt_char_traits@D@@SAKAAPAUHINSTANCE__@@AAY0BAF@D$$QAK@Z 00474d70 f i libucrtd:dbgrpt.obj
 0001:00073d90       ??$get_module_file_name@AAPAUHINSTANCE__@@AAY0BAF@_WK@?$__crt_char_traits@_W@@SAKAAPAUHINSTANCE__@@AAY0BAF@_W$$QAK@Z 00474d90 f i libucrtd:dbgrpt.obj
 0001:00073db0       ??$tcscpy_s@AAY0BAF@DIPBD@?$__crt_char_traits@D@@SAHAAY0BAF@D$$QAI$$QAPBD@Z 00474db0 f i libucrtd:dbgrpt.obj
 0001:00073dd0       ??$tcscpy_s@AAY0BAF@_WIPB_W@?$__crt_char_traits@_W@@SAHAAY0BAF@_W$$QAI$$QAPB_W@Z 00474dd0 f i libucrtd:dbgrpt.obj
 0001:00073df0       ??$tcslen@AAY0BAF@D@?$__crt_char_traits@D@@SAIAAY0BAF@D@Z 00474df0 f i libucrtd:dbgrpt.obj
 0001:00073e10       ??$tcslen@AAY0BAF@_W@?$__crt_char_traits@_W@@SAIAAY0BAF@_W@Z 00474e10 f i libucrtd:dbgrpt.obj
 0001:00073e30       ??$tcslen@ABQBD@?$__crt_char_traits@D@@SAIABQBD@Z 00474e30 f i libucrtd:dbgrpt.obj
 0001:00073e50       ??$tcslen@ABQB_W@?$__crt_char_traits@_W@@SAIABQB_W@Z 00474e50 f i libucrtd:dbgrpt.obj
 0001:00073eb0       __CrtDbgReport             00474eb0 f   libucrtd:dbgrpt.obj
 0001:00073f00       __CrtDbgReportW            00474f00 f   libucrtd:dbgrpt.obj
 0001:00073f50       ___acrt_MessageWindowA     00474f50 f   libucrtd:dbgrpt.obj
 0001:00073f80       ___acrt_MessageWindowW     00474f80 f   libucrtd:dbgrpt.obj
 0001:00073fb0       __invoke_watson_if_error   00474fb0 f i libucrtd:dbgrpt.obj
 0001:00073fe0       __invoke_watson_if_oneof   00474fe0 f i libucrtd:dbgrpt.obj
 0001:00074020       __snwprintf_s              00475020 f i libucrtd:dbgrpt.obj
 0001:00074070       __vsnwprintf_s_l           00475070 f i libucrtd:dbgrpt.obj
 0001:000740d0       __fgetc_nolock             004750d0 f   libucrtd:fgetc.obj
 0001:000741e0       __getc_nolock              004751e0 f   libucrtd:fgetc.obj
 0001:00074200       _fgetc                     00475200 f   libucrtd:fgetc.obj
 0001:00074460       ??$?RPAU__crt_stdio_stream_data@@@__crt_internal_free_policy@@QBEXQBQAU__crt_stdio_stream_data@@@Z 00475460 f i libucrtd:_file.obj
 0001:00074480       ??0?$__crt_unique_heap_ptr@PAU__crt_stdio_stream_data@@U__crt_internal_free_policy@@@@QAE@QAPAU__crt_stdio_stream_data@@@Z 00475480 f i libucrtd:_file.obj
 0001:000744a0       ??1?$__crt_unique_heap_ptr@PAU__crt_stdio_stream_data@@U__crt_internal_free_policy@@@@QAE@XZ 004754a0 f i libucrtd:_file.obj
 0001:000744c0       ?detach@?$__crt_unique_heap_ptr@PAU__crt_stdio_stream_data@@U__crt_internal_free_policy@@@@QAEPAPAU__crt_stdio_stream_data@@XZ 004754c0 f i libucrtd:_file.obj
 0001:000744f0       ?release@?$__crt_unique_heap_ptr@PAU__crt_stdio_stream_data@@U__crt_internal_free_policy@@@@QAEXXZ 004754f0 f i libucrtd:_file.obj
 0001:00074520       ___acrt_initialize_stdio   00475520 f   libucrtd:_file.obj
 0001:00074690       ___acrt_iob_func           00475690 f   libucrtd:_file.obj
 0001:000746a0       ___acrt_uninitialize_stdio 004756a0 f   libucrtd:_file.obj
 0001:00074720       __lock_file                00475720 f   libucrtd:_file.obj
 0001:00074750       __unlock_file              00475750 f   libucrtd:_file.obj
 0001:00074780       _free                      00475780 f   libucrtd:free.obj
 0001:000747a0       _malloc                    004757a0 f   libucrtd:malloc.obj
 0001:000747c0       _strcpy                    004757c0 f   libucrtd:strcat.obj
 0001:000747d0       _strcat                    004757d0 f   libucrtd:strcat.obj
 0001:000748c0       ?eof@__crt_stdio_stream@@QBE_NXZ 004758c0 f i libucrtd:feoferr.obj
 0001:000748e0       _feof                      004758e0 f   libucrtd:feoferr.obj
 0001:00074c20       ??$getc_nolock@PAU_iobuf@@@?$__crt_char_traits@D@@SAH$$QAPAU_iobuf@@@Z 00475c20 f i libucrtd:fgets.obj
 0001:00074c40       _fgets                     00475c40 f   libucrtd:fgets.obj
 0001:00075660       ?ctrl_z@__crt_stdio_stream@@QBE_NXZ 00476660 f i libucrtd:ftell.obj
 0001:00075680       ?has_crt_buffer@__crt_stdio_stream@@QBE_NXZ 00476680 f i libucrtd:ftell.obj
 0001:000756a0       ?has_setvbuf_buffer@__crt_stdio_stream@@QBE_NXZ 004766a0 f i libucrtd:ftell.obj
 0001:000756c0       __ftelli64_nolock          004766c0 f   libucrtd:ftell.obj
 0001:000756f0       _ftell                     004766f0 f   libucrtd:ftell.obj
 0001:00075720       ??$?RE@__crt_internal_free_policy@@QBEXQBE@Z 00476720 f i libucrtd:input.obj
 0001:00075740       ??$assemble_floating_point_ind@M@__crt_strtox@@YAXAAM@Z 00476740 f i libucrtd:input.obj
 0001:00075790       ??$assemble_floating_point_ind@N@__crt_strtox@@YAXAAN@Z 00476790 f i libucrtd:input.obj
 0001:000757f0       ??$assemble_floating_point_infinity@M@__crt_strtox@@YAX_NAAM@Z 004767f0 f i libucrtd:input.obj
 0001:00075860       ??$assemble_floating_point_infinity@N@__crt_strtox@@YAX_NAAN@Z 00476860 f i libucrtd:input.obj
 0001:000758f0       ??$assemble_floating_point_qnan@M@__crt_strtox@@YAX_NAAM@Z 004768f0 f i libucrtd:input.obj
 0001:00075960       ??$assemble_floating_point_qnan@N@__crt_strtox@@YAX_NAAN@Z 00476960 f i libucrtd:input.obj
 0001:000759f0       ??$assemble_floating_point_snan@M@__crt_strtox@@YAX_NAAM@Z 004769f0 f i libucrtd:input.obj
 0001:00075a60       ??$assemble_floating_point_snan@N@__crt_strtox@@YAX_NAAN@Z 00476a60 f i libucrtd:input.obj
 0001:00075af0       ??$assemble_floating_point_value_t@M@__crt_strtox@@YA?AW4SLD_STATUS@@_NH_KAAM@Z 00476af0 f i libucrtd:input.obj
 0001:00075b60       ??$assemble_floating_point_value_t@N@__crt_strtox@@YA?AW4SLD_STATUS@@_NH_KAAN@Z 00476b60 f i libucrtd:input.obj
 0001:00075c00       ??$assemble_floating_point_zero@M@__crt_strtox@@YAX_NAAM@Z 00476c00 f i libucrtd:input.obj
 0001:00075c70       ??$assemble_floating_point_zero@N@__crt_strtox@@YAX_NAAN@Z 00476c70 f i libucrtd:input.obj
 0001:00075ed0       ??$convert_decimal_string_to_floating_type@M@__crt_strtox@@YA?AW4SLD_STATUS@@ABUfloating_point_string@0@AAM@Z 00476ed0 f i libucrtd:input.obj
 0001:00075f00       ??$convert_decimal_string_to_floating_type@N@__crt_strtox@@YA?AW4SLD_STATUS@@ABUfloating_point_string@0@AAN@Z 00476f00 f i libucrtd:input.obj
 0001:00075f30       ??$convert_hexadecimal_string_to_floating_type@M@__crt_strtox@@YA?AW4SLD_STATUS@@ABUfloating_point_string@0@AAM@Z 00476f30 f i libucrtd:input.obj
 0001:00075f60       ??$convert_hexadecimal_string_to_floating_type@N@__crt_strtox@@YA?AW4SLD_STATUS@@ABUfloating_point_string@0@AAN@Z 00476f60 f i libucrtd:input.obj
 0001:00075f90       ??$fill_buffer@D@?$input_processor@DV?$string_input_adapter@D@__crt_stdio_input@@@__crt_stdio_input@@CAXQADII@Z 00476f90 f i libucrtd:input.obj
 0001:00076010       ??$fill_buffer@_W@?$input_processor@DV?$string_input_adapter@D@__crt_stdio_input@@@__crt_stdio_input@@CAXQA_WII@Z 00477010 f i libucrtd:input.obj
 0001:00076090       ??$is_overflow_condition@_K@__crt_strtox@@YA_NI_K@Z 00477090 f i libucrtd:input.obj
 0001:00076120       ??$istspace@ABE@?$__crt_char_traits@D@@SAHABE@Z 00477120 f i libucrtd:input.obj
 0001:00076140       ??$make_input_adapter_character_source@V?$string_input_adapter@D@__crt_stdio_input@@@__crt_strtox@@YA?AV?$input_adapter_character_source@V?$string_input_adapter@D@__crt_stdio_input@@@0@QAV?$string_input_adapter@D@__crt_stdio_input@@_KQA_N@Z 00477140 f i libucrtd:input.obj
 0001:00076170       ??$parse_floating_point@V?$input_adapter_character_source@V?$string_input_adapter@D@__crt_stdio_input@@@__crt_strtox@@M@__crt_strtox@@YA?AW4SLD_STATUS@@QAU__crt_locale_pointers@@V?$input_adapter_character_source@V?$string_input_adapter@D@__crt_stdio_input@@@0@QAM@Z 00477170 f i libucrtd:input.obj
 0001:00076330       ??$parse_floating_point@V?$input_adapter_character_source@V?$string_input_adapter@D@__crt_stdio_input@@@__crt_strtox@@N@__crt_strtox@@YA?AW4SLD_STATUS@@QAU__crt_locale_pointers@@V?$input_adapter_character_source@V?$string_input_adapter@D@__crt_stdio_input@@@0@QAN@Z 00477330 f i libucrtd:input.obj
 0001:000764f0       ??$parse_floating_point_from_source@V?$input_adapter_character_source@V?$string_input_adapter@D@__crt_stdio_input@@@__crt_strtox@@@__crt_strtox@@YA?AW4floating_point_parse_result@0@QAU__crt_locale_pointers@@AAV?$input_adapter_character_source@V?$string_input_adapter@D@__crt_stdio_input@@@0@AAUfloating_point_string@0@@Z 004774f0 f i libucrtd:input.obj
 0001:00076ac0       ??$parse_floating_point_possible_infinity@DV?$input_adapter_character_source@V?$string_input_adapter@D@__crt_stdio_input@@@__crt_strtox@@_K@__crt_strtox@@YA?AW4floating_point_parse_result@0@AADAAV?$input_adapter_character_source@V?$string_input_adapter@D@__crt_stdio_input@@@0@_K@Z 00477ac0 f i libucrtd:input.obj
 0001:00076ba0       ??$parse_floating_point_possible_nan@DV?$input_adapter_character_source@V?$string_input_adapter@D@__crt_stdio_input@@@__crt_strtox@@_K@__crt_strtox@@YA?AW4floating_point_parse_result@0@AADAAV?$input_adapter_character_source@V?$string_input_adapter@D@__crt_stdio_input@@@0@_K@Z 00477ba0 f i libucrtd:input.obj
 0001:00076d50       ??$parse_floating_point_possible_nan_is_ind@DV?$input_adapter_character_source@V?$string_input_adapter@D@__crt_stdio_input@@@__crt_strtox@@@__crt_strtox@@YA_NAADAAV?$input_adapter_character_source@V?$string_input_adapter@D@__crt_stdio_input@@@0@@Z 00477d50 f i libucrtd:input.obj
 0001:00076d80       ??$parse_floating_point_possible_nan_is_snan@DV?$input_adapter_character_source@V?$string_input_adapter@D@__crt_stdio_input@@@__crt_strtox@@@__crt_strtox@@YA_NAADAAV?$input_adapter_character_source@V?$string_input_adapter@D@__crt_stdio_input@@@0@@Z 00477d80 f i libucrtd:input.obj
 0001:00076db0       ??$parse_floating_point_write_result@M@__crt_strtox@@YA?AW4SLD_STATUS@@W4floating_point_parse_result@0@ABUfloating_point_string@0@QAM@Z 00477db0 f i libucrtd:input.obj
 0001:00076f40       ??$parse_floating_point_write_result@N@__crt_strtox@@YA?AW4SLD_STATUS@@W4floating_point_parse_result@0@ABUfloating_point_string@0@QAN@Z 00477f40 f i libucrtd:input.obj
 0001:000770d0       ??$parse_integer@_KV?$input_adapter_character_source@V?$string_input_adapter@D@__crt_stdio_input@@@__crt_strtox@@@__crt_strtox@@YA_KQAU__crt_locale_pointers@@V?$input_adapter_character_source@V?$string_input_adapter@D@__crt_stdio_input@@@0@H_N@Z 004780d0 f i libucrtd:input.obj
 0001:00077510       ??$parse_next_characters_from_source@DV?$input_adapter_character_source@V?$string_input_adapter@D@__crt_stdio_input@@@__crt_strtox@@@__crt_strtox@@YA_NQBD0IAADAAV?$input_adapter_character_source@V?$string_input_adapter@D@__crt_stdio_input@@@0@@Z 00478510 f i libucrtd:input.obj
 0001:00077570       ??$process_floating_point_specifier_t@M@?$input_processor@DV?$string_input_adapter@D@__crt_stdio_input@@@__crt_stdio_input@@AAE_NXZ 00478570 f i libucrtd:input.obj
 0001:00077600       ??$process_floating_point_specifier_t@N@?$input_processor@DV?$string_input_adapter@D@__crt_stdio_input@@@__crt_stdio_input@@AAE_NXZ 00478600 f i libucrtd:input.obj
 0001:00077690       ??$process_string_specifier_tchar@D@?$input_processor@DV?$string_input_adapter@D@__crt_stdio_input@@@__crt_stdio_input@@AAE_NW4conversion_mode@1@D@Z 00478690 f i libucrtd:input.obj
 0001:00077980       ??$process_string_specifier_tchar@_W@?$input_processor@DV?$string_input_adapter@D@__crt_stdio_input@@@__crt_stdio_input@@AAE_NW4conversion_mode@1@_W@Z 00478980 f i libucrtd:input.obj
 0001:00077c80       ??$reset_buffer@D@?$input_processor@DV?$string_input_adapter@D@__crt_stdio_input@@@__crt_stdio_input@@CAXQADI@Z 00478c80 f i libucrtd:input.obj
 0001:00077cf0       ??$reset_buffer@_W@?$input_processor@DV?$string_input_adapter@D@__crt_stdio_input@@@__crt_stdio_input@@CAXQA_WI@Z 00478cf0 f i libucrtd:input.obj
 0001:00077d60       ??$skip_whitespace@Vstring_input_adapter@__crt_stdio_input@@D@__crt_stdio_input@@YAHAAV?$string_input_adapter@D@0@QAU__crt_locale_pointers@@@Z 00478d60 f i libucrtd:input.obj
 0001:00077da0       ??$tcstoull@PBDPAPADH@?$__crt_char_traits@D@@SA_K$$QAPBD$$QAPAPAD$$QAH@Z 00478da0 f i libucrtd:input.obj
 0001:00077dd0       ??$write_floating_point@M@?$input_processor@DV?$string_input_adapter@D@__crt_stdio_input@@@__crt_stdio_input@@AAE_NABM@Z 00478dd0 f i libucrtd:input.obj
 0001:00077ed0       ??$write_floating_point@N@?$input_processor@DV?$string_input_adapter@D@__crt_stdio_input@@@__crt_stdio_input@@AAE_NABN@Z 00478ed0 f i libucrtd:input.obj
 0001:00078070       ??0?$__crt_unique_heap_ptr@EU__crt_internal_free_policy@@@@QAE@QAE@Z 00479070 f i libucrtd:input.obj
 0001:00078090       ??0?$format_string_parser@D@__crt_stdio_input@@QAE@_KQBE@Z 00479090 f i libucrtd:input.obj
 0001:000780e0       ??0?$input_adapter_character_source@V?$string_input_adapter@D@__crt_stdio_input@@@__crt_strtox@@QAE@QAV?$string_input_adapter@D@__crt_stdio_input@@_KQA_N@Z 004790e0 f i libucrtd:input.obj
 0001:00078130       ??0?$input_processor@DV?$string_input_adapter@D@__crt_stdio_input@@@__crt_stdio_input@@QAE@ABV?$string_input_adapter@D@1@_KQBDQAU__crt_locale_pointers@@QAD@Z 00479130 f i libucrtd:input.obj
 0001:000781b0       ??0?$scanset_buffer@E@__crt_stdio_input@@QAE@XZ 004791b0 f i libucrtd:input.obj
 0001:000781d0       ??0?$scanset_storage@$00@__crt_stdio_input@@QAE@XZ 004791d0 f i libucrtd:input.obj
 0001:00078200       ??0?$string_input_adapter@D@__crt_stdio_input@@QAE@QBDI@Z 00479200 f i libucrtd:input.obj
 0001:00078230       ??0big_integer@__crt_strtox@@QAE@ABU01@@Z 00479230 f i libucrtd:input.obj
 0001:00078270       ??0big_integer@__crt_strtox@@QAE@XZ 00479270 f i libucrtd:input.obj
 0001:000782b0       ??0floating_point_value@__crt_strtox@@QAE@QAM@Z 004792b0 f i libucrtd:input.obj
 0001:00078300       ??0floating_point_value@__crt_strtox@@QAE@QAN@Z 00479300 f i libucrtd:input.obj
 0001:00078350       ??1?$__crt_unique_heap_ptr@EU__crt_internal_free_policy@@@@QAE@XZ 00479350 f i libucrtd:input.obj
 0001:00078370       ??1?$input_adapter_character_source@V?$string_input_adapter@D@__crt_stdio_input@@@__crt_strtox@@QAE@XZ 00479370 f i libucrtd:input.obj
 0001:000783b0       ??4big_integer@__crt_strtox@@QAEAAU01@ABU01@@Z 004793b0 f i libucrtd:input.obj
 0001:000783f0       ??B?$__crt_unique_heap_ptr@EU__crt_internal_free_policy@@@@QBE_NXZ 004793f0 f i libucrtd:input.obj
 0001:00078410       ??M__crt_strtox@@YA_NABUbig_integer@0@0@Z 00479410 f i libucrtd:input.obj
 0001:00078590       ?accumulate_decimal_digits_into_big_integer@__crt_strtox@@YAXQBE0AAUbig_integer@1@@Z 00479590 f i libucrtd:input.obj
 0001:00078640       ?add@__crt_strtox@@YA_NAAUbig_integer@1@I@Z 00479640 f i libucrtd:input.obj
 0001:00078740       ?add_carry@__crt_strtox@@YAIAAIII@Z 00479740 f i libucrtd:input.obj
 0001:00078780       ?add_multiply_carry@__crt_strtox@@YAIAAIIII@Z 00479780 f i libucrtd:input.obj
 0001:000787c0       ?advance@?$format_string_parser@D@__crt_stdio_input@@QAE_NXZ 004797c0 f i libucrtd:input.obj
 0001:00078960       ?as_double@floating_point_value@__crt_strtox@@QBEAANXZ 00479960 f i libucrtd:input.obj
 0001:000789d0       ?as_float@floating_point_value@__crt_strtox@@QBEAAMXZ 004799d0 f i libucrtd:input.obj
 0001:00078a40       ?assemble_floating_point_infinity@__crt_strtox@@YAX_NABVfloating_point_value@1@@Z 00479a40 f i libucrtd:input.obj
 0001:00078a90       ?assemble_floating_point_value@__crt_strtox@@YA?AW4SLD_STATUS@@_KH_N1ABVfloating_point_value@1@@Z 00479a90 f i libucrtd:input.obj
 0001:00078d00       ?assemble_floating_point_value_from_big_integer@__crt_strtox@@YA?AW4SLD_STATUS@@ABUbig_integer@1@I_N1ABVfloating_point_value@1@@Z 00479d00 f i libucrtd:input.obj
 0001:00079000       ?assemble_floating_point_zero@__crt_strtox@@YAX_NABVfloating_point_value@1@@Z 0047a000 f i libucrtd:input.obj
 0001:00079050       ?bit_scan_reverse@__crt_strtox@@YAIABUbig_integer@1@@Z 0047a050 f i libucrtd:input.obj
 0001:00079090       ?bit_scan_reverse@__crt_strtox@@YAII@Z 0047a090 f i libucrtd:input.obj
 0001:000790c0       ?bit_scan_reverse@__crt_strtox@@YAI_K@Z 0047a0c0 f i libucrtd:input.obj
 0001:00079110       ?characters_read@?$string_input_adapter@D@__crt_stdio_input@@QBEIXZ 0047a110 f i libucrtd:input.obj
 0001:00079130       ?convert_decimal_string_to_floating_type_common@__crt_strtox@@YA?AW4SLD_STATUS@@ABUfloating_point_string@1@ABVfloating_point_value@1@@Z 0047a130 f i libucrtd:input.obj
 0001:00079780       ?convert_hexadecimal_string_to_floating_type_common@__crt_strtox@@YA?AW4SLD_STATUS@@ABUfloating_point_string@1@ABVfloating_point_value@1@@Z 0047a780 f i libucrtd:input.obj
 0001:000798a0       ?count_sequential_high_zeroes@__crt_strtox@@YAII@Z 0047a8a0 f i libucrtd:input.obj
 0001:000798e0       ?data@?$scanset_storage@$00@__crt_stdio_input@@QBEPAEXZ 0047a8e0 f i libucrtd:input.obj
 0001:000798f0       ?denormal_mantissa_mask@floating_point_value@__crt_strtox@@QBE_KXZ 0047a8f0 f i libucrtd:input.obj
 0001:00079930       ?divide@__crt_strtox@@YA_KAAUbig_integer@1@ABU21@@Z 0047a930 f i libucrtd:input.obj
 0001:0007a3b0       ?error_code@?$format_string_parser@D@__crt_stdio_input@@QBEHXZ 0047b3b0 f i libucrtd:input.obj
 0001:0007a3d0       ?exponent_bias@floating_point_value@__crt_strtox@@QBEHXZ 0047b3d0 f i libucrtd:input.obj
 0001:0007a400       ?get@?$__crt_unique_heap_ptr@EU__crt_internal_free_policy@@@@QBEPAEXZ 0047b400 f i libucrtd:input.obj
 0001:0007a420       ?get@?$input_adapter_character_source@V?$string_input_adapter@D@__crt_stdio_input@@@__crt_strtox@@QAEDXZ 0047b420 f i libucrtd:input.obj
 0001:0007a4b0       ?get@?$string_input_adapter@D@__crt_stdio_input@@QAEHXZ 0047b4b0 f i libucrtd:input.obj
 0001:0007a4f0       ?invert@?$scanset_buffer@E@__crt_stdio_input@@QAEXXZ 0047b4f0 f i libucrtd:input.obj
 0001:0007a550       ?is_character_allowed_in_string@?$input_processor@DV?$string_input_adapter@D@__crt_stdio_input@@@__crt_stdio_input@@ABE_NW4conversion_mode@2@H@Z 0047b550 f i libucrtd:input.obj
 0001:0007a5d0       ?is_digit_or_nondigit@__crt_strtox@@YA_NH@Z 0047b5d0 f i libucrtd:input.obj
 0001:0007a620       ?is_double@floating_point_value@__crt_strtox@@QBE_NXZ 0047b620 f i libucrtd:input.obj
 0001:0007a640       ?is_length_valid@__crt_stdio_input@@YA_NW4conversion_mode@1@W4length_modifier@1@@Z 0047b640 f i libucrtd:input.obj
 0001:0007a670       ?is_space@__crt_strtox@@YA_NDQAU__crt_locale_pointers@@@Z 0047b670 f i libucrtd:input.obj
 0001:0007a6b0       ?is_space@__crt_strtox@@YA_N_WPAU__crt_locale_pointers@@@Z 0047b6b0 f i libucrtd:input.obj
 0001:0007a6e0       ?is_usable@?$scanset_buffer@E@__crt_stdio_input@@QAE_NXZ 0047b6e0 f i libucrtd:input.obj
 0001:0007a710       ?is_valid@?$__crt_unique_heap_ptr@EU__crt_internal_free_policy@@@@QBE_NXZ 0047b710 f i libucrtd:input.obj
 0001:0007a740       ?kind@?$format_string_parser@D@__crt_stdio_input@@QBE?AW4format_directive_kind@2@XZ 0047b740 f i libucrtd:input.obj
 0001:0007a760       ?length@?$format_string_parser@D@__crt_stdio_input@@QBEIXZ 0047b760 f i libucrtd:input.obj
 0001:0007a820       ?literal_character_lead@?$format_string_parser@D@__crt_stdio_input@@QBEEXZ 0047b820 f i libucrtd:input.obj
 0001:0007a870       ?literal_character_trail@?$format_string_parser@D@__crt_stdio_input@@QBEEXZ 0047b870 f i libucrtd:input.obj
 0001:0007a8c0       ?make_big_integer@__crt_strtox@@YA?AUbig_integer@1@_K@Z 0047b8c0 f i libucrtd:input.obj
 0001:0007a970       ?mantissa_bits@floating_point_value@__crt_strtox@@QBEHXZ 0047b970 f i libucrtd:input.obj
 0001:0007a9a0       ?maximum_binary_exponent@floating_point_value@__crt_strtox@@QBEHXZ 0047b9a0 f i libucrtd:input.obj
 0001:0007a9d0       ?maximum_signed_value@__crt_strtox@@YA_J_K@Z 0047b9d0 f i libucrtd:input.obj
 0001:0007a9e0       ?minimum_binary_exponent@floating_point_value@__crt_strtox@@QBEHXZ 0047b9e0 f i libucrtd:input.obj
 0001:0007aa10       ?minimum_signed_value@__crt_strtox@@YA_J_K@Z 0047ba10 f i libucrtd:input.obj
 0001:0007aa20       ?mode@?$format_string_parser@D@__crt_stdio_input@@QBE?AW4conversion_mode@2@XZ 0047ba20 f i libucrtd:input.obj
 0001:0007aa70       ?multiply@__crt_strtox@@YA_NAAUbig_integer@1@ABU21@@Z 0047ba70 f i libucrtd:input.obj
 0001:0007adf0       ?multiply@__crt_strtox@@YA_NAAUbig_integer@1@I@Z 0047bdf0 f i libucrtd:input.obj
 0001:0007aec0       ?multiply_64_32@__crt_strtox@@YA_K_KI@Z 0047bec0 f i libucrtd:input.obj
 0001:0007aee0       ?multiply_by_power_of_ten@__crt_strtox@@YA_NAAUbig_integer@1@I@Z 0047bee0 f i libucrtd:input.obj
 0001:0007b080       ?multiply_core@__crt_strtox@@YAIQAIII@Z 0047c080 f i libucrtd:input.obj
 0001:0007b0f0       ?normal_mantissa_mask@floating_point_value@__crt_strtox@@QBE_KXZ 0047c0f0 f i libucrtd:input.obj
 0001:0007b130       ?parse_digit@__crt_strtox@@YAID@Z 0047c130 f i libucrtd:input.obj
 0001:0007b190       ?parse_digit@__crt_strtox@@YAI_W@Z 0047c190 f i libucrtd:input.obj
 0001:0007b210       ?process@?$input_processor@DV?$string_input_adapter@D@__crt_stdio_input@@@__crt_stdio_input@@QAEHXZ 0047c210 f i libucrtd:input.obj
 0001:0007b360       ?process_character_count_specifier@?$input_processor@DV?$string_input_adapter@D@__crt_stdio_input@@@__crt_stdio_input@@AAE_NXZ 0047c360 f i libucrtd:input.obj
 0001:0007b3a0       ?process_conversion_specifier@?$input_processor@DV?$string_input_adapter@D@__crt_stdio_input@@@__crt_stdio_input@@AAE_NXZ 0047c3a0 f i libucrtd:input.obj
 0001:0007b480       ?process_floating_point_specifier@?$input_processor@DV?$string_input_adapter@D@__crt_stdio_input@@@__crt_stdio_input@@AAE_NXZ 0047c480 f i libucrtd:input.obj
 0001:0007b4d0       ?process_integer_specifier@?$input_processor@DV?$string_input_adapter@D@__crt_stdio_input@@@__crt_stdio_input@@AAE_NI_N@Z 0047c4d0 f i libucrtd:input.obj
 0001:0007b570       ?process_literal_character@?$input_processor@DV?$string_input_adapter@D@__crt_stdio_input@@@__crt_stdio_input@@AAE_NXZ 0047c570 f i libucrtd:input.obj
 0001:0007b5d0       ?process_literal_character_tchar@?$input_processor@DV?$string_input_adapter@D@__crt_stdio_input@@@__crt_stdio_input@@AAE_ND@Z 0047c5d0 f i libucrtd:input.obj
 0001:0007b640       ?process_state@?$input_processor@DV?$string_input_adapter@D@__crt_stdio_input@@@__crt_stdio_input@@AAE_NXZ 0047c640 f i libucrtd:input.obj
 0001:0007b6b0       ?process_string_specifier@?$input_processor@DV?$string_input_adapter@D@__crt_stdio_input@@@__crt_stdio_input@@AAE_NW4conversion_mode@2@@Z 0047c6b0 f i libucrtd:input.obj
 0001:0007b710       ?process_whitespace@?$input_processor@DV?$string_input_adapter@D@__crt_stdio_input@@@__crt_stdio_input@@AAE_NXZ 0047c710 f i libucrtd:input.obj
 0001:0007b750       ?release@?$__crt_unique_heap_ptr@EU__crt_internal_free_policy@@@@QAEXXZ 0047c750 f i libucrtd:input.obj
 0001:0007b780       ?reset@?$scanset_buffer@E@__crt_stdio_input@@QAEXXZ 0047c780 f i libucrtd:input.obj
 0001:0007b7c0       ?reset_token_state@?$format_string_parser@D@__crt_stdio_input@@AAEXXZ 0047c7c0 f i libucrtd:input.obj
 0001:0007b820       ?reset_token_state_for_error@?$format_string_parser@D@__crt_stdio_input@@AAEXH@Z 0047c820 f i libucrtd:input.obj
 0001:0007b840       ?restore_state@?$input_adapter_character_source@V?$string_input_adapter@D@__crt_stdio_input@@@__crt_strtox@@QAE_N_K@Z 0047c840 f i libucrtd:input.obj
 0001:0007b880       ?right_shift_with_rounding@__crt_strtox@@YA_K_N_KI0@Z 0047c880 f i libucrtd:input.obj
 0001:0007b9b0       ?save_state@?$input_adapter_character_source@V?$string_input_adapter@D@__crt_stdio_input@@@__crt_strtox@@QBE_KXZ 0047c9b0 f i libucrtd:input.obj
 0001:0007b9d0       ?scan_conversion_specifier@?$format_string_parser@D@__crt_stdio_input@@AAE_NXZ 0047c9d0 f i libucrtd:input.obj
 0001:0007bc30       ?scan_optional_assignment_suppressor@?$format_string_parser@D@__crt_stdio_input@@AAEXXZ 0047cc30 f i libucrtd:input.obj
 0001:0007bc70       ?scan_optional_field_width@?$format_string_parser@D@__crt_stdio_input@@AAE_NXZ 0047cc70 f i libucrtd:input.obj
 0001:0007bd10       ?scan_optional_length_modifier@?$format_string_parser@D@__crt_stdio_input@@AAEXXZ 0047cd10 f i libucrtd:input.obj
 0001:0007c010       ?scan_optional_literal_character_trail_bytes_tchar@?$format_string_parser@D@__crt_stdio_input@@AAE_ND@Z 0047d010 f i libucrtd:input.obj
 0001:0007c080       ?scan_optional_wide_modifier@?$format_string_parser@D@__crt_stdio_input@@AAEXXZ 0047d080 f i libucrtd:input.obj
 0001:0007c0e0       ?scan_scanset_range@?$format_string_parser@D@__crt_stdio_input@@AAE_NXZ 0047d0e0 f i libucrtd:input.obj
 0001:0007c2d0       ?scanset@?$format_string_parser@D@__crt_stdio_input@@QBEABV?$scanset_buffer@E@2@XZ 0047d2d0 f i libucrtd:input.obj
 0001:0007c320       ?secure_buffers@?$input_processor@DV?$string_input_adapter@D@__crt_stdio_input@@@__crt_stdio_input@@ABE_NXZ 0047d320 f i libucrtd:input.obj
 0001:0007c360       ?set@?$scanset_buffer@E@__crt_stdio_input@@QAEXE@Z 0047d360 f i libucrtd:input.obj
 0001:0007c3c0       ?set_wide_for_c_s_or_scanset@?$format_string_parser@D@__crt_stdio_input@@AAEXXZ 0047d3c0 f i libucrtd:input.obj
 0001:0007c400       ?shift_left@__crt_strtox@@YA_NAAUbig_integer@1@I@Z 0047d400 f i libucrtd:input.obj
 0001:0007c750       ?should_default_to_wide@?$format_string_parser@D@__crt_stdio_input@@AAE_NE@Z 0047d750 f i libucrtd:input.obj
 0001:0007c790       ?should_round_up@__crt_strtox@@YA_N_N000@Z 0047d790 f i libucrtd:input.obj
 0001:0007c880       ?size@?$scanset_storage@$00@__crt_stdio_input@@QBEIXZ 0047d880 f i libucrtd:input.obj
 0001:0007c8a0       ?suppress_assignment@?$format_string_parser@D@__crt_stdio_input@@QBE_NXZ 0047d8a0 f i libucrtd:input.obj
 0001:0007c8f0       ?test@?$scanset_buffer@E@__crt_stdio_input@@QBE_NE@Z 0047d8f0 f i libucrtd:input.obj
 0001:0007c950       ?to_floating_point_length@__crt_stdio_input@@YAIW4length_modifier@1@@Z 0047d950 f i libucrtd:input.obj
 0001:0007c9c0       ?to_integer_length@__crt_stdio_input@@YAIW4length_modifier@1@@Z 0047d9c0 f i libucrtd:input.obj
 0001:0007ca80       ?unget@?$input_adapter_character_source@V?$string_input_adapter@D@__crt_stdio_input@@@__crt_strtox@@QAEXD@Z 0047da80 f i libucrtd:input.obj
 0001:0007cb10       ?unget@?$string_input_adapter@D@__crt_stdio_input@@QAEXH@Z 0047db10 f i libucrtd:input.obj
 0001:0007cb60       ?validate@?$format_string_parser@D@__crt_stdio_input@@QBE_NXZ 0047db60 f i libucrtd:input.obj
 0001:0007cbf0       ?validate@?$input_adapter_character_source@V?$string_input_adapter@D@__crt_stdio_input@@@__crt_strtox@@QBE_NXZ 0047dbf0 f i libucrtd:input.obj
 0001:0007cd00       ?validate@?$string_input_adapter@D@__crt_stdio_input@@QAE_NXZ 0047dd00 f i libucrtd:input.obj
 0001:0007ce20       ?wide_character_to_digit@__crt_strtox@@YAH_W@Z 0047de20 f i libucrtd:input.obj
 0001:0007d150       ?width@?$format_string_parser@D@__crt_stdio_input@@QBE_KXZ 0047e150 f i libucrtd:input.obj
 0001:0007d1a0       ?write_character@?$input_processor@DV?$string_input_adapter@D@__crt_stdio_input@@@__crt_stdio_input@@AAE_NQADIAAPADAAID@Z 0047e1a0 f i libucrtd:input.obj
 0001:0007d1e0       ?write_character@?$input_processor@DV?$string_input_adapter@D@__crt_stdio_input@@@__crt_stdio_input@@AAE_NQA_WIAAPA_WAAID@Z 0047e1e0 f i libucrtd:input.obj
 0001:0007d280       ?write_integer@?$input_processor@DV?$string_input_adapter@D@__crt_stdio_input@@@__crt_stdio_input@@AAE_N_K_N@Z 0047e280 f i libucrtd:input.obj
 0001:0007d3d0       ___acrt_get_locale_data_prefix 0047e3d0 f i libucrtd:input.obj
 0001:0007d3f0       ___stdio_common_vsscanf    0047e3f0 f   libucrtd:input.obj
 0001:0007d420       __chvalidchk_l             0047e420 f i libucrtd:input.obj
 0001:0007d440       __ischartype_l             0047e440 f i libucrtd:input.obj
 0001:0007d5a0       _strcmp                    0047e5a0 f   libucrtd:strcmp.obj
 0001:0007d630       _strtok                    0047e630 f   libucrtd:strtok.obj
 0001:0007d650       ___acrt_initialize_locks   0047e650 f   libucrtd:locks.obj
 0001:0007d6b0       ___acrt_lock               0047e6b0 f   libucrtd:locks.obj
 0001:0007d6d0       ___acrt_uninitialize_locks 0047e6d0 f   libucrtd:locks.obj
 0001:0007d720       ___acrt_unlock             0047e720 f   libucrtd:locks.obj
 0001:0007d740       __lock_locales             0047e740 f   libucrtd:locks.obj
 0001:0007d760       __unlock_locales           0047e760 f   libucrtd:locks.obj
 0001:0007d780       _terminate                 0047e780 f   libucrtd:terminate.obj
 0001:0007d820       ??$__crt_fast_decode_pointer@P6AHI@Z@@YAP6AHI@ZQ6AHI@Z@Z 0047e820 f i libucrtd:new_handler.obj
 0001:0007d850       ?initialize@?$dual_state_global@P6AHI@Z@__crt_state_management@@QAEXQ6AHI@Z@Z 0047e850 f i libucrtd:new_handler.obj
 0001:0007d890       ?value@?$dual_state_global@P6AHI@Z@__crt_state_management@@QAEAAP6AHI@ZXZ 0047e890 f i libucrtd:new_handler.obj
 0001:0007d8b0       ___acrt_initialize_new_handler 0047e8b0 f   libucrtd:new_handler.obj
 0001:0007d8d0       __callnewh                 0047e8d0 f   libucrtd:new_handler.obj
 0001:0007d930       __query_new_handler        0047e930 f   libucrtd:new_handler.obj
 0001:0007f250       __CrtCheckMemory           00480250 f   libucrtd:debug_heap.obj
 0001:0007f3e0       __CrtDumpMemoryLeaks       004803e0 f   libucrtd:debug_heap.obj
 0001:0007f480       __CrtIsValidHeapPointer    00480480 f   libucrtd:debug_heap.obj
 0001:0007f4b0       __CrtIsValidPointer        004804b0 f   libucrtd:debug_heap.obj
 0001:0007f4e0       __CrtMemCheckpoint         004804e0 f   libucrtd:debug_heap.obj
 0001:0007f710       __CrtMemDumpAllObjectsSince 00480710 f   libucrtd:debug_heap.obj
 0001:0007f7b0       __CrtSetDbgFlag            004807b0 f   libucrtd:debug_heap.obj
 0001:0007f920       __CrtSetDumpClient         00480920 f   libucrtd:debug_heap.obj
 0001:0007f940       __calloc_dbg               00480940 f   libucrtd:debug_heap.obj
 0001:0007f9b0       __free_dbg                 004809b0 f   libucrtd:debug_heap.obj
 0001:0007fa60       __malloc_dbg               00480a60 f   libucrtd:debug_heap.obj
 0001:0007fa80       __msize_dbg                00480a80 f   libucrtd:debug_heap.obj
 0001:0007fc10       __realloc_dbg              00480c10 f   libucrtd:debug_heap.obj
 0001:0007fcb0       __recalloc_dbg             00480cb0 f   libucrtd:debug_heap.obj
 0001:0007fdb0       __seh_filter_exe           00480db0 f   libucrtd:exception_filter.obj
 0001:0007ffd0       ??$?B$$A6GXPAXK0@Z@__crt_fast_encoded_nullptr_t@@QBEP6GXPAXK0@ZXZ 00480fd0 f i libucrtd:exit.obj
 0001:0007fff0       ??$__crt_fast_decode_pointer@P6GXPAXK0@Z@@YAP6GXPAXK0@ZQ6GX0K0@Z@Z 00480ff0 f i libucrtd:exit.obj
 0001:00080020       ??$__crt_fast_encode_pointer@P6GXPAXK0@Z@@YAP6GXPAXK0@ZQ6GX0K0@Z@Z 00481020 f i libucrtd:exit.obj
 0001:00080050       ??$__crt_get_proc_address@P6GXI@Z@@YAP6GXI@ZQAUHINSTANCE__@@QBD@Z 00481050 f i libucrtd:exit.obj
 0001:00080070       ??0?$__crt_unique_handle_t@U__crt_hmodule_traits@@@@QAE@QAUHINSTANCE__@@@Z 00481070 f i libucrtd:exit.obj
 0001:00080090       ??1?$__crt_unique_handle_t@U__crt_hmodule_traits@@@@QAE@XZ 00481090 f i libucrtd:exit.obj
 0001:000800d0       ?close@?$__crt_unique_handle_t@U__crt_hmodule_traits@@@@QAEXXZ 004810d0 f i libucrtd:exit.obj
 0001:00080110       ?close@__crt_hmodule_traits@@SA_NPAUHINSTANCE__@@@Z 00481110 f i libucrtd:exit.obj
 0001:00080340       ?get@?$__crt_unique_handle_t@U__crt_hmodule_traits@@@@QBEPAUHINSTANCE__@@XZ 00481340 f i libucrtd:exit.obj
 0001:00080360       ?get_address_of@?$__crt_unique_handle_t@U__crt_hmodule_traits@@@@QAEPAPAUHINSTANCE__@@XZ 00481360 f i libucrtd:exit.obj
 0001:00080370       ?get_invalid_value@__crt_hmodule_traits@@SAPAUHINSTANCE__@@XZ 00481370 f i libucrtd:exit.obj
 0001:00080500       ___acrt_initialize_thread_local_exit_callback 00481500 f   libucrtd:exit.obj
 0001:00080510       __c_exit                   00481510 f   libucrtd:exit.obj
 0001:00080530       __cexit                    00481530 f   libucrtd:exit.obj
 0001:00080550       __exit                     00481550 f   libucrtd:exit.obj
 0001:00080570       __register_thread_local_exe_atexit_callback 00481570 f   libucrtd:exit.obj
 0001:000805b0       _exit                      004815b0 f   libucrtd:exit.obj
 0001:000805d0       ??$?RPAD@__crt_internal_free_policy@@QBEXQBQAD@Z 004815d0 f i libucrtd:argv_parsing.obj
 0001:00080880       ??$get_module_file_name@$$TAAY0BAF@DH@?$__crt_char_traits@D@@SAK$$QA$$TAAY0BAF@D$$QAH@Z 00481880 f i libucrtd:argv_parsing.obj
 0001:00080c10       ??$set_program_name@PAD@?$__crt_char_traits@D@@SAX$$QAPAD@Z 00481c10 f i libucrtd:argv_parsing.obj
 0001:00080c50       ??0?$__crt_unique_heap_ptr@PADU__crt_internal_free_policy@@@@QAE@QAPAD@Z 00481c50 f i libucrtd:argv_parsing.obj
 0001:00080c70       ??1?$__crt_unique_heap_ptr@PADU__crt_internal_free_policy@@@@QAE@XZ 00481c70 f i libucrtd:argv_parsing.obj
 0001:00080ce0       ?detach@?$__crt_unique_heap_ptr@EU__crt_internal_free_policy@@@@QAEPAEXZ 00481ce0 f i libucrtd:argv_parsing.obj
 0001:00080d10       ?detach@?$__crt_unique_heap_ptr@PADU__crt_internal_free_policy@@@@QAEPAPADXZ 00481d10 f i libucrtd:argv_parsing.obj
 0001:00080d70       ?get@?$__crt_unique_heap_ptr@PADU__crt_internal_free_policy@@@@QBEPAPADXZ 00481d70 f i libucrtd:argv_parsing.obj
 0001:00080d90       ?get_address_of@?$__crt_unique_heap_ptr@PADU__crt_internal_free_policy@@@@QAEPAPAPADXZ 00481d90 f i libucrtd:argv_parsing.obj
 0001:00080dc0       ?release@?$__crt_unique_heap_ptr@PADU__crt_internal_free_policy@@@@QAEXXZ 00481dc0 f i libucrtd:argv_parsing.obj
 0001:00080e20       ___acrt_allocate_buffer_for_argv 00481e20 f   libucrtd:argv_parsing.obj
 0001:00080ee0       __configure_narrow_argv    00481ee0 f   libucrtd:argv_parsing.obj
 0001:00080f00       __set_pgmptr               00481f00 f i libucrtd:argv_parsing.obj
 0001:000810d8       ??$tcslen@AAPAD@?$__crt_char_traits@D@@SAIAAPAD@Z 004820d8 f i libucrtd:environment_initialization.obj
 0001:000810f0       ??$uninitialize@A6AXAAPAPAD@Z@?$dual_state_global@PAPAD@__crt_state_management@@QAEXA6AXAAPAPAD@Z@Z 004820f0 f i libucrtd:environment_initialization.obj
 0001:00081130       ??$uninitialize@A6AXAAPAPA_W@Z@?$dual_state_global@PAPA_W@__crt_state_management@@QAEXA6AXAAPAPA_W@Z@Z 00482130 f i libucrtd:environment_initialization.obj
 0001:000811a6       ??0?$__crt_unique_heap_ptr@_WU__crt_internal_free_policy@@@@QAE@QA_W@Z 004821a6 f i libucrtd:environment_initialization.obj
 0001:000811b6       ??1?$__crt_unique_heap_ptr@_WU__crt_internal_free_policy@@@@QAE@XZ 004821b6 f i libucrtd:environment_initialization.obj
 0001:000811cb       ??B?$__crt_unique_heap_ptr@PADU__crt_internal_free_policy@@@@QBE_NXZ 004821cb f i libucrtd:environment_initialization.obj
 0001:000811d3       ?detach@?$__crt_unique_heap_ptr@DU__crt_internal_free_policy@@@@QAEPADXZ 004821d3 f i libucrtd:environment_initialization.obj
 0001:000811d9       ?detach@?$__crt_unique_heap_ptr@_WU__crt_internal_free_policy@@@@QAEPA_WXZ 004821d9 f i libucrtd:environment_initialization.obj
 0001:000811df       ?get@?$__crt_unique_heap_ptr@_WU__crt_internal_free_policy@@@@QBEPA_WXZ 004821df f i libucrtd:environment_initialization.obj
 0001:000811e2       ?initialize@?$dual_state_global@PAPAD@__crt_state_management@@QAEXQAPAD@Z 004821e2 f i libucrtd:environment_initialization.obj
 0001:00081213       ___dcrt_uninitialize_environments_nolock 00482213 f   libucrtd:environment_initialization.obj
 0001:0008124a       __initialize_narrow_environment 0048224a f   libucrtd:environment_initialization.obj
 0001:00081250       ??$?BP6AXXZ@__crt_fast_encoded_nullptr_t@@QBEPAP6AXXZXZ 00482250 f i libucrtd:onexit.obj
 0001:00081270       ??$?RP6AXXZ@__crt_internal_free_policy@@QBEXQBQ6AXXZ@Z 00482270 f i libucrtd:onexit.obj
 0001:00081290       ??$?RV<lambda_821a00fc0e15a7fd532972332124005d>@@AAV<lambda_942beefa13ab35ff55f86422493ffd6a>@@V<lambda_3ab53bf64df1f1ff33dbc5b1929ce7a7>@@@?$__crt_seh_guarded_call@H@@QAEH$$QAV<lambda_821a00fc0e15a7fd532972332124005d>@@AAV<lambda_942beefa13ab35ff55f86422493ffd6a>@@$$QAV<lambda_3ab53bf64df1f1ff33dbc5b1929ce7a7>@@@Z 00482290 f i libucrtd:onexit.obj
 0001:00081320       ??$?RV<lambda_a12890e7f9ac9927a62bd0bbd5044c78>@@AAV<lambda_e971338317bfa523bb8920b43d823727>@@V<lambda_e618b16d59e79e236350cab8485990d2>@@@?$__crt_seh_guarded_call@H@@QAEH$$QAV<lambda_a12890e7f9ac9927a62bd0bbd5044c78>@@AAV<lambda_e971338317bfa523bb8920b43d823727>@@$$QAV<lambda_e618b16d59e79e236350cab8485990d2>@@@Z 00482320 f i libucrtd:onexit.obj
 0001:000813b0       ??$__acrt_lock_and_call@V<lambda_942beefa13ab35ff55f86422493ffd6a>@@@@YAHW4__acrt_lock_id@@$$QAV<lambda_942beefa13ab35ff55f86422493ffd6a>@@@Z 004823b0 f i libucrtd:onexit.obj
 0001:000813f0       ??$__acrt_lock_and_call@V<lambda_e971338317bfa523bb8920b43d823727>@@@@YAHW4__acrt_lock_id@@$$QAV<lambda_e971338317bfa523bb8920b43d823727>@@@Z 004823f0 f i libucrtd:onexit.obj
 0001:00081430       ??$__crt_fast_encode_pointer@P6AHXZ@@YAP6AHXZQ6AHXZ@Z 00482430 f i libucrtd:onexit.obj
 0001:00081530       ??0?$__crt_unique_heap_ptr@P6AXXZU__crt_internal_free_policy@@@@QAE@QAP6AXXZ@Z 00482530 f i libucrtd:onexit.obj
 0001:00081550       ??1?$__crt_unique_heap_ptr@P6AXXZU__crt_internal_free_policy@@@@QAE@XZ 00482550 f i libucrtd:onexit.obj
 0001:000819a0       ?detach@?$__crt_unique_heap_ptr@P6AXXZU__crt_internal_free_policy@@@@QAEPAP6AXXZXZ 004829a0 f i libucrtd:onexit.obj
 0001:000819d0       ?release@?$__crt_unique_heap_ptr@P6AXXZU__crt_internal_free_policy@@@@QAEXXZ 004829d0 f i libucrtd:onexit.obj
 0001:00081a00       __crt_atexit               00482a00 f   libucrtd:onexit.obj
 0001:00081a20       __execute_onexit_table     00482a20 f   libucrtd:onexit.obj
 0001:00081a50       __initialize_onexit_table  00482a50 f   libucrtd:onexit.obj
 0001:00081ab0       __register_onexit_function 00482ab0 f   libucrtd:onexit.obj
 0001:00081d00       ?initialize@?$dual_state_global@PAU__crt_locale_data@@@__crt_state_management@@QAEXQAU__crt_locale_data@@@Z 00482d00 f i libucrtd:initialization.obj
 0001:00081d40       ___acrt_initialize         00482d40 f   libucrtd:initialization.obj
 0001:00081d60       ___acrt_uninitialize       00482d60 f   libucrtd:initialization.obj
 0001:00081f50       ___acrt_report_runtime_error 00482f50 f   libucrtd:report_runtime_error.obj
 0001:00082140       __query_app_type           00483140 f   libucrtd:report_runtime_error.obj
 0001:00082150       __set_app_type             00483150 f   libucrtd:report_runtime_error.obj
 0001:00082160       ??$__crt_fast_decode_pointer@P6AHPAU_exception@@@Z@@YAP6AHPAU_exception@@@ZQ6AH0@Z@Z 00483160 f i libucrtd:matherr.obj
 0001:00082190       ??$__crt_fast_encode_pointer@P6AHPAU_exception@@@Z@@YAP6AHPAU_exception@@@ZQ6AH0@Z@Z 00483190 f i libucrtd:matherr.obj
 0001:000821c0       ?initialize@?$dual_state_global@P6AHPAU_exception@@@Z@__crt_state_management@@QAEXQ6AHPAU_exception@@@Z@Z 004831c0 f i libucrtd:matherr.obj
 0001:00082200       ?value@?$dual_state_global@P6AHPAU_exception@@@Z@__crt_state_management@@QAEAAP6AHPAU_exception@@@ZXZ 00483200 f i libucrtd:matherr.obj
 0001:00082220       ___acrt_has_user_matherr   00483220 f   libucrtd:matherr.obj
 0001:00082260       ___acrt_initialize_user_matherr 00483260 f   libucrtd:matherr.obj
 0001:00082280       ___acrt_invoke_user_matherr 00483280 f   libucrtd:matherr.obj
 0001:000822e0       ___setusermatherr          004832e0 f   libucrtd:matherr.obj
 0001:00082440       __get_narrow_winmain_command_line 00483440 f   libucrtd:argv_winmain.obj
 0001:00082450       __initterm                 00483450 f   libucrtd:initterm.obj
 0001:000824b0       __initterm_e               004834b0 f   libucrtd:initterm.obj
 0001:00082520       ??$__crt_interlocked_read@H@@YAHPDH@Z 00483520 f i libucrtd:setmode.obj
 0001:00082540       __get_fmode                00483540 f   libucrtd:setmode.obj
 0001:000825e0       __set_fmode                004835e0 f   libucrtd:setmode.obj
 0001:00082690       __setmode_nolock           00483690 f   libucrtd:setmode.obj
 0001:000828b0       ??$?RU__crt_multibyte_data@@@__crt_internal_free_policy@@QBEXQBU__crt_multibyte_data@@@Z 004838b0 f i libucrtd:wsetlocale.obj
 0001:000828d0       ??0?$__crt_unique_heap_ptr@U__crt_multibyte_data@@U__crt_internal_free_policy@@@@QAE@QAU__crt_multibyte_data@@@Z 004838d0 f i libucrtd:wsetlocale.obj
 0001:000828f0       ??1?$__crt_unique_heap_ptr@U__crt_multibyte_data@@U__crt_internal_free_policy@@@@QAE@XZ 004838f0 f i libucrtd:wsetlocale.obj
 0001:00082910       ??B?$__crt_unique_heap_ptr@U__crt_multibyte_data@@U__crt_internal_free_policy@@@@QBE_NXZ 00483910 f i libucrtd:wsetlocale.obj
 0001:00082930       ?detach@?$__crt_unique_heap_ptr@U__crt_multibyte_data@@U__crt_internal_free_policy@@@@QAEPAU__crt_multibyte_data@@XZ 00483930 f i libucrtd:wsetlocale.obj
 0001:00082960       ?get@?$__crt_unique_heap_ptr@U__crt_multibyte_data@@U__crt_internal_free_policy@@@@QBEPAU__crt_multibyte_data@@XZ 00483960 f i libucrtd:wsetlocale.obj
 0001:00082980       ?is_valid@?$__crt_unique_heap_ptr@U__crt_multibyte_data@@U__crt_internal_free_policy@@@@QBE_NXZ 00483980 f i libucrtd:wsetlocale.obj
 0001:000829b0       ?release@?$__crt_unique_heap_ptr@U__crt_multibyte_data@@U__crt_internal_free_policy@@@@QAEXXZ 004839b0 f i libucrtd:wsetlocale.obj
 0001:000829e0       ?value@?$dual_state_global@PAU__crt_locale_data@@@__crt_state_management@@QAEAAPAU__crt_locale_data@@XZ 004839e0 f i libucrtd:wsetlocale.obj
 0001:00082a00       ___acrt_set_locale_changed 00483a00 f   libucrtd:wsetlocale.obj
 0001:00082a20       ___acrt_uninitialize_locale 00483a20 f   libucrtd:wsetlocale.obj
 0001:00082ad0       __configthreadlocale       00483ad0 f   libucrtd:wsetlocale.obj
 0001:00082c00       ?value@?$dual_state_global@J@__crt_state_management@@QAEAAJXZ 00483c00 f i libucrtd:new_mode.obj
 0001:00082c20       __query_new_mode           00483c20 f   libucrtd:new_mode.obj
 0001:00082c40       __set_new_mode             00483c40 f   libucrtd:new_mode.obj
 0001:00082ce0       ___p__commode              00483ce0 f   libucrtd:ncommode.obj
 0001:000831a0       __wmakepath_s              004841a0 f   libucrtd:makepath.obj
 0001:000837a0       ??$tcsncpy_s@AAPA_WIAAPB_WABI@?$__crt_char_traits@_W@@SAHAAPA_W$$QAIAAPB_WABI@Z 004847a0 f i libucrtd:splitpath.obj
 0001:000837d0       ??$tcsncpy_s@AAPA_WIAAPB_WH@?$__crt_char_traits@_W@@SAHAAPA_W$$QAIAAPB_W$$QAH@Z 004847d0 f i libucrtd:splitpath.obj
 0001:000838a0       __wsplitpath_s             004848a0 f   libucrtd:splitpath.obj
 0001:00083c10       _wcscpy_s                  00484c10 f   libucrtd:wcscpy_s.obj
 0001:00083c30       __controlfp_s              00484c30 f   libucrtd:contrlfp.obj
 0001:00084030       _strcpy_s                  00485030 f   libucrtd:strcpy_s.obj
 0001:00084050       _abort                     00485050 f   libucrtd:abort.obj
 0001:000840c0       ??$is_overflow_condition@K@__crt_strtox@@YA_NIK@Z 004850c0 f i libucrtd:atox.obj
 0001:00084120       ??$parse_integer@KV?$c_string_character_source@D@__crt_strtox@@@__crt_strtox@@YAKQAU__crt_locale_pointers@@V?$c_string_character_source@D@0@H_N@Z 00485120 f i libucrtd:atox.obj
 0001:00084490       ??$parse_integer@KV?$c_string_character_source@_W@__crt_strtox@@@__crt_strtox@@YAKQAU__crt_locale_pointers@@V?$c_string_character_source@_W@0@H_N@Z 00485490 f i libucrtd:atox.obj
 0001:00084800       ??$parse_integer@_KV?$c_string_character_source@D@__crt_strtox@@@__crt_strtox@@YA_KQAU__crt_locale_pointers@@V?$c_string_character_source@D@0@H_N@Z 00485800 f i libucrtd:atox.obj
 0001:00084c20       ??0?$c_string_character_source@D@__crt_strtox@@QAE@QBDQAPBD@Z 00485c20 f i libucrtd:atox.obj
 0001:00084c60       ??0?$c_string_character_source@_W@__crt_strtox@@QAE@QB_WQAPB_W@Z 00485c60 f i libucrtd:atox.obj
 0001:00084ca0       ??1?$c_string_character_source@D@__crt_strtox@@QAE@XZ 00485ca0 f i libucrtd:atox.obj
 0001:00084cd0       ??1?$c_string_character_source@_W@__crt_strtox@@QAE@XZ 00485cd0 f i libucrtd:atox.obj
 0001:00084d00       ?get@?$c_string_character_source@D@__crt_strtox@@QAEDXZ 00485d00 f i libucrtd:atox.obj
 0001:00084d30       ?get@?$c_string_character_source@_W@__crt_strtox@@QAE_WXZ 00485d30 f i libucrtd:atox.obj
 0001:00084d60       ?maximum_signed_value@__crt_strtox@@YAJK@Z 00485d60 f i libucrtd:atox.obj
 0001:00084d70       ?minimum_signed_value@__crt_strtox@@YAJK@Z 00485d70 f i libucrtd:atox.obj
 0001:00084d80       ?restore_state@?$c_string_character_source@D@__crt_strtox@@QAE_NQBD@Z 00485d80 f i libucrtd:atox.obj
 0001:00084da0       ?restore_state@?$c_string_character_source@_W@__crt_strtox@@QAE_NQB_W@Z 00485da0 f i libucrtd:atox.obj
 0001:00084dc0       ?save_state@?$c_string_character_source@D@__crt_strtox@@QBEPBDXZ 00485dc0 f i libucrtd:atox.obj
 0001:00084de0       ?save_state@?$c_string_character_source@_W@__crt_strtox@@QBEPB_WXZ 00485de0 f i libucrtd:atox.obj
 0001:00084e00       ?unget@?$c_string_character_source@D@__crt_strtox@@QAEXD@Z 00485e00 f i libucrtd:atox.obj
 0001:00084eb0       ?unget@?$c_string_character_source@_W@__crt_strtox@@QAEX_W@Z 00485eb0 f i libucrtd:atox.obj
 0001:00084f60       ?validate@?$c_string_character_source@D@__crt_strtox@@QBE_NXZ 00485f60 f i libucrtd:atox.obj
 0001:00084ff0       ?validate@?$c_string_character_source@_W@__crt_strtox@@QBE_NXZ 00485ff0 f i libucrtd:atox.obj
 0001:00085080       ___acrt_errno_from_os_error 00486080 f   libucrtd:errno.obj
 0001:00085100       ___acrt_errno_map_os_error 00486100 f   libucrtd:errno.obj
 0001:00085130       ___doserrno                00486130 f   libucrtd:errno.obj
 0001:00085160       __errno                    00486160 f   libucrtd:errno.obj
 0001:00085190       __fileno                   00486190 f   libucrtd:fileno.obj
 0001:000855c0       ___acrt_stdio_flush_and_write_narrow_nolock 004865c0 f   libucrtd:_flsbuf.obj
 0001:000858b0       ___acrt_initialize_lowio   004868b0 f   libucrtd:ioinit.obj
 0001:00085950       ___acrt_uninitialize_lowio 00486950 f   libucrtd:ioinit.obj
 0001:000866e0       __write                    004876e0 f   libucrtd:write.obj
 0001:00086930       __write_nolock             00487930 f   libucrtd:write.obj
 0001:00086d80       ?has_temporary_buffer@__crt_stdio_stream@@QBE_NXZ 00487d80 f i libucrtd:_sftbuf.obj
 0001:00086da0       ___acrt_stdio_begin_temporary_buffering_nolock 00487da0 f   libucrtd:_sftbuf.obj
 0001:00086f60       ___acrt_stdio_end_temporary_buffering_nolock 00487f60 f   libucrtd:_sftbuf.obj
 0001:00086fe0       ??0__crt_stdio_stream@@QAE@QAU__crt_stdio_stream_data@@@Z 00487fe0 f i libucrtd:fflush.obj
 0001:00087000       ___acrt_stdio_flush_nolock 00488000 f   libucrtd:fflush.obj
 0001:000870e0       __fflush_nolock            004880e0 f   libucrtd:fflush.obj
 0001:00087160       __flushall                 00488160 f   libucrtd:fflush.obj
 0001:00087310       ??$?RV<lambda_4d8dda1ac129e11742d77ae5e3bbda74>@@AAV<lambda_a8f98972ebaa5f7148d35bffe53bd70d>@@V<lambda_5193b64c98d743723bd5dcf162a72339>@@@?$__crt_seh_guarded_call@H@@QAEH$$QAV<lambda_4d8dda1ac129e11742d77ae5e3bbda74>@@AAV<lambda_a8f98972ebaa5f7148d35bffe53bd70d>@@$$QAV<lambda_5193b64c98d743723bd5dcf162a72339>@@@Z 00488310 f i libucrtd:close.obj
 0001:000873a0       ??$__acrt_lowio_lock_fh_and_call@V<lambda_a8f98972ebaa5f7148d35bffe53bd70d>@@@@YAHH$$QAV<lambda_a8f98972ebaa5f7148d35bffe53bd70d>@@@Z 004883a0 f i libucrtd:close.obj
 0001:000875c0       __close                    004885c0 f   libucrtd:close.obj
 0001:00087740       __close_nolock             00488740 f   libucrtd:close.obj
 0001:000877a0       ??$?RU__crt_stdio_stream_data@@@__crt_internal_free_policy@@QBEXQBU__crt_stdio_stream_data@@@Z 004887a0 f i libucrtd:stream.obj
 0001:000877c0       ??0?$__crt_unique_heap_ptr@U__crt_stdio_stream_data@@U__crt_internal_free_policy@@@@QAE@QAU__crt_stdio_stream_data@@@Z 004887c0 f i libucrtd:stream.obj
 0001:000877e0       ??0__crt_stdio_stream@@QAE@XZ 004887e0 f i libucrtd:stream.obj
 0001:00087800       ??1?$__crt_unique_heap_ptr@U__crt_stdio_stream_data@@U__crt_internal_free_policy@@@@QAE@XZ 00488800 f i libucrtd:stream.obj
 0001:00087820       ?__acrt_stdio_allocate_stream@@YA?AV__crt_stdio_stream@@XZ 00488820 f   libucrtd:stream.obj
 0001:00087910       ?__acrt_stdio_free_stream@@YAXV__crt_stdio_stream@@@Z 00488910 f   libucrtd:stream.obj
 0001:00087990       ?deallocate@__crt_stdio_stream@@QAEXXZ 00488990 f i libucrtd:stream.obj
 0001:000879b0       ?detach@?$__crt_unique_heap_ptr@U__crt_stdio_stream_data@@U__crt_internal_free_policy@@@@QAEPAU__crt_stdio_stream_data@@XZ 004889b0 f i libucrtd:stream.obj
 0001:00087b20       ?lock@__crt_stdio_stream@@QBEXXZ 00488b20 f i libucrtd:stream.obj
 0001:00087b40       ?release@?$__crt_unique_heap_ptr@U__crt_stdio_stream_data@@U__crt_internal_free_policy@@@@QAEXXZ 00488b40 f i libucrtd:stream.obj
 0001:00087b70       ?try_allocate@__crt_stdio_stream@@QAE_NXZ 00488b70 f i libucrtd:stream.obj
 0001:00087bc0       ___acrt_stdio_free_buffer_nolock 00488bc0 f   libucrtd:_freebuf.obj
 0001:00087c70       ??$__acrt_stdio_parse_mode@D@@YA?AU__acrt_stdio_stream_mode@@QBD@Z 00488c70 f i libucrtd:openfile.obj
 0001:00088660       ??$tcsncmp@AAPBDAAY02$$CBDI@?$__crt_char_traits@D@@SAHAAPBDAAY02$$CBD$$QAI@Z 00489660 f i libucrtd:openfile.obj
 0001:00088680       ??$tcsnicmp@AAPBDAAY04$$CBDI@?$__crt_char_traits@D@@SAHAAPBDAAY04$$CBD$$QAI@Z 00489680 f i libucrtd:openfile.obj
 0001:000886a0       ??$tcsnicmp@AAPBDAAY06$$CBDI@?$__crt_char_traits@D@@SAHAAPBDAAY06$$CBD$$QAI@Z 004896a0 f i libucrtd:openfile.obj
 0001:000886c0       ??$tcsnicmp@AAPBDAAY07$$CBDI@?$__crt_char_traits@D@@SAHAAPBDAAY07$$CBD$$QAI@Z 004896c0 f i libucrtd:openfile.obj
 0001:000886e0       ??$tsopen_s@PAHABQBDABHABHH@?$__crt_char_traits@D@@SAH$$QAPAHABQBDABH2$$QAH@Z 004896e0 f i libucrtd:openfile.obj
 0001:00088710       ?__acrt_stdio_parse_mode_D@@YA_NAAU__acrt_stdio_stream_mode@@@Z 00489710 f i libucrtd:openfile.obj
 0001:00088740       ?__acrt_stdio_parse_mode_N@@YA_NAAU__acrt_stdio_stream_mode@@@Z 00489740 f i libucrtd:openfile.obj
 0001:00088760       ?__acrt_stdio_parse_mode_R@@YA_NAAU__acrt_stdio_stream_mode@@AA_N@Z 00489760 f i libucrtd:openfile.obj
 0001:00088790       ?__acrt_stdio_parse_mode_S@@YA_NAAU__acrt_stdio_stream_mode@@AA_N@Z 00489790 f i libucrtd:openfile.obj
 0001:000887c0       ?__acrt_stdio_parse_mode_T@@YA_NAAU__acrt_stdio_stream_mode@@@Z 004897c0 f i libucrtd:openfile.obj
 0001:000887f0       ?__acrt_stdio_parse_mode_b@@YA_NAAU__acrt_stdio_stream_mode@@@Z 004897f0 f i libucrtd:openfile.obj
 0001:00088820       ?__acrt_stdio_parse_mode_c@@YA_NAAU__acrt_stdio_stream_mode@@AA_N@Z 00489820 f i libucrtd:openfile.obj
 0001:00088850       ?__acrt_stdio_parse_mode_n@@YA_NAAU__acrt_stdio_stream_mode@@AA_N@Z 00489850 f i libucrtd:openfile.obj
 0001:00088880       ?__acrt_stdio_parse_mode_plus@@YA_NAAU__acrt_stdio_stream_mode@@AA_N@Z 00489880 f i libucrtd:openfile.obj
 0001:000888f0       ?__acrt_stdio_parse_mode_t@@YA_NAAU__acrt_stdio_stream_mode@@@Z 004898f0 f i libucrtd:openfile.obj
 0001:00088920       __openfile                 00489920 f   libucrtd:openfile.obj
 0001:00089340       __read                     0048a340 f   libucrtd:read.obj
 0001:00089620       __read_nolock              0048a620 f   libucrtd:read.obj
 0001:0008a320       ___acrt_stdio_refill_and_read_narrow_nolock 0048b320 f   libucrtd:_filbuf.obj
 0001:0008a6d0       __lseeki64                 0048b6d0 f   libucrtd:lseek.obj
 0001:0008a6f0       __lseeki64_nolock          0048b6f0 f   libucrtd:lseek.obj
 0001:0008a730       __isdigit_l                0048b730 f i libucrtd:_ctype.obj
 0001:0008a770       __isspace_l                0048b770 f i libucrtd:_ctype.obj
 0001:0008a7b0       _isdigit                   0048b7b0 f i libucrtd:_ctype.obj
 0001:0008a7f0       _isspace                   0048b7f0 f i libucrtd:_ctype.obj
 0001:0008aaa0       __tolower_l                0048baa0 f   libucrtd:tolower_toupper.obj
 0001:0008aac0       _tolower                   0048bac0 f   libucrtd:tolower_toupper.obj
 0001:0008ab20       __CrtGetDebugFillThreshold 0048bb20 f   libucrtd:debug_fill_threshold.obj
 0001:0008ab30       ??$make_c_string_character_source@DPAPAD@__crt_strtox@@YA?AV?$c_string_character_source@D@0@QBDQAPAD@Z 0048bb30 f i libucrtd:strtox.obj
 0001:0008ab50       ??$make_c_string_character_source@_WPAPA_W@__crt_strtox@@YA?AV?$c_string_character_source@_W@0@QB_WQAPA_W@Z 0048bb50 f i libucrtd:strtox.obj
 0001:0008ab70       ??$parse_integer_from_string@JDPAPAD@__crt_strtox@@YAJQBDQAPADHQAU__crt_locale_pointers@@@Z 0048bb70 f i libucrtd:strtox.obj
 0001:0008abb0       ??$parse_integer_from_string@J_WPAPA_W@__crt_strtox@@YAJQB_WQAPA_WHQAU__crt_locale_pointers@@@Z 0048bbb0 f i libucrtd:strtox.obj
 0001:0008abf0       ??$parse_integer_from_string@_KDPAPAD@__crt_strtox@@YA_KQBDQAPADHQAU__crt_locale_pointers@@@Z 0048bbf0 f i libucrtd:strtox.obj
 0001:0008ac30       _strtol                    0048bc30 f   libucrtd:strtox.obj
 0001:0008ac50       _strtoull                  0048bc50 f   libucrtd:strtox.obj
 0001:0008ac70       _wcstol                    0048bc70 f   libucrtd:strtox.obj
 0001:0008ac90       __mbtowc_l                 0048bc90 f   libucrtd:mbtowc.obj
 0001:0008aed0       _mbtowc                    0048bed0 f   libucrtd:mbtowc.obj
 0001:0008aef0       __wctomb_s_l               0048bef0 f   libucrtd:wctomb.obj
 0001:0008b230       _wctomb_s                  0048c230 f   libucrtd:wctomb.obj
 0001:0008ba30       ??1?$__crt_simd_cleanup_guard@$00@@QAE@XZ 0048ca30 f i libucrtd:strnlen.obj
 0001:0008ba40       ??1?$__crt_simd_cleanup_guard@$0A@@@QAE@XZ 0048ca40 f i libucrtd:strnlen.obj
 0001:0008ba50       ?compare_equals@?$__crt_simd_traits@$00E@@SA?AT__m256i@@T2@0@Z 0048ca50 f i libucrtd:strnlen.obj
 0001:0008ba90       ?compare_equals@?$__crt_simd_traits@$00G@@SA?AT__m256i@@T2@0@Z 0048ca90 f i libucrtd:strnlen.obj
 0001:0008bad0       ?compare_equals@?$__crt_simd_traits@$0A@E@@SA?AT__m128i@@T2@0@Z 0048cad0 f i libucrtd:strnlen.obj
 0001:0008bb10       ?compare_equals@?$__crt_simd_traits@$0A@G@@SA?AT__m128i@@T2@0@Z 0048cb10 f i libucrtd:strnlen.obj
 0001:0008bb50       ?compute_byte_mask@?$__crt_simd_pack_traits@$00@@SAHT__m256i@@@Z 0048cb50 f i libucrtd:strnlen.obj
 0001:0008bb80       ?compute_byte_mask@?$__crt_simd_pack_traits@$0A@@@SAHT__m128i@@@Z 0048cb80 f i libucrtd:strnlen.obj
 0001:0008bbb0       ?get_zero_pack@?$__crt_simd_pack_traits@$00@@SA?AT__m256i@@XZ 0048cbb0 f i libucrtd:strnlen.obj
 0001:0008bbe0       ?get_zero_pack@?$__crt_simd_pack_traits@$0A@@@SA?AT__m128i@@XZ 0048cbe0 f i libucrtd:strnlen.obj
 0001:0008bc10       _strnlen                   0048cc10 f   libucrtd:strnlen.obj
 0001:0008bc30       _wcsnlen                   0048cc30 f   libucrtd:strnlen.obj
 0001:0008bc50       ??$?RU__acrt_ptd@@@__crt_internal_free_policy@@QBEXQBU__acrt_ptd@@@Z 0048cc50 f i libucrtd:per_thread_data.obj
 0001:0008bc70       ??$?RV<lambda_3518db117f0e7cdb002338c5d3c47b6c>@@AAV<lambda_b2ea41f6bbb362cd97d94c6828d90b61>@@V<lambda_abdedf541bb04549bc734292b4a045d4>@@@?$__crt_seh_guarded_call@X@@QAEX$$QAV<lambda_3518db117f0e7cdb002338c5d3c47b6c>@@AAV<lambda_b2ea41f6bbb362cd97d94c6828d90b61>@@$$QAV<lambda_abdedf541bb04549bc734292b4a045d4>@@@Z 0048cc70 f i libucrtd:per_thread_data.obj
 0001:0008bcf0       ??$?RV<lambda_5b71d36f03204c0beab531769a5b5694>@@AAV<lambda_be2b3da3f62db62e9dad5dc70221a656>@@V<lambda_8f9ce462984622f9bf76b59e2aaaf805>@@@?$__crt_seh_guarded_call@X@@QAEX$$QAV<lambda_5b71d36f03204c0beab531769a5b5694>@@AAV<lambda_be2b3da3f62db62e9dad5dc70221a656>@@$$QAV<lambda_8f9ce462984622f9bf76b59e2aaaf805>@@@Z 0048ccf0 f i libucrtd:per_thread_data.obj
 0001:0008bd70       ??$?RV<lambda_952b238c83a62ef8e81c72265e1e9aa0>@@AAV<lambda_801f60a70ab65355beb13c41cbe335bb>@@V<lambda_84d84f98815add542a0d6e6ca338feb2>@@@?$__crt_seh_guarded_call@X@@QAEX$$QAV<lambda_952b238c83a62ef8e81c72265e1e9aa0>@@AAV<lambda_801f60a70ab65355beb13c41cbe335bb>@@$$QAV<lambda_84d84f98815add542a0d6e6ca338feb2>@@@Z 0048cd70 f i libucrtd:per_thread_data.obj
 0001:0008bdf0       ??$?RV<lambda_9df27f884b057bc3edfc946cb5b7cf47>@@AAV<lambda_e69574bed617af4e071282c136b37893>@@V<lambda_cc0d902bcbbeb830f749456577db4721>@@@?$__crt_seh_guarded_call@X@@QAEX$$QAV<lambda_9df27f884b057bc3edfc946cb5b7cf47>@@AAV<lambda_e69574bed617af4e071282c136b37893>@@$$QAV<lambda_cc0d902bcbbeb830f749456577db4721>@@@Z 0048cdf0 f i libucrtd:per_thread_data.obj
 0001:0008be70       ??$__acrt_lock_and_call@V<lambda_801f60a70ab65355beb13c41cbe335bb>@@@@YAXW4__acrt_lock_id@@$$QAV<lambda_801f60a70ab65355beb13c41cbe335bb>@@@Z 0048ce70 f i libucrtd:per_thread_data.obj
 0001:0008beb0       ??$__acrt_lock_and_call@V<lambda_b2ea41f6bbb362cd97d94c6828d90b61>@@@@YAXW4__acrt_lock_id@@$$QAV<lambda_b2ea41f6bbb362cd97d94c6828d90b61>@@@Z 0048ceb0 f i libucrtd:per_thread_data.obj
 0001:0008bef0       ??$__acrt_lock_and_call@V<lambda_be2b3da3f62db62e9dad5dc70221a656>@@@@YAXW4__acrt_lock_id@@$$QAV<lambda_be2b3da3f62db62e9dad5dc70221a656>@@@Z 0048cef0 f i libucrtd:per_thread_data.obj
 0001:0008bf30       ??$__acrt_lock_and_call@V<lambda_e69574bed617af4e071282c136b37893>@@@@YAXW4__acrt_lock_id@@$$QAV<lambda_e69574bed617af4e071282c136b37893>@@@Z 0048cf30 f i libucrtd:per_thread_data.obj
 0001:0008c100       ??0?$__crt_unique_heap_ptr@U__acrt_ptd@@U__crt_internal_free_policy@@@@QAE@QAU__acrt_ptd@@@Z 0048d100 f i libucrtd:per_thread_data.obj
 0001:0008c120       ??0__crt_scoped_get_last_error_reset@@QAE@XZ 0048d120 f i libucrtd:per_thread_data.obj
 0001:0008c140       ??1?$__crt_unique_heap_ptr@U__acrt_ptd@@U__crt_internal_free_policy@@@@QAE@XZ 0048d140 f i libucrtd:per_thread_data.obj
 0001:0008c160       ??1__crt_scoped_get_last_error_reset@@QAE@XZ 0048d160 f i libucrtd:per_thread_data.obj
 0001:0008c180       ??B?$__crt_unique_heap_ptr@U__acrt_ptd@@U__crt_internal_free_policy@@@@QBE_NXZ 0048d180 f i libucrtd:per_thread_data.obj
 0001:0008c460       ?dangerous_get_state_array@?$dual_state_global@PAU__crt_locale_data@@@__crt_state_management@@QAEPAPAU__crt_locale_data@@XZ 0048d460 f i libucrtd:per_thread_data.obj
 0001:0008c5e0       ?detach@?$__crt_unique_heap_ptr@U__acrt_ptd@@U__crt_internal_free_policy@@@@QAEPAU__acrt_ptd@@XZ 0048d5e0 f i libucrtd:per_thread_data.obj
 0001:0008c610       ?get@?$__crt_unique_heap_ptr@U__acrt_ptd@@U__crt_internal_free_policy@@@@QBEPAU__acrt_ptd@@XZ 0048d610 f i libucrtd:per_thread_data.obj
 0001:0008c750       ?is_valid@?$__crt_unique_heap_ptr@U__acrt_ptd@@U__crt_internal_free_policy@@@@QBE_NXZ 0048d750 f i libucrtd:per_thread_data.obj
 0001:0008c780       ?release@?$__crt_unique_heap_ptr@U__acrt_ptd@@U__crt_internal_free_policy@@@@QAEXXZ 0048d780 f i libucrtd:per_thread_data.obj
 0001:0008c870       ___acrt_getptd             0048d870 f   libucrtd:per_thread_data.obj
 0001:0008c890       ___acrt_getptd_noexit      0048d890 f   libucrtd:per_thread_data.obj
 0001:0008c8a0       ___acrt_initialize_ptd     0048d8a0 f   libucrtd:per_thread_data.obj
 0001:0008c8e0       ___acrt_uninitialize_ptd   0048d8e0 f   libucrtd:per_thread_data.obj
 0001:0008c910       ___acrt_update_locale_info 0048d910 f   libucrtd:locale_update.obj
 0001:0008c950       ___acrt_update_multibyte_info 0048d950 f   libucrtd:locale_update.obj
 0001:0008c980       ?__acrt_fp_classify@@YA?AW4__acrt_fp_class@@ABN@Z 0048d980 f i libucrtd:cvt.obj
 0001:0008caa0       ?__acrt_fp_is_negative@@YA_NABN@Z 0048daa0 f i libucrtd:cvt.obj
 0001:0008db40       ?strrchr@@YAPADQADH@Z      0048eb40 f i libucrtd:cvt.obj
 0001:0008db60       ___acrt_fp_format          0048eb60 f   libucrtd:cvt.obj
 0001:0008df70       __get_printf_count_output  0048ef70 f   libucrtd:printf_count_output.obj
 0001:0008dfa0       __VCrtDbgReportA           0048efa0 f   libucrtd:dbgrptt.obj
 0001:0008e840       __VCrtDbgReportW           0048f840 f   libucrtd:dbgrptt.obj
 0001:0008f200       __snprintf_s               00490200 f i libucrtd:dbgrptt.obj
 0001:0008f250       __vsnprintf_s              00490250 f i libucrtd:dbgrptt.obj
 0001:0008f280       __vsnprintf_s_l            00490280 f i libucrtd:dbgrptt.obj
 0001:0008f2e0       __vsnwprintf_s             004902e0 f i libucrtd:dbgrptt.obj
 0001:0008f310       _wcslen                    00490310 f   libucrtd:wcslen.obj
 0001:0008f4d0       ??$message_box@$$TAAPB_WAAPB_WAAI@?$__crt_char_traits@_W@@SAH$$QA$$TAAPB_W1AAI@Z 004904d0 f i libucrtd:crtmbox.obj
 0001:0008f500       ??$message_box@$$TABQB_WABQB_WK@?$__crt_char_traits@_W@@SAH$$QA$$TABQB_W1$$QAK@Z 00490500 f i libucrtd:crtmbox.obj
 0001:0008f530       ??$message_box@PAUHWND__@@ABQB_WABQB_WABI@?$__crt_char_traits@_W@@SAH$$QAPAUHWND__@@ABQB_W1ABI@Z 00490530 f i libucrtd:crtmbox.obj
 0001:0008f5b0       ??$output_debug_string@ABQB_W@?$__crt_char_traits@_W@@SAXABQB_W@Z 004905b0 f i libucrtd:crtmbox.obj
 0001:0008f5d0       ??0?$__crt_unique_handle_t@U__crt_handle_traits@@@@QAE@QAX@Z 004905d0 f i libucrtd:crtmbox.obj
 0001:0008f5f0       ??1?$__crt_unique_handle_t@U__crt_handle_traits@@@@QAE@XZ 004905f0 f i libucrtd:crtmbox.obj
 0001:0008f610       ??B?$__crt_unique_handle_t@U__crt_handle_traits@@@@QBE_NXZ 00490610 f i libucrtd:crtmbox.obj
 0001:0008f630       ?close@?$__crt_unique_handle_t@U__crt_handle_traits@@@@QAEXXZ 00490630 f i libucrtd:crtmbox.obj
 0001:0008f670       ?close@__crt_handle_traits@@SA_NPAX@Z 00490670 f i libucrtd:crtmbox.obj
 0001:0008f6a0       ?get@?$__crt_unique_handle_t@U__crt_handle_traits@@@@QBEPAXXZ 004906a0 f i libucrtd:crtmbox.obj
 0001:0008f6c0       ?get_invalid_value@__crt_handle_traits@@SAPAXXZ 004906c0 f i libucrtd:crtmbox.obj
 0001:0008f6d0       ?is_valid@?$__crt_unique_handle_t@U__crt_handle_traits@@@@QBE_NXZ 004906d0 f i libucrtd:crtmbox.obj
 0001:0008f700       ___acrt_show_wide_message_box 00490700 f   libucrtd:crtmbox.obj
 0001:0008f720       ??$?B$$A6AXH@Z@__crt_fast_encoded_nullptr_t@@QBEP6AXH@ZXZ 00490720 f i libucrtd:signal.obj
 0001:0008f740       ??$?RV<lambda_a048d3beccc847880fc8490e18b82769>@@AAV<lambda_ec61778202f4f5fc7e7711acc23c3bca>@@V<lambda_f7496a158712204296dd6628a163878e>@@@?$__crt_seh_guarded_call@P6AXH@Z@@QAEP6AXH@Z$$QAV<lambda_a048d3beccc847880fc8490e18b82769>@@AAV<lambda_ec61778202f4f5fc7e7711acc23c3bca>@@$$QAV<lambda_f7496a158712204296dd6628a163878e>@@@Z 00490740 f i libucrtd:signal.obj
 0001:0008f7d0       ??$__acrt_lock_and_call@V<lambda_ec61778202f4f5fc7e7711acc23c3bca>@@@@YAP6AXH@ZW4__acrt_lock_id@@$$QAV<lambda_ec61778202f4f5fc7e7711acc23c3bca>@@@Z 004907d0 f i libucrtd:signal.obj
 0001:0008f810       ??$__crt_fast_decode_pointer@P6AXH@Z@@YAP6AXH@ZQ6AXH@Z@Z 00490810 f i libucrtd:signal.obj
 0001:0008f840       ??$__crt_fast_encode_pointer@P6AXH@Z@@YAP6AXH@ZQ6AXH@Z@Z 00490840 f i libucrtd:signal.obj
 0001:0008f9c0       ?initialize@?$dual_state_global@P6AXH@Z@__crt_state_management@@QAEXQ6AXH@Z@Z 004909c0 f i libucrtd:signal.obj
 0001:0008fa40       ?value@?$dual_state_global@P6AXH@Z@__crt_state_management@@QAEAAP6AXH@ZXZ 00490a40 f i libucrtd:signal.obj
 0001:0008fa60       ___acrt_get_sigabrt_handler 00490a60 f   libucrtd:signal.obj
 0001:0008fa80       ___acrt_initialize_signal_handlers 00490a80 f   libucrtd:signal.obj
 0001:0008fac0       ___fpecode                 00490ac0 f   libucrtd:signal.obj
 0001:0008fad0       _raise                     00490ad0 f   libucrtd:signal.obj
 0001:000903d0       ___acrt_AreFileApisANSI@0  004913d0 f   libucrtd:winapi_thunks.obj
 0001:00090420       ___acrt_FlsAlloc@4         00491420 f   libucrtd:winapi_thunks.obj
 0001:00090470       ___acrt_FlsFree@4          00491470 f   libucrtd:winapi_thunks.obj
 0001:000904d0       ___acrt_FlsGetValue@4      004914d0 f   libucrtd:winapi_thunks.obj
 0001:00090530       ___acrt_FlsSetValue@8      00491530 f   libucrtd:winapi_thunks.obj
 0001:00090590       ___acrt_InitializeCriticalSectionEx@12 00491590 f   libucrtd:winapi_thunks.obj
 0001:000905f0       ___acrt_LCMapStringEx@36   004915f0 f   libucrtd:winapi_thunks.obj
 0001:00090680       ___acrt_LocaleNameToLCID@8 00491680 f   libucrtd:winapi_thunks.obj
 0001:000906e0       ___acrt_MessageBoxW@16     004916e0 f   libucrtd:winapi_thunks.obj
 0001:00090740       ___acrt_can_show_message_box 00491740 f   libucrtd:winapi_thunks.obj
 0001:00090770       ___acrt_get_parent_window  00491770 f   libucrtd:winapi_thunks.obj
 0001:000907f0       ___acrt_initialize_winapi_thunks 004917f0 f   libucrtd:winapi_thunks.obj
 0001:00090860       ___acrt_is_interactive     00491860 f   libucrtd:winapi_thunks.obj
 0001:00090910       ___acrt_is_packaged_app    00491910 f   libucrtd:winapi_thunks.obj
 0001:00090a20       ___acrt_uninitialize_winapi_thunks 00491a20 f   libucrtd:winapi_thunks.obj
 0001:00090a90       __fcloseall                00491a90 f   libucrtd:closeall.obj
 0001:00090bc0       ___pctype_func             00491bc0 f   libucrtd:ctype.obj
 0001:00090c00       _iswctype                  00491c00 f   libucrtd:iswctype.obj
 0001:00090c70       __chvalidator              00491c70 f   libucrtd:isctype.obj
 0001:00090cc0       __chvalidator_l            00491cc0 f   libucrtd:isctype.obj
 0001:00090d60       __isctype_l                00491d60 f   libucrtd:isctype.obj
 0001:00090ee0       _fegetround                00491ee0 f   libucrtd:fegetround.obj
 0001:00090f10       ___acrt_strtok_s_novalidation 00491f10 f   libucrtd:strtok_s.obj
 0001:000910a0       __free_base                004920a0 f   libucrtd:free_base.obj
 0001:000910f0       __msize                    004920f0 f   libucrtd:msize.obj
 0001:00091110       __realloc_base             00492110 f   libucrtd:realloc_base.obj
 0001:00091200       __expand_base              00492200 f   libucrtd:expand.obj
 0001:00091330       __CrtDefaultAllocHook      00492330 f   libucrtd:debug_heap_hook.obj
 0001:00091340       ___acrt_initialize_heap    00492340 f   libucrtd:heap_handle.obj
 0001:00091370       ___acrt_uninitialize_heap  00492370 f   libucrtd:heap_handle.obj
 0001:00091b20       ??$find_first_file_ex@ABQADW4_FINDEX_INFO_LEVELS@@PAU_WIN32_FIND_DATAA@@W4_FINDEX_SEARCH_OPS@@$$TH@?$__crt_char_traits@D@@SAPAXABQAD$$QAW4_FINDEX_INFO_LEVELS@@$$QAPAU_WIN32_FIND_DATAA@@$$QAW4_FINDEX_SEARCH_OPS@@$$QA$$T$$QAH@Z 00492b20 f i libucrtd:argv_wildcards.obj
 0001:00091b60       ??$find_next_file@PAXPAU_WIN32_FIND_DATAA@@@?$__crt_char_traits@D@@SAH$$QAPAX$$QAPAU_WIN32_FIND_DATAA@@@Z 00492b60 f i libucrtd:argv_wildcards.obj
 0001:00091b80       ??$tcsncpy_s@AAPADIAAPADABI@?$__crt_char_traits@D@@SAHAAPAD$$QAI0ABI@Z 00492b80 f i libucrtd:argv_wildcards.obj
 0001:00091bb0       ??$tcsncpy_s@PAD$$CBIABQBDABI@?$__crt_char_traits@D@@SAH$$QAPAD$$QBIABQBDABI@Z 00492bb0 f i libucrtd:argv_wildcards.obj
 0001:00091be0       ??$tcsncpy_s@PADABIABQBDABI@?$__crt_char_traits@D@@SAH$$QAPADABIABQBD1@Z 00492be0 f i libucrtd:argv_wildcards.obj
 0001:00091c10       ??$tcspbrk@AAPADAAY02$$CBD@?$__crt_char_traits@D@@SAPADAAPADAAY02$$CBD@Z 00492c10 f i libucrtd:argv_wildcards.obj
 0001:00091c30       ??0?$__crt_unique_handle_t@U__crt_findfile_traits@@@@QAE@QAX@Z 00492c30 f i libucrtd:argv_wildcards.obj
 0001:00091c50       ??0?$argument_list@D@?A0x536e2c96@@QAE@XZ 00492c50 f i libucrtd:argv_wildcards.obj
 0001:00091c80       ??1?$__crt_unique_handle_t@U__crt_findfile_traits@@@@QAE@XZ 00492c80 f i libucrtd:argv_wildcards.obj
 0001:00091ca0       ??1?$argument_list@D@?A0x536e2c96@@QAE@XZ 00492ca0 f i libucrtd:argv_wildcards.obj
 0001:00091d50       ?append@?$argument_list@D@?A0x536e2c96@@QAEHQAD@Z 00492d50 f i libucrtd:argv_wildcards.obj
 0001:00091db0       ?begin@?$argument_list@D@?A0x536e2c96@@QBEPAPADXZ 00492db0 f i libucrtd:argv_wildcards.obj
 0001:00091dd0       ?close@?$__crt_unique_handle_t@U__crt_findfile_traits@@@@QAEXXZ 00492dd0 f i libucrtd:argv_wildcards.obj
 0001:00091e10       ?close@__crt_findfile_traits@@SA_NPAX@Z 00492e10 f i libucrtd:argv_wildcards.obj
 0001:00091e40       ?end@?$argument_list@D@?A0x536e2c96@@QBEPAPADXZ 00492e40 f i libucrtd:argv_wildcards.obj
 0001:00091e60       ?expand_if_necessary@?$argument_list@D@?A0x536e2c96@@AAEHXZ 00492e60 f i libucrtd:argv_wildcards.obj
 0001:00091fc0       ?get@?$__crt_unique_handle_t@U__crt_findfile_traits@@@@QBEPAXXZ 00492fc0 f i libucrtd:argv_wildcards.obj
 0001:00091fe0       ?get_invalid_value@__crt_findfile_traits@@SAPAXXZ 00492fe0 f i libucrtd:argv_wildcards.obj
 0001:00092010       ?size@?$argument_list@D@?A0x536e2c96@@QBEIXZ 00493010 f i libucrtd:argv_wildcards.obj
 0001:00092030       ?strpbrk@@YAPADQADQBD@Z    00493030 f i libucrtd:argv_wildcards.obj
 0001:00092050       ___acrt_expand_narrow_argv_wildcards 00493050 f   libucrtd:argv_wildcards.obj
 0001:00092070       ??$?RV<lambda_694f386f8d9a4d7d5afe1ac229f209db>@@AAV<lambda_2f900415df1f7f624cdaaefe86d0b1c0>@@V<lambda_17c2d007e408fdf31ce10a4c853c6ffa>@@@?$__crt_seh_guarded_call@X@@QAEX$$QAV<lambda_694f386f8d9a4d7d5afe1ac229f209db>@@AAV<lambda_2f900415df1f7f624cdaaefe86d0b1c0>@@$$QAV<lambda_17c2d007e408fdf31ce10a4c853c6ffa>@@@Z 00493070 f i libucrtd:mbctype.obj
 0001:000920f0       ??$__acrt_lock_and_call@V<lambda_2f900415df1f7f624cdaaefe86d0b1c0>@@@@YAXW4__acrt_lock_id@@$$QAV<lambda_2f900415df1f7f624cdaaefe86d0b1c0>@@@Z 004930f0 f i libucrtd:mbctype.obj
 0001:00092a20       ___acrt_initialize_multibyte 00493a20 f   libucrtd:mbctype.obj
 0001:00092a50       ___acrt_update_thread_multibyte_data 00493a50 f   libucrtd:mbctype.obj
 0001:00092b60       __setmbcp_nolock           00493b60 f   libucrtd:mbctype.obj
 0001:00093043       __ismbblead                00494043 f   libucrtd:ismbbyte.obj
 0001:00093060       ___acrt_initialize_command_line 00494060 f   libucrtd:argv_data.obj
 0001:00093080       ___acrt_uninitialize_command_line 00494080 f   libucrtd:argv_data.obj
 0001:000930c0       ___dcrt_get_narrow_environment_from_os 004940c0 f   libucrtd:get_environment_from_os.obj
 0001:00093160       ___acrt_execute_initializers 00494160 f   libucrtd:shared_initialization.obj
 0001:00093230       ___acrt_execute_uninitializers 00494230 f   libucrtd:shared_initialization.obj
 0001:000932a0       __set_error_mode           004942a0 f   libucrtd:set_error_mode.obj
 0001:00093780       _wcscat_s                  00494780 f   libucrtd:wcscat_s.obj
 0001:00093bd0       _wcsncpy_s                 00494bd0 f   libucrtd:wcsncpy_s.obj
 0001:00093bf0       ??$?RU__crt_lowio_handle_data@@@__crt_internal_free_policy@@QBEXQBU__crt_lowio_handle_data@@@Z 00494bf0 f i libucrtd:osfinfo.obj
 0001:00093c10       ??0?$__crt_unique_heap_ptr@U__crt_lowio_handle_data@@U__crt_internal_free_policy@@@@QAE@QAU__crt_lowio_handle_data@@@Z 00494c10 f i libucrtd:osfinfo.obj
 0001:00093c30       ??1?$__crt_unique_heap_ptr@U__crt_lowio_handle_data@@U__crt_internal_free_policy@@@@QAE@XZ 00494c30 f i libucrtd:osfinfo.obj
 0001:00093c50       ??B?$__crt_unique_heap_ptr@U__crt_lowio_handle_data@@U__crt_internal_free_policy@@@@QBE_NXZ 00494c50 f i libucrtd:osfinfo.obj
 0001:00093c70       ?detach@?$__crt_unique_heap_ptr@U__crt_lowio_handle_data@@U__crt_internal_free_policy@@@@QAEPAU__crt_lowio_handle_data@@XZ 00494c70 f i libucrtd:osfinfo.obj
 0001:00093ca0       ?get@?$__crt_unique_heap_ptr@U__crt_lowio_handle_data@@U__crt_internal_free_policy@@@@QBEPAU__crt_lowio_handle_data@@XZ 00494ca0 f i libucrtd:osfinfo.obj
 0001:00093cc0       ?is_valid@?$__crt_unique_heap_ptr@U__crt_lowio_handle_data@@U__crt_internal_free_policy@@@@QBE_NXZ 00494cc0 f i libucrtd:osfinfo.obj
 0001:00093cf0       ?release@?$__crt_unique_heap_ptr@U__crt_lowio_handle_data@@U__crt_internal_free_policy@@@@QAEXXZ 00494cf0 f i libucrtd:osfinfo.obj
 0001:00093d20       ___acrt_lowio_create_handle_array 00494d20 f   libucrtd:osfinfo.obj
 0001:00093e60       ___acrt_lowio_destroy_handle_array 00494e60 f   libucrtd:osfinfo.obj
 0001:00093ec0       ___acrt_lowio_ensure_fh_exists 00494ec0 f   libucrtd:osfinfo.obj
 0001:00094020       ___acrt_lowio_lock_fh      00495020 f   libucrtd:osfinfo.obj
 0001:00094050       ___acrt_lowio_set_os_handle 00495050 f   libucrtd:osfinfo.obj
 0001:00094120       ___acrt_lowio_unlock_fh    00495120 f   libucrtd:osfinfo.obj
 0001:00094150       __alloc_osfhnd             00495150 f   libucrtd:osfinfo.obj
 0001:00094330       __free_osfhnd              00495330 f   libucrtd:osfinfo.obj
 0001:00094420       __get_osfhandle            00495420 f   libucrtd:osfinfo.obj
 0001:000945a0       ___acrt_locale_free_monetary 004955a0 f   libucrtd:initmon.obj
 0001:00094750       ___acrt_locale_free_numeric 00495750 f   libucrtd:initnum.obj
 0001:00094900       ___acrt_locale_free_time   00495900 f   libucrtd:inittime.obj
 0001:00094a50       ??0?$__crt_scoped_stack_ptr@_W@@QAE@U?$__crt_scoped_stack_ptr_tag@_W@@@Z 00495a50 f i libucrtd:getstringtypea.obj
 0001:00094a70       ??0?$__crt_scoped_stack_ptr_tag@_W@@QAE@QA_W@Z 00495a70 f i libucrtd:getstringtypea.obj
 0001:00094a90       ??1?$__crt_scoped_stack_ptr@_W@@QAE@XZ 00495a90 f i libucrtd:getstringtypea.obj
 0001:00094ab0       ?get@?$__crt_scoped_stack_ptr@_W@@QBEPA_WXZ 00495ab0 f i libucrtd:getstringtypea.obj
 0001:00094ad0       __MallocaComputeSize       00495ad0 f i libucrtd:getstringtypea.obj
 0001:00094b00       __MarkAllocaS              00495b00 f i libucrtd:getstringtypea.obj
 0001:00094b30       ___acrt_GetStringTypeA     00495b30 f   libucrtd:getstringtypea.obj
 0001:00094ce0       __freea_crt                00495ce0 f i libucrtd:getstringtypea.obj
 0001:00094d50       ___acrt_add_locale_ref     00495d50 f   libucrtd:locale_refcounting.obj
 0001:00094e50       ___acrt_free_locale        00495e50 f   libucrtd:locale_refcounting.obj
 0001:00095110       ___acrt_locale_add_lc_time_reference 00496110 f   libucrtd:locale_refcounting.obj
 0001:00095150       ___acrt_locale_free_lc_time_if_unreferenced 00496150 f   libucrtd:locale_refcounting.obj
 0001:000951a0       ___acrt_locale_release_lc_time_reference 004961a0 f   libucrtd:locale_refcounting.obj
 0001:000951d0       ___acrt_release_locale_ref 004961d0 f   libucrtd:locale_refcounting.obj
 0001:000952e0       ___acrt_update_thread_locale_data 004962e0 f   libucrtd:locale_refcounting.obj
 0001:000953b0       __updatetlocinfoEx_nolock  004963b0 f   libucrtd:locale_refcounting.obj
 0001:0009542c       __mbsdec                   0049642c f   libucrtd:mbsdec.obj
 0001:00095443       __mbsdec_l                 00496443 f   libucrtd:mbsdec.obj
 0001:00095940       _strncpy_s                 00496940 f   libucrtd:strncpy_s.obj
 0001:00095f20       __clearfp                  00496f20 f   libucrtd:ieee87.obj
 0001:00095f70       __control87                00496f70 f   libucrtd:ieee87.obj
 0001:00096180       __isatty                   00497180 f   libucrtd:isatty.obj
 0001:00096250       ___acrt_stdio_allocate_buffer_nolock 00497250 f   libucrtd:_getbuf.obj
 0001:00096360       __putwch_nolock            00497360 f   libucrtd:putwch.obj
 0001:000963b0       ??$?RV<lambda_a7d5e04a8e766f2a135287cf7b01dfe7>@@AAV<lambda_e9ab68cc08dfd839979545c079379e6e>@@V<lambda_14e08a59e78d15c51edeee53d25fb3be>@@@?$__crt_seh_guarded_call@H@@QAEH$$QAV<lambda_a7d5e04a8e766f2a135287cf7b01dfe7>@@AAV<lambda_e9ab68cc08dfd839979545c079379e6e>@@$$QAV<lambda_14e08a59e78d15c51edeee53d25fb3be>@@@Z 004973b0 f i libucrtd:commit.obj
 0001:00096440       ??$__acrt_lowio_lock_fh_and_call@V<lambda_e9ab68cc08dfd839979545c079379e6e>@@@@YAHH$$QAV<lambda_e9ab68cc08dfd839979545c079379e6e>@@@Z 00497440 f i libucrtd:commit.obj
 0001:000965c0       __commit                   004975c0 f   libucrtd:commit.obj
 0001:00096720       _strncmp                   00497720 f   libucrtd:strncmp.obj
 0001:000967a0       __strnicmp                 004977a0 f   libucrtd:strnicmp.obj
 0001:00096970       __strnicmp_l               00497970 f   libucrtd:strnicmp.obj
 0001:00096ea0       ??$tsopen_nolock@PAHABQAHABQBDABHABHABHABH@?$__crt_char_traits@D@@SAH$$QAPAHABQAHABQBDABH333@Z 00497ea0 f i libucrtd:open.obj
 0001:00097a10       __sopen_dispatch           00498a10 f   libucrtd:open.obj
 0001:00097a40       __sopen_nolock             00498a40 f   libucrtd:open.obj
 0001:00097ab0       __sopen_s                  00498ab0 f   libucrtd:open.obj
 0001:00097ae0       __wsopen_nolock            00498ae0 f   libucrtd:open.obj
 0001:00098070       __isleadbyte_l             00499070 f i libucrtd:_wctype.obj
 0001:000980b0       ??B?$__crt_scoped_stack_ptr@_W@@QBE_NXZ 004990b0 f i libucrtd:lcmapstringa.obj
 0001:000984a0       ___acrt_LCMapStringA       004994a0 f   libucrtd:lcmapstringa.obj
 0001:00098500       ___acrt_fp_strflt_to_string 00499500 f   libucrtd:_fptostr.obj
 0001:00098e50       ??0scoped_fp_state_reset@?A0x48fbfdd4@@QAE@XZ 00499e50 f i libucrtd:cfout.obj
 0001:00098ea0       ??1scoped_fp_state_reset@?A0x48fbfdd4@@QAE@XZ 00499ea0 f i libucrtd:cfout.obj
 0001:00098ed0       ??8__crt_strtox@@YA_NABUbig_integer@0@0@Z 00499ed0 f i libucrtd:cfout.obj
 0001:00098f30       ??9__crt_strtox@@YA_NABUbig_integer@0@0@Z 00499f30 f i libucrtd:cfout.obj
 0001:00098f70       ?is_zero@__crt_strtox@@YA_NABUbig_integer@1@@Z 00499f70 f i libucrtd:cfout.obj
 0001:00098fa0       ?make_big_integer_power_of_two@__crt_strtox@@YA?AUbig_integer@1@I@Z 00499fa0 f i libucrtd:cfout.obj
 0001:00099050       ___acrt_fltout             0049a050 f   libucrtd:cfout.obj
 0001:00099b40       __itoa_s                   0049ab40 f   libucrtd:xtoa.obj
 0001:00099b90       __itow_s                   0049ab90 f   libucrtd:xtoa.obj
 0001:00099f70       __mbstowcs_s_l             0049af70 f   libucrtd:mbstowcs.obj
 0001:0009a330       _mbstowcs_s                0049b330 f   libucrtd:mbstowcs.obj
 0001:0009a9c0       __wcstombs_s_l             0049b9c0 f   libucrtd:wcstombs.obj
 0001:0009ad30       _wcstombs_s                0049bd30 f   libucrtd:wcstombs.obj
 0001:0009b170       _strcat_s                  0049c170 f   libucrtd:strcat_s.obj
 0001:0009b2f0       ___acrt_DownlevelLocaleNameToLCID 0049c2f0 f   libucrtd:lcidtoname_downlevel.obj
 0001:0009b8d0       __getfpcontrolword         0049c8d0 f   libucrtd:_fenvutils.obj
 0001:0009b920       __getfpstatusword          0049c920 f   libucrtd:_fenvutils.obj
 0001:0009b970       __setfpcontrolword         0049c970 f   libucrtd:_fenvutils.obj
 0001:0009ba30       __setfpstatusword          0049ca30 f   libucrtd:_fenvutils.obj
 0001:0009baf0       __malloc_base              0049caf0 f   libucrtd:malloc_base.obj
 0001:0009bb80       ??1scoped_global_state_reset@__crt_state_management@@QAE@XZ 0049cb80 f i libucrtd:qsort.obj
 0001:0009bcc0       _qsort                     0049ccc0 f   libucrtd:qsort.obj
 0001:0009c340       _strpbrk                   0049d340 f   libucrtd:strpbrk.obj
 0001:0009c3b0       ___set_fpsr_sse2           0049d3b0 f   libucrtd:fpctrl.obj
 0001:0009c490       __clrfp                    0049d490 f   libucrtd:fpctrl.obj
 0001:0009c4b0       __ctrlfp                   0049d4b0 f   libucrtd:fpctrl.obj
 0001:0009c4e0       __set_statfp               0049d4e0 f   libucrtd:fpctrl.obj
 0001:0009c550       __statfp                   0049d550 f   libucrtd:fpctrl.obj
 0001:0009c562       ___dcrt_lowio_initialize_console_output 0049d562 f   libucrtd:initcon.obj
 0001:0009c581       ___dcrt_terminate_console_output 0049d581 f   libucrtd:initcon.obj
 0001:0009c5a0       ___ascii_strnicmp          0049d5a0 f   libucrtd:_strnicm.obj
 0001:0009c610       ___acrt_copy_path_to_wide_string 0049d610 f   libucrtd:string_utilities.obj
 0001:0009c830       __chsize_nolock            0049d830 f   libucrtd:chsize.obj
 0001:0009caa0       ___strncnt                 0049daa0 f   libucrtd:strncnt.obj
 0001:0009caf0       _log10                     0049daf0 f   libucrtd:log10.obj
 0001:0009cb30       __CIlog10                  0049db30 f   libucrtd:log10.obj
 0001:0009cb6b       __CIlog10_default          0049db6b f   libucrtd:log10.obj
 0001:0009cb7f       __log10_default            0049db7f     libucrtd:log10.obj
 0001:0009cc40       _ceil                      0049dc40 f   libucrtd:ceil_pentium4.obj
 0001:0009cc80       __ceil_pentium4            0049dc80 f   libucrtd:ceil_pentium4.obj
 0001:0009cd60       _fegetenv                  0049dd60 f   libucrtd:fegetenv.obj
 0001:0009cd80       _fesetenv                  0049dd80 f   libucrtd:fesetenv.obj
 0001:0009cdf0       _feholdexcept              0049ddf0 f   libucrtd:feholdexcept.obj
 0001:0009ce60       ___acrt_initialize_sse2    0049de60 f   libucrtd:mathfcns.obj
 0001:0009ce80       __CIlog10_pentium4         0049de80 f   libucrtd:log10_pentium4.obj
 0001:0009ce98       __log10_pentium4           0049de98     libucrtd:log10_pentium4.obj
 0001:0009d121       __fFEXP                    0049e121     libucrtd:87tran.obj
 0001:0009d178       __rtinfpopse               0049e178     libucrtd:87tran.obj
 0001:0009d17a       __rtinfnpopse              0049e17a     libucrtd:87tran.obj
 0001:0009d18a       __fFLN                     0049e18a     libucrtd:87tran.obj
 0001:0009d23f       __rtinfpop                 0049e23f     libucrtd:87tran.obj
 0001:0009d241       __rtinfnpop                0049e241     libucrtd:87tran.obj
 0001:0009d25e       __ffexpm1                  0049e25e     libucrtd:87tran.obj
 0001:0009d310       __trandisp1                0049e310 f   libucrtd:87disp.obj
 0001:0009d377       __trandisp2                0049e377 f   libucrtd:87disp.obj
 0001:0009d403       __rttospopde               0049e403     libucrtd:87disp.obj
 0001:0009d408       __rttospop                 0049e408     libucrtd:87disp.obj
 0001:0009d40a       __rtnospop                 0049e40a     libucrtd:87disp.obj
 0001:0009d40c       __rttosnpop                0049e40c     libucrtd:87disp.obj
 0001:0009d40d       __rtnospopde               0049e40d     libucrtd:87disp.obj
 0001:0009d414       __rtzeropop                0049e414     libucrtd:87disp.obj
 0001:0009d416       __rtzeronpop               0049e416     libucrtd:87disp.obj
 0001:0009d41b       __rtzerospop               0049e41b     libucrtd:87disp.obj
 0001:0009d428       __rtonepop                 0049e428     libucrtd:87disp.obj
 0001:0009d42a       __rtonenpop                0049e42a     libucrtd:87disp.obj
 0001:0009d42f       __tosnan1                  0049e42f     libucrtd:87disp.obj
 0001:0009d45a       __nosnan2                  0049e45a     libucrtd:87disp.obj
 0001:0009d45c       __tosnan2                  0049e45c     libucrtd:87disp.obj
 0001:0009d484       __nan2                     0049e484     libucrtd:87disp.obj
 0001:0009d4c3       __rtindfpop                0049e4c3     libucrtd:87disp.obj
 0001:0009d4c5       __rtindfnpop               0049e4c5     libucrtd:87disp.obj
 0001:0009d4d6       __rttosnpopde              0049e4d6     libucrtd:87disp.obj
 0001:0009d4e0       __rtatan2inf               0049e4e0     libucrtd:87disp.obj
 0001:0009d4fd       __rtchsifneg               0049e4fd     libucrtd:87disp.obj
 0001:0009d510       __twoToTOS                 0049e510 f   libucrtd:common.obj
 0001:0009d525       __load_CW                  0049e525 f   libucrtd:common.obj
 0001:0009d53c       __convertTOStoQNaN         0049e53c f   libucrtd:common.obj
 0001:0009d555       __fload_withFB             0049e555 f   libucrtd:common.obj
 0001:0009d598       __checkTOS_withFB          0049e598 f   libucrtd:common.obj
 0001:0009d5ae       __fast_exit                0049e5ae f   libucrtd:common.obj
 0001:0009d5bb       __math_exit                0049e5bb f   libucrtd:common.obj
 0001:0009d5e5       __check_overflow_exit      0049e5e5 f   libucrtd:common.obj
 0001:0009d5f9       __check_range_exit         0049e5f9 f   libucrtd:common.obj
 0001:0009d6a0       __startTwoArgErrorHandling 0049e6a0 f   libucrtd:genexcep.obj
 0001:0009d6b7       __startOneArgErrorHandling 0049e6b7 f   libucrtd:genexcep.obj
 0001:0009d700       ___libm_error_support      0049e700 f   libucrtd:libm_error.obj
 0001:0009dcd0       __ceil_default             0049ecd0 f   libucrtd:ceil.obj
 0001:0009ddf0       __d_inttype                0049edf0 f   libucrtd:powhlp.obj
 0001:0009de80       __powhlp                   0049ee80 f   libucrtd:powhlp.obj
 0001:0009e020       __87except                 0049f020 f   libucrtd:87except.obj
 0001:0009e210       __frnd                     0049f210 f   libucrtd:frnd.obj
 0001:0009e230       __errcode                  0049f230 f   libucrtd:fpexcept.obj
 0001:0009e2a0       __except1                  0049f2a0 f   libucrtd:fpexcept.obj
 0001:0009e3f0       __handle_exc               0049f3f0 f   libucrtd:fpexcept.obj
 0001:0009e710       __raise_exc                0049f710 f   libucrtd:fpexcept.obj
 0001:0009e740       __raise_exc_ex             0049f740 f   libucrtd:fpexcept.obj
 0001:0009ecc0       __set_errno_from_matherr   0049fcc0 f   libucrtd:fpexcept.obj
 0001:0009ed00       __umatherr                 0049fd00 f   libucrtd:fpexcept.obj
 0001:0009eda0       __decomp                   0049fda0 f   libucrtd:util.obj
 0001:0009eed0       __set_exp                  0049fed0 f   libucrtd:util.obj
 0001:0009ef10       __sptype                   0049ff10 f   libucrtd:util.obj
 0001:0009ef90       __fpclass                  0049ff90 f   libucrtd:ieeemisc.obj
 0001:0009f082       _IsProcessorFeaturePresent@4 004a0082 f   kernel32:KERNEL32.dll
 0001:0009f088       _RtlUnwind@16              004a0088 f   kernel32:KERNEL32.dll
 0001:0009f090       __FindPESection            004a0090 f   LIBCMTD:pesect.obj
 0001:0009f110       __IsNonwritableInCurrentImage 004a0110 f   LIBCMTD:pesect.obj
 0001:0009f240       __ValidateImageBase        004a0240 f   LIBCMTD:pesect.obj
 0001:0009f2a0       __allshl                   004a02a0 f   LIBCMTD:llshl.obj
 0001:0009f2c0       __aulldiv                  004a02c0 f   LIBCMTD:ulldiv.obj
 0001:0009f330       __aullrem                  004a0330 f   LIBCMTD:ullrem.obj
 0001:0009f3b0       __alldiv                   004a03b0 f   LIBCMTD:lldiv.obj
 0001:0009f460       __allmul                   004a0460 f   LIBCMTD:llmul.obj
 0001:0009f4a0       __aullshr                  004a04a0 f   LIBCMTD:ullshr.obj
 0001:0009f4c0       __allrem                   004a04c0 f   LIBCMTD:llrem.obj
 0001:0009f580       __SEH_prolog4              004a0580 f   LIBCMTD:_sehprolg4_.obj
 0001:0009f5c6       __SEH_epilog4              004a05c6 f   LIBCMTD:_sehprolg4_.obj
 0001:0009f5e0       __ftol2_sse                004a05e0 f   LIBCMTD:_ftol2_.obj
 0001:0009f5e9       __ftol2_pentium4           004a05e9 f   LIBCMTD:_ftol2_.obj
 0001:0009f5fc       __ftol2_sse_excpt          004a05fc f   LIBCMTD:_ftol2_.obj
 0001:0009f620       __ftol2                    004a0620 f   LIBCMTD:_ftol2_.obj
 0001:0009f6a0       _strrchr                   004a06a0 f   libvcruntimed:strrchr.obj
 0001:0009f7e0       _strchr                    004a07e0 f   libvcruntimed:strchr.obj
 0001:0009f84e       ___from_strstr_to_strchr   004a084e     libvcruntimed:strchr.obj
 0002:00000000       __imp__GetOpenFileNameA@4  004a5000     comdlg32:COMDLG32.dll
 0002:00000004       \177COMDLG32_NULL_THUNK_DATA 004a5004     comdlg32:COMDLG32.dll
 0002:00000008       __imp__SetDIBColorTable@16 004a5008     gdi32:GDI32.dll
 0002:0000000c       __imp__GetDIBColorTable@16 004a500c     gdi32:GDI32.dll
 0002:00000010       __imp__TextOutA@20         004a5010     gdi32:GDI32.dll
 0002:00000014       __imp__SetBkMode@8         004a5014     gdi32:GDI32.dll
 0002:00000018       __imp__GetStockObject@4    004a5018     gdi32:GDI32.dll
 0002:0000001c       __imp__BitBlt@36           004a501c     gdi32:GDI32.dll
 0002:00000020       __imp__GetObjectA@12       004a5020     gdi32:GDI32.dll
 0002:00000024       __imp__CreateDIBSection@24 004a5024     gdi32:GDI32.dll
 0002:00000028       __imp__SelectObject@8      004a5028     gdi32:GDI32.dll
 0002:0000002c       __imp__GetCurrentObject@8  004a502c     gdi32:GDI32.dll
 0002:00000030       __imp__GetBitmapBits@12    004a5030     gdi32:GDI32.dll
 0002:00000034       __imp__DeleteObject@4      004a5034     gdi32:GDI32.dll
 0002:00000038       __imp__DeleteDC@4          004a5038     gdi32:GDI32.dll
 0002:0000003c       __imp__CreateSolidBrush@4  004a503c     gdi32:GDI32.dll
 0002:00000040       __imp__CreateCompatibleDC@4 004a5040     gdi32:GDI32.dll
 0002:00000044       __imp__SetTextColor@8      004a5044     gdi32:GDI32.dll
 0002:00000048       \177GDI32_NULL_THUNK_DATA  004a5048     gdi32:GDI32.dll
 0002:0000004c       __imp__FindFirstFileExA@24 004a504c     kernel32:KERNEL32.dll
 0002:00000050       __imp__FindClose@4         004a5050     kernel32:KERNEL32.dll
 0002:00000054       __imp__HeapQueryInformation@20 004a5054     kernel32:KERNEL32.dll
 0002:00000058       __imp__HeapSize@12         004a5058     kernel32:KERNEL32.dll
 0002:0000005c       __imp__HeapReAlloc@16      004a505c     kernel32:KERNEL32.dll
 0002:00000060       __imp__GetStringTypeW@16   004a5060     kernel32:KERNEL32.dll
 0002:00000064       __imp__LCMapStringW@24     004a5064     kernel32:KERNEL32.dll
 0002:00000068       __imp__FindNextFileA@8     004a5068     kernel32:KERNEL32.dll
 0002:0000006c       __imp__CreateThread@24     004a506c     kernel32:KERNEL32.dll
 0002:00000070       __imp__WaitForSingleObjectEx@12 004a5070     kernel32:KERNEL32.dll
 0002:00000074       __imp__WriteConsoleW@20    004a5074     kernel32:KERNEL32.dll
 0002:00000078       __imp__OutputDebugStringW@4 004a5078     kernel32:KERNEL32.dll
 0002:0000007c       __imp__OutputDebugStringA@4 004a507c     kernel32:KERNEL32.dll
 0002:00000080       __imp__SetFilePointerEx@20 004a5080     kernel32:KERNEL32.dll
 0002:00000084       __imp__ReadConsoleW@20     004a5084     kernel32:KERNEL32.dll
 0002:00000088       __imp__CloseHandle@4       004a5088     kernel32:KERNEL32.dll
 0002:0000008c       __imp__GetConsoleMode@8    004a508c     kernel32:KERNEL32.dll
 0002:00000090       __imp__IsValidCodePage@4   004a5090     kernel32:KERNEL32.dll
 0002:00000094       __imp__GetOEMCP@0          004a5094     kernel32:KERNEL32.dll
 0002:00000098       __imp__GetCPInfo@8         004a5098     kernel32:KERNEL32.dll
 0002:0000009c       __imp__GetCommandLineA@0   004a509c     kernel32:KERNEL32.dll
 0002:000000a0       __imp__GetCommandLineW@0   004a50a0     kernel32:KERNEL32.dll
 0002:000000a4       __imp__GetEnvironmentStringsW@0 004a50a4     kernel32:KERNEL32.dll
 0002:000000a8       __imp__FreeEnvironmentStringsW@4 004a50a8     kernel32:KERNEL32.dll
 0002:000000ac       __imp__SetStdHandle@8      004a50ac     kernel32:KERNEL32.dll
 0002:000000b0       __imp__FlushFileBuffers@4  004a50b0     kernel32:KERNEL32.dll
 0002:000000b4       __imp__CreateFileW@28      004a50b4     kernel32:KERNEL32.dll
 0002:000000b8       __imp__SetEndOfFile@4      004a50b8     kernel32:KERNEL32.dll
 0002:000000bc       __imp__GetCurrentDirectoryA@8 004a50bc     kernel32:KERNEL32.dll
 0002:000000c0       __imp__GetLastError@0      004a50c0     kernel32:KERNEL32.dll
 0002:000000c4       __imp__Sleep@4             004a50c4     kernel32:KERNEL32.dll
 0002:000000c8       __imp__CopyFileA@12        004a50c8     kernel32:KERNEL32.dll
 0002:000000cc       __imp__DeleteFileA@4       004a50cc     kernel32:KERNEL32.dll
 0002:000000d0       __imp__GetConsoleCP@0      004a50d0     kernel32:KERNEL32.dll
 0002:000000d4       __imp__GetFileType@4       004a50d4     kernel32:KERNEL32.dll
 0002:000000d8       __imp__EnterCriticalSection@4 004a50d8     kernel32:KERNEL32.dll
 0002:000000dc       __imp__LeaveCriticalSection@4 004a50dc     kernel32:KERNEL32.dll
 0002:000000e0       __imp__DeleteCriticalSection@4 004a50e0     kernel32:KERNEL32.dll
 0002:000000e4       __imp__SetLastError@4      004a50e4     kernel32:KERNEL32.dll
 0002:000000e8       __imp__InitializeCriticalSectionAndSpinCount@8 004a50e8     kernel32:KERNEL32.dll
 0002:000000ec       __imp__TlsAlloc@0          004a50ec     kernel32:KERNEL32.dll
 0002:000000f0       __imp__TlsGetValue@4       004a50f0     kernel32:KERNEL32.dll
 0002:000000f4       __imp__TlsSetValue@8       004a50f4     kernel32:KERNEL32.dll
 0002:000000f8       __imp__TlsFree@4           004a50f8     kernel32:KERNEL32.dll
 0002:000000fc       __imp__GetSystemTimeAsFileTime@4 004a50fc     kernel32:KERNEL32.dll
 0002:00000100       __imp__GetModuleHandleW@4  004a5100     kernel32:KERNEL32.dll
 0002:00000104       __imp__GetProcAddress@8    004a5104     kernel32:KERNEL32.dll
 0002:00000108       __imp__UnhandledExceptionFilter@4 004a5108     kernel32:KERNEL32.dll
 0002:0000010c       __imp__SetUnhandledExceptionFilter@4 004a510c     kernel32:KERNEL32.dll
 0002:00000110       __imp__GetCurrentProcess@0 004a5110     kernel32:KERNEL32.dll
 0002:00000114       __imp__TerminateProcess@8  004a5114     kernel32:KERNEL32.dll
 0002:00000118       __imp__IsProcessorFeaturePresent@4 004a5118     kernel32:KERNEL32.dll
 0002:0000011c       __imp__IsDebuggerPresent@0 004a511c     kernel32:KERNEL32.dll
 0002:00000120       __imp__RaiseException@16   004a5120     kernel32:KERNEL32.dll
 0002:00000124       __imp__MultiByteToWideChar@24 004a5124     kernel32:KERNEL32.dll
 0002:00000128       __imp__WideCharToMultiByte@32 004a5128     kernel32:KERNEL32.dll
 0002:0000012c       __imp__GetStartupInfoW@4   004a512c     kernel32:KERNEL32.dll
 0002:00000130       __imp__HeapAlloc@12        004a5130     kernel32:KERNEL32.dll
 0002:00000134       __imp__HeapFree@12         004a5134     kernel32:KERNEL32.dll
 0002:00000138       __imp__GetProcessHeap@0    004a5138     kernel32:KERNEL32.dll
 0002:0000013c       __imp__VirtualQuery@12     004a513c     kernel32:KERNEL32.dll
 0002:00000140       __imp__FreeLibrary@4       004a5140     kernel32:KERNEL32.dll
 0002:00000144       __imp__QueryPerformanceCounter@4 004a5144     kernel32:KERNEL32.dll
 0002:00000148       __imp__GetCurrentProcessId@0 004a5148     kernel32:KERNEL32.dll
 0002:0000014c       __imp__GetCurrentThreadId@0 004a514c     kernel32:KERNEL32.dll
 0002:00000150       __imp__InitializeSListHead@4 004a5150     kernel32:KERNEL32.dll
 0002:00000154       __imp__RtlUnwind@16        004a5154     kernel32:KERNEL32.dll
 0002:00000158       __imp__GetModuleFileNameW@12 004a5158     kernel32:KERNEL32.dll
 0002:0000015c       __imp__LoadLibraryExW@12   004a515c     kernel32:KERNEL32.dll
 0002:00000160       __imp__EncodePointer@4     004a5160     kernel32:KERNEL32.dll
 0002:00000164       __imp__GetModuleFileNameA@12 004a5164     kernel32:KERNEL32.dll
 0002:00000168       __imp__GetModuleHandleExW@12 004a5168     kernel32:KERNEL32.dll
 0002:0000016c       __imp__ReadFile@20         004a516c     kernel32:KERNEL32.dll
 0002:00000170       __imp__HeapValidate@12     004a5170     kernel32:KERNEL32.dll
 0002:00000174       __imp__GetSystemInfo@4     004a5174     kernel32:KERNEL32.dll
 0002:00000178       __imp__ExitProcess@4       004a5178     kernel32:KERNEL32.dll
 0002:0000017c       __imp__GetStdHandle@4      004a517c     kernel32:KERNEL32.dll
 0002:00000180       __imp__WriteFile@20        004a5180     kernel32:KERNEL32.dll
 0002:00000184       __imp__GetACP@0            004a5184     kernel32:KERNEL32.dll
 0002:00000188       __imp__DecodePointer@4     004a5188     kernel32:KERNEL32.dll
 0002:0000018c       \177KERNEL32_NULL_THUNK_DATA 004a518c     kernel32:KERNEL32.dll
 0002:00000190       __imp__ShellExecuteA@24    004a5190     shell32:SHELL32.dll
 0002:00000194       \177SHELL32_NULL_THUNK_DATA 004a5194     shell32:SHELL32.dll
 0002:00000198       __imp__EnableMenuItem@12   004a5198     user32:USER32.dll
 0002:0000019c       __imp__GetMenu@4           004a519c     user32:USER32.dll
 0002:000001a0       __imp__GetWindow@8         004a51a0     user32:USER32.dll
 0002:000001a4       __imp__SetTimer@16         004a51a4     user32:USER32.dll
 0002:000001a8       __imp__CallWindowProcA@20  004a51a8     user32:USER32.dll
 0002:000001ac       __imp__DialogBoxParamA@20  004a51ac     user32:USER32.dll
 0002:000001b0       __imp__GetMessagePos@0     004a51b0     user32:USER32.dll
 0002:000001b4       __imp__SetParent@8         004a51b4     user32:USER32.dll
 0002:000001b8       __imp__SetWindowLongA@12   004a51b8     user32:USER32.dll
 0002:000001bc       __imp__GetWindowLongA@8    004a51bc     user32:USER32.dll
 0002:000001c0       __imp__GetSysColorBrush@4  004a51c0     user32:USER32.dll
 0002:000001c4       __imp__DestroyWindow@4     004a51c4     user32:USER32.dll
 0002:000001c8       __imp__LoadIconA@8         004a51c8     user32:USER32.dll
 0002:000001cc       __imp__EndDialog@8         004a51cc     user32:USER32.dll
 0002:000001d0       __imp__CreateDialogParamA@20 004a51d0     user32:USER32.dll
 0002:000001d4       __imp__PostMessageA@16     004a51d4     user32:USER32.dll
 0002:000001d8       __imp__EnableWindow@8      004a51d8     user32:USER32.dll
 0002:000001dc       __imp__GetWindowRect@8     004a51dc     user32:USER32.dll
 0002:000001e0       __imp__GetWindowTextA@12   004a51e0     user32:USER32.dll
 0002:000001e4       __imp__FrameRect@12        004a51e4     user32:USER32.dll
 0002:000001e8       __imp__SetScrollInfo@16    004a51e8     user32:USER32.dll
 0002:000001ec       __imp__SetScrollPos@16     004a51ec     user32:USER32.dll
 0002:000001f0       __imp__CreateWindowExA@48  004a51f0     user32:USER32.dll
 0002:000001f4       __imp__RegisterClassExA@4  004a51f4     user32:USER32.dll
 0002:000001f8       __imp__DefWindowProcA@16   004a51f8     user32:USER32.dll
 0002:000001fc       __imp__MessageBoxA@16      004a51fc     user32:USER32.dll
 0002:00000200       __imp__SetWindowTextA@8    004a5200     user32:USER32.dll
 0002:00000204       __imp__InvalidateRect@12   004a5204     user32:USER32.dll
 0002:00000208       __imp__EndPaint@8          004a5208     user32:USER32.dll
 0002:0000020c       __imp__BeginPaint@8        004a520c     user32:USER32.dll
 0002:00000210       __imp__GetDlgItem@8        004a5210     user32:USER32.dll
 0002:00000214       __imp__ShowWindow@8        004a5214     user32:USER32.dll
 0002:00000218       __imp__SendMessageA@16     004a5218     user32:USER32.dll
 0002:0000021c       __imp__FillRect@12         004a521c     user32:USER32.dll
 0002:00000220       __imp__MoveWindow@24       004a5220     user32:USER32.dll
 0002:00000224       \177USER32_NULL_THUNK_DATA 004a5224     user32:USER32.dll
 0002:00000228       ___guard_check_icall_fptr  004a5228     LIBCMTD:guard_support.obj
 0002:0000022c       ___xc_a                    004a522c     LIBCMTD:initializers.obj
 0002:000002d8       ___xc_z                    004a52d8     LIBCMTD:initializers.obj
 0002:000002dc       ___xi_a                    004a52dc     LIBCMTD:initializers.obj
 0002:000002ec       ___acrt_stdio_initializer  004a52ec     libucrtd:stdio_initializer.obj
 0002:000002f0       ___acrt_multibyte_initializer 004a52f0     libucrtd:multibyte_initializer.obj
 0002:000002f4       ___acrt_tran_sse2_initializer 004a52f4     libucrtd:sse2_initializer.obj
 0002:000002f8       ___xi_z                    004a52f8     LIBCMTD:initializers.obj
 0002:000002fc       ___xp_a                    004a52fc     LIBCMTD:initializers.obj
 0002:00000300       ___acrt_locale_terminator  004a5300     libucrtd:locale_initializer.obj
 0002:00000304       ___dcrt_console_output_terminator 004a5304     libucrtd:console_output_initializer.obj
 0002:00000308       ___acrt_stdio_terminator   004a5308     libucrtd:stdio_initializer.obj
 0002:0000030c       ___xp_z                    004a530c     LIBCMTD:initializers.obj
 0002:00000310       ___xt_a                    004a5310     LIBCMTD:initializers.obj
 0002:00000314       ___xt_z                    004a5314     LIBCMTD:initializers.obj
 0002:00000320       ??_C@_01GFHCPBMG@C?$AA@    004a5320     BGImportEditor.obj
 0002:00000324       ??_C@_02DKCKIIND@?$CFs?$AA@ 004a5324     BGImportEditor.obj
 0002:00000328       ??_C@_01GBGANLPD@0?$AA@    004a5328     BGImportEditor.obj
 0002:0000032c       ??_C@_01HIHLOKLC@1?$AA@    004a532c     BGImportEditor.obj
 0002:00000330       ??_C@_01FDFGLJHB@2?$AA@    004a5330     BGImportEditor.obj
 0002:00000334       ??_C@_01EKENIIDA@3?$AA@    004a5334     BGImportEditor.obj
 0002:00000338       ??_C@_01FAMBOPH@4?$AA@     004a5338     BGImportEditor.obj
 0002:0000033c       ??_C@_01BMBHCPLG@5?$AA@    004a533c     BGImportEditor.obj
 0002:00000340       ??_C@_01DHDKHMHF@6?$AA@    004a5340     BGImportEditor.obj
 0002:00000344       ??_C@_01COCBENDE@7?$AA@    004a5344     BGImportEditor.obj
 0002:00000348       ??_C@_01KJLJFBPL@8?$AA@    004a5348     BGImportEditor.obj
 0002:0000034c       ??_C@_01LAKCGALK@9?$AA@    004a534c     BGImportEditor.obj
 0002:00000350       ??_C@_01FHEEJDEE@A?$AA@    004a5350     BGImportEditor.obj
 0002:00000354       ??_C@_01HMGJMAIH@B?$AA@    004a5354     BGImportEditor.obj
 0002:00000358       ??_C@_01CKDDGHAB@D?$AA@    004a5358     BGImportEditor.obj
 0002:0000035c       ??_C@_01DDCIFGEA@E?$AA@    004a535c     BGImportEditor.obj
 0002:00000360       ??_C@_01BIAFAFID@F?$AA@    004a5360     BGImportEditor.obj
 0002:00000364       ??_C@_0BK@JJBLEBKF@Please?5Select?5a?5file?$AA?$CK?4?$CK?$AA?$AA@ 004a5364     BGImportEditor.obj
 0002:00000380       ??_C@_0O@KMIFPNEB@?9Ah?532?5?9Aw?532?$AA@ 004a5380     BGImportEditor.obj
 0002:00000390       ??_C@_0O@KDAMPGHE@?9Mh?564?5?9Aw?532?$AA@ 004a5390     BGImportEditor.obj
 0002:000003a0       ??_C@_0O@PMBEJICM@?9Ah?532?5?9Aw?564?$AA@ 004a53a0     BGImportEditor.obj
 0002:000003b0       ??_C@_05BMGBEOOC@?$CFs?2?$CFs?$AA@ 004a53b0     BGImportEditor.obj
 0002:000003b8       ??_C@_0M@KINLMLHD@?$CFs?2grit?4exe?$AA@ 004a53b8     BGImportEditor.obj
 0002:000003c4       ??_C@_0CN@NCDNHGKM@?$CFs?5?9gt?5?9gu?58?5?9gB4?5?9mLs?5?9MRp?5?9mRt@ 004a53c4     BGImportEditor.obj
 0002:000003f4       ??_C@_04PMOCAHAA@open?$AA@ 004a53f4     BGImportEditor.obj
 0002:000003fc       ??_C@_02JPEJKMKI@?4h?$AA@  004a53fc     BGImportEditor.obj
 0002:00000400       ??_C@_08DAFHADFM@?4img?4bin?$AA@ 004a5400     BGImportEditor.obj
 0002:0000040c       ??_C@_08POMELDOL@?4pal?4bin?$AA@ 004a540c     BGImportEditor.obj
 0002:00000418       ??_C@_08GNGOFFPB@?4map?4bin?$AA@ 004a5418     BGImportEditor.obj
 0002:00000424       ??_C@_07MHLIEPKG@?$CFs?2?$CFs?$CFs?$AA@ 004a5424     BGImportEditor.obj
 0002:0000042c       ??_C@_03HMFOOINA@r?$CLb?$AA@ 004a542c     BGImportEditor.obj
 0002:00000430       ??_C@_0DB@GBBMFBAN@File?5?$CFs?6?5Could?5not?5be?5found?5abor@ 004a5430     BGImportEditor.obj
 0002:00000464       ??_C@_05NAOIJFC@Error?$AA@ 004a5464     BGImportEditor.obj
 0002:00000470       ??_C@_0FP@JNGJEPND@Cannot?5save?5to?5ROM?0?5this?5image?5h@ 004a5470     BGImportEditor.obj
 0002:000004d0       ??_C@_02DPKJAMEF@?$CFd?$AA@ 004a54d0     cClipboard.obj
 0002:000004d8       ??_C@_1JA@MHADJNIL@?$AAc?$AA?3?$AA?2?$AAp?$AAr?$AAo?$AAg?$AAr?$AAa?$AAm?$AA?5?$AAf?$AAi?$AAl?$AAe?$AAs?$AA?5?$AA?$CI?$AAx?$AA8?$AA6?$AA?$CJ?$AA?2?$AAm?$AAi?$AAc?$AAr?$AAo?$AAs?$AAo?$AAf?$AAt@ 004a54d8     cCopyData.obj
 0002:00000568       ??_C@_1DC@POOIKBAO@?$AAI?$AAT?$AAE?$AAR?$AAA?$AAT?$AAO?$AAR?$AA?5?$AAL?$AAI?$AAS?$AAT?$AA?5?$AAC?$AAO?$AAR?$AAR?$AAU?$AAP?$AAT?$AAE?$AAD?$AA?$CB?$AA?$AA@ 004a5568     cCopyData.obj
 0002:0000059c       ??_C@_0BE@LMNLACIC@_Ptr_container?5?$CB?$DN?50?$AA@ 004a559c     cCopyData.obj
 0002:000005b0       ??_C@_1DG@HGDKEBPG@?$AA?$CC?$AA_?$AAP?$AAt?$AAr?$AA_?$AAc?$AAo?$AAn?$AAt?$AAa?$AAi?$AAn?$AAe?$AAr?$AA?5?$AA?$CB?$AA?$DN?$AA?5?$AA0?$AA?$CC?$AA?5?$AA?$CG?$AA?$CG?$AA?5?$AA0?$AA?$AA@ 004a55b0     cCopyData.obj
 0002:000005e8       ??_C@_17CNPHIMPH@?$AA?$CF?$AAl?$AAs?$AA?$AA@ 004a55e8     cCopyData.obj
 0002:000005f0       ??_C@_1JA@DKOIEICI@?$AAc?$AA?3?$AA?2?$AAp?$AAr?$AAo?$AAg?$AAr?$AAa?$AAm?$AA?5?$AAf?$AAi?$AAl?$AAe?$AAs?$AA?5?$AA?$CI?$AAx?$AA8?$AA6?$AA?$CJ?$AA?2?$AAm?$AAi?$AAc?$AAr?$AAo?$AAs?$AAo?$AAf?$AAt@ 004a55f0     cCopyData.obj
 0002:00000680       ??_C@_1BO@NKFMJPA@?$AAs?$AAt?$AAd?$AA?3?$AA?3?$AA_?$AAA?$AAl?$AAl?$AAo?$AAc?$AAa?$AAt?$AAe?$AA?$AA@ 004a5680     cCopyData.obj
 0002:000006a0       ??_C@_1CG@JNLFBNGN@?$AA?$CC?$AAi?$AAn?$AAv?$AAa?$AAl?$AAi?$AAd?$AA?5?$AAa?$AAr?$AAg?$AAu?$AAm?$AAe?$AAn?$AAt?$AA?$CC?$AA?$AA@ 004a56a0     cCopyData.obj
 0002:000006c8       ??_C@_09GLJCAGLP@_Ptr?5?$CB?$DN?50?$AA@ 004a56c8     cCopyData.obj
 0002:000006d4       ??_C@_1CC@GKJLLHIM@?$AA?$CC?$AA_?$AAP?$AAt?$AAr?$AA?5?$AA?$CB?$AA?$DN?$AA?5?$AA0?$AA?$CC?$AA?5?$AA?$CG?$AA?$CG?$AA?5?$AA0?$AA?$AA@ 004a56d4     cCopyData.obj
 0002:000006f8       ??_C@_0BN@HMCJOMKN@_Count?5?$DM?$DN?5?$CIsize_t?$CJ?$CI?91?$CJ?5?1?5_Sz?$AA@ 004a56f8     cCopyData.obj
 0002:00000718       ??_C@_1EI@MLOBABC@?$AA?$CC?$AA_?$AAC?$AAo?$AAu?$AAn?$AAt?$AA?5?$AA?$DM?$AA?$DN?$AA?5?$AA?$CI?$AAs?$AAi?$AAz?$AAe?$AA_?$AAt?$AA?$CJ?$AA?$CI?$AA?9?$AA1?$AA?$CJ?$AA?5?$AA?1?$AA?5?$AA_?$AAS?$AAz?$AA?$CC?$AA?5?$AA?$CG@ 004a5718     cCopyData.obj
 0002:00000760       ??_C@_1CC@LOFJFFDB@?$AAs?$AAt?$AAd?$AA?3?$AA?3?$AA_?$AAD?$AAe?$AAa?$AAl?$AAl?$AAo?$AAc?$AAa?$AAt?$AAe?$AA?$AA@ 004a5760     cCopyData.obj
 0002:00000784       ??_C@_0DD@GBGGGKGG@?$CI_Ptr_user?5?$CG?5?$CI_BIG_ALLOCATION_AL@ 004a5784     cCopyData.obj
 0002:000007b8       ??_C@_1HE@CDMBFOKC@?$AA?$CC?$AA?$CI?$AA_?$AAP?$AAt?$AAr?$AA_?$AAu?$AAs?$AAe?$AAr?$AA?5?$AA?$CG?$AA?5?$AA?$CI?$AA_?$AAB?$AAI?$AAG?$AA_?$AAA?$AAL?$AAL?$AAO?$AAC?$AAA?$AAT?$AAI?$AAO?$AAN?$AA_?$AAA@ 004a57b8     cCopyData.obj
 0002:00000830       ??_C@_0EI@NOJHEJCJ@reinterpret_cast?$DMuintptr_t?5?$CK?$DO?$CI_P@ 004a5830     cCopyData.obj
 0002:00000878       ??_C@_1JO@EKLKIEHP@?$AA?$CC?$AAr?$AAe?$AAi?$AAn?$AAt?$AAe?$AAr?$AAp?$AAr?$AAe?$AAt?$AA_?$AAc?$AAa?$AAs?$AAt?$AA?$DM?$AAu?$AAi?$AAn?$AAt?$AAp?$AAt?$AAr?$AA_?$AAt?$AA?5?$AA?$CK?$AA?$DO?$AA?$CI?$AA_@ 004a5878     cCopyData.obj
 0002:00000918       ??_C@_0BL@OCKMEJON@_Ptr_container?5?$DM?5_Ptr_user?$AA@ 004a5918     cCopyData.obj
 0002:00000938       ??_C@_1EE@PDHAHDDC@?$AA?$CC?$AA_?$AAP?$AAt?$AAr?$AA_?$AAc?$AAo?$AAn?$AAt?$AAa?$AAi?$AAn?$AAe?$AAr?$AA?5?$AA?$DM?$AA?5?$AA_?$AAP?$AAt?$AAr?$AA_?$AAu?$AAs?$AAe?$AAr?$AA?$CC?$AA?5?$AA?$CG?$AA?$CG?$AA?5@ 004a5938     cCopyData.obj
 0002:0000097c       ??_C@_0DB@GLFJLNCE@2?5?$CK?5sizeof?$CIvoid?5?$CK?$CJ?5?$DM?$DN?5_Ptr_user?5@ 004a597c     cCopyData.obj
 0002:000009b0       ??_C@_1HA@NAPGMHAO@?$AA?$CC?$AA2?$AA?5?$AA?$CK?$AA?5?$AAs?$AAi?$AAz?$AAe?$AAo?$AAf?$AA?$CI?$AAv?$AAo?$AAi?$AAd?$AA?5?$AA?$CK?$AA?$CJ?$AA?5?$AA?$DM?$AA?$DN?$AA?5?$AA_?$AAP?$AAt?$AAr?$AA_?$AAu?$AAs?$AAe?$AAr@ 004a59b0     cCopyData.obj
 0002:00000a20       ??_C@_0CN@BLHJCAL@_Ptr_user?5?9?5_Ptr_container?5?$DM?$DN?5_N@ 004a5a20     cCopyData.obj
 0002:00000a50       ??_C@_1GI@DHJGPFNI@?$AA?$CC?$AA_?$AAP?$AAt?$AAr?$AA_?$AAu?$AAs?$AAe?$AAr?$AA?5?$AA?9?$AA?5?$AA_?$AAP?$AAt?$AAr?$AA_?$AAc?$AAo?$AAn?$AAt?$AAa?$AAi?$AAn?$AAe?$AAr?$AA?5?$AA?$DM?$AA?$DN?$AA?5?$AA_@ 004a5a50     cCopyData.obj
 0002:00000ab8       ??_C@_04OHJIHAFH@None?$AA@ 004a5ab8     cCopyData.obj
 0002:00000ac0       ??_C@_0BK@LACLICFO@Please?5copy?5a?5tile?5first?4?$AA@ 004a5ac0     cCopyData.obj
 0002:00000ae0       ??_C@_1IM@NCODKBJH@?$AAc?$AA?3?$AA?2?$AAp?$AAr?$AAo?$AAg?$AAr?$AAa?$AAm?$AA?5?$AAf?$AAi?$AAl?$AAe?$AAs?$AA?5?$AA?$CI?$AAx?$AA8?$AA6?$AA?$CJ?$AA?2?$AAm?$AAi?$AAc?$AAr?$AAo?$AAs?$AAo?$AAf?$AAt@ 004a5ae0     cCopyData.obj
 0002:00000b6c       ??_C@_1DM@LHGCHCBA@?$AAv?$AAe?$AAc?$AAt?$AAo?$AAr?$AA?5?$AAs?$AAu?$AAb?$AAs?$AAc?$AAr?$AAi?$AAp?$AAt?$AA?5?$AAo?$AAu?$AAt?$AA?5?$AAo?$AAf?$AA?5?$AAr?$AAa?$AAn?$AAg?$AAe?$AA?$AA@ 004a5b6c     cCopyData.obj
 0002:00000ba8       ??_C@_0CE@OFMIGAMM@Standard?5C?$CL?$CL?5Libraries?5Out?5of?5Ra@ 004a5ba8     cCopyData.obj
